
CH32V203C8T6.elf:     file format elf32-littleriscv
CH32V203C8T6.elf
architecture: riscv:rv32, flags 0x00000112:
EXEC_P, HAS_SYMS, D_PAGED
start address 0x00000000

Program Header:
    LOAD off    0x00001000 vaddr 0x00000000 paddr 0x00000000 align 2**12
         filesz 0x00001684 memsz 0x00001684 flags r-x
    LOAD off    0x00003000 vaddr 0x20000000 paddr 0x00001684 align 2**12
         filesz 0x00000008 memsz 0x0000004c flags rw-
    LOAD off    0x00003e00 vaddr 0x20004e00 paddr 0x20004e00 align 2**12
         filesz 0x00000000 memsz 0x00000200 flags rw-

Sections:
Idx Name          Size      VMA       LMA       File off  Algn
  0 .init         00000038  00000000  00000000  00001000  2**1
                  CONTENTS, ALLOC, LOAD, READONLY, CODE
  1 .vector       00000108  00000038  00000038  00001038  2**1
                  CONTENTS, ALLOC, LOAD, READONLY, CODE
  2 .text         00001544  00000140  00000140  00001140  2**1
                  CONTENTS, ALLOC, LOAD, READONLY, CODE
  3 .fini         00000000  00001684  00001684  00003008  2**0
                  CONTENTS, ALLOC, LOAD, CODE
  4 .dalign       00000000  20000000  20000000  00003008  2**0
                  CONTENTS
  5 .dlalign      00000000  00001684  00001684  00003008  2**0
                  CONTENTS
  6 .data         00000008  20000000  00001684  00003000  2**2
                  CONTENTS, ALLOC, LOAD, DATA
  7 .bss          00000044  20000008  0000168c  00003008  2**2
                  ALLOC
  8 .stack        00000200  20004e00  20004e00  00003e00  2**0
                  ALLOC
  9 .debug_line   00001e55  00000000  00000000  00003008  2**0
                  CONTENTS, READONLY, DEBUGGING
 10 .debug_info   00001817  00000000  00000000  00004e5d  2**0
                  CONTENTS, READONLY, DEBUGGING
 11 .debug_abbrev 00000551  00000000  00000000  00006674  2**0
                  CONTENTS, READONLY, DEBUGGING
 12 .debug_aranges 00000168  00000000  00000000  00006bc8  2**3
                  CONTENTS, READONLY, DEBUGGING
 13 .debug_str    0002eb3b  00000000  00000000  00006d30  2**0
                  CONTENTS, READONLY, DEBUGGING
 14 .debug_ranges 00000130  00000000  00000000  00035870  2**3
                  CONTENTS, READONLY, DEBUGGING
 15 .debug_macro  0000043a  00000000  00000000  000359a0  2**0
                  CONTENTS, READONLY, DEBUGGING
 16 .comment      00000033  00000000  00000000  00035dda  2**0
                  CONTENTS, READONLY
 17 .debug_frame  0000042c  00000000  00000000  00035e10  2**2
                  CONTENTS, READONLY, DEBUGGING
SYMBOL TABLE:
00000000 l    d  .init	00000000 .init
00000038 l    d  .vector	00000000 .vector
00000140 l    d  .text	00000000 .text
00001684 l    d  .fini	00000000 .fini
20000000 l    d  .dalign	00000000 .dalign
00001684 l    d  .dlalign	00000000 .dlalign
20000000 l    d  .data	00000000 .data
20000008 l    d  .bss	00000000 .bss
20004e00 l    d  .stack	00000000 .stack
00000000 l    d  .debug_line	00000000 .debug_line
00000000 l    d  .debug_info	00000000 .debug_info
00000000 l    d  .debug_abbrev	00000000 .debug_abbrev
00000000 l    d  .debug_aranges	00000000 .debug_aranges
00000000 l    d  .debug_str	00000000 .debug_str
00000000 l    d  .debug_ranges	00000000 .debug_ranges
00000000 l    d  .debug_macro	00000000 .debug_macro
00000000 l    d  .comment	00000000 .comment
00000000 l    d  .debug_frame	00000000 .debug_frame
00000000 l    df *ABS*	00000000 ./Core/Startup/startup_ch32v20x_D6.o
00000038 l       .vector	00000000 _vector_base
00000000 l    df *ABS*	00000000 ch32v20x_RVMSIS.c
00000232 l     F .text	00000032 NVIC_EnableIRQ
00000000 l    df *ABS*	00000000 main.c
00000000 l    df *ABS*	00000000 system_ch32v20x.c
0000155c l     F .text	00000014 SetSysClock
00001570 l     F .text	00000114 SetSysClockTo96_HSE
0000015e  w      .text	00000000 EXTI2_IRQHandler
000005ce g     F .text	0000006e RVMSIS_PA8_MCO_init
20000000 g     O .data	00000006 Arr
0000088a g     F .text	00000162 RVMSIS_TIM3_PWM_CHANNEL1_init
2000000c g     O .bss	00000004 Delay_counter_ms
20000800 g       .data	00000000 __global_pointer$
00000184  w      .text	00000000 TIM1_CC_IRQHandler
00000142  w      .text	00000000 HardFault_Handler
00000b5e g     F .text	00000406 RVMSIS_ADC_DMA_init
20000010 g     O .bss	00000004 Timeout_counter_ms
00000474 g     F .text	00000094 RVMSIS_SysTick_Timer_init
00000508 g     F .text	00000056 SysTick_Handler
00000150  w      .text	00000000 PVD_IRQHandler
00000140  w      .text	00000000 NMI_Handler
00000160  w      .text	00000000 EXTI3_IRQHandler
0000014c  w      .text	00000000 SW_handler
20000008 g       .bss	00000000 _sbss
00000200 g       *ABS*	00000000 __stack_size
000009ec g     F .text	00000172 RVMSIS_TIM3_PWM_CHANNEL2_init
00001286 g     F .text	0000007c RVMSIS_USART_Transmit
20000014 g     O .bss	00000004 ADC_RAW_Data
0000143e g     F .text	00000034 EXTI0_IRQHandler
00000190  w      .text	00000000 I2C2_EV_IRQHandler
0000063c g     F .text	000000d0 RVMSIS_EXTI0_init
00000038 g       .init	00000000 _einit
0000070c g     F .text	0000017e RVMSIS_TIM3_init
00000172  w      .text	00000000 ADC1_2_IRQHandler
00000148  w      .text	00000000 Break_Point_Handler
00000580 g     F .text	0000004e RVMSIS_PC13_OUTPUT_Push_Pull_init
00000194  w      .text	00000000 SPI1_IRQHandler
00000152  w      .text	00000000 TAMPER_IRQHandler
00000144  w      .text	00000000 Ecall_M_Mode_Handler
0000016a  w      .text	00000000 DMA1_Channel4_IRQHandler
0000019c  w      .text	00000000 USART3_IRQHandler
00000154  w      .text	00000000 RTC_IRQHandler
2000004c g       .bss	00000000 _ebss
00000170  w      .text	00000000 DMA1_Channel7_IRQHandler
00000178  w      .text	00000000 CAN1_RX1_IRQHandler
0000018a  w      .text	00000000 TIM4_IRQHandler
0000018c  w      .text	00000000 I2C1_EV_IRQHandler
000001a4  w      .text	00000000 USBHD_IRQHandler
2000001c g     O .bss	00000004 EXTI0_Counter
20000018 g     O .bss	00000004 TIM_Counter
0000016e  w      .text	00000000 DMA1_Channel6_IRQHandler
000001a8  w      .text	00000000 UART4_IRQHandler
000013f0 g     F .text	0000004e TIM3_IRQHandler
00000158  w      .text	00000000 RCC_IRQHandler
00000182  w      .text	00000000 TIM1_TRG_COM_IRQHandler
000013aa g     F .text	00000046 DMA1_Channel1_IRQHandler
00000000 g       .init	00000000 _start
0000019e  w      .text	00000000 EXTI15_10_IRQHandler
000001aa  w      .text	00000000 DMA1_Channel8_IRQHandler
20000000 g       .dalign	00000000 _data_vma
0000017c  w      .text	00000000 EXTI9_5_IRQHandler
0000055e g     F .text	00000022 Delay_ms
00000196  w      .text	00000000 SPI2_IRQHandler
00001472 g     F .text	0000006e main
00000264 g     F .text	00000070 RVMSIS_Debug_init
0000016c  w      .text	00000000 DMA1_Channel5_IRQHandler
00000162  w      .text	00000000 EXTI4_IRQHandler
00000176  w      .text	00000000 USB_LP_CAN1_RX0_IRQHandler
000014e0 g     F .text	0000007c SystemInit
00000174  w      .text	00000000 USB_HP_CAN1_TX_IRQHandler
00000000 g       .init	00000000 _sinit
000001a6  w      .text	00000000 USBHDWakeUp_IRQHandler
00000168  w      .text	00000000 DMA1_Channel3_IRQHandler
00000180  w      .text	00000000 TIM1_UP_IRQHandler
00000f64 g     F .text	00000322 RVMSIS_USART1_Init
0000014e  w      .text	00000000 WWDG_IRQHandler
00000146  w      .text	00000000 Ecall_U_Mode_Handler
00000186  w      .text	00000000 TIM2_IRQHandler
20005000 g       .stack	00000000 _eusrstack
20000008 g     O .bss	00000004 SysTimer_ms
0000017e  w      .text	00000000 TIM1_BRK_IRQHandler
0000015c  w      .text	00000000 EXTI1_IRQHandler
20000008 g       .data	00000000 _edata
000001a0  w      .text	00000000 RTCAlarm_IRQHandler
00001684 g       .dlalign	00000000 _data_lma
0000019a  w      .text	00000000 USART2_IRQHandler
000002d4 g     F .text	000001a0 RVMSIS_RCC_SystemClock_144MHz
00000192  w      .text	00000000 I2C2_ER_IRQHandler
00000166  w      .text	00000000 DMA1_Channel2_IRQHandler
20000020 g     O .bss	0000002c husart1
000001ac  w      .text	00000000 handle_reset
0000017a  w      .text	00000000 CAN1_SCE_IRQHandler
00000156  w      .text	00000000 FLASH_IRQHandler
00001302 g     F .text	000000a8 USART1_IRQHandler
0000018e  w      .text	00000000 I2C1_ER_IRQHandler
000001a2  w      .text	00000000 USBWakeUp_IRQHandler



Disassembly of section .init:

00000000 <_sinit>:
   0:	1ac0006f          	j	1ac <handle_reset>
   4:	00000013          	nop
   8:	00000013          	nop
   c:	00000013          	nop
  10:	00000013          	nop
  14:	00000013          	nop
  18:	00000013          	nop
  1c:	00000013          	nop
  20:	00000013          	nop
  24:	00000013          	nop
  28:	00000013          	nop
  2c:	00000013          	nop
  30:	00000013          	nop
  34:	00100073          	ebreak

Disassembly of section .vector:

00000038 <_vector_base>:
	...
  40:	0140                	addi	s0,sp,132
  42:	0000                	unimp
  44:	0142                	slli	sp,sp,0x10
  46:	0000                	unimp
  48:	0000                	unimp
  4a:	0000                	unimp
  4c:	0144                	addi	s1,sp,132
	...
  56:	0000                	unimp
  58:	0146                	slli	sp,sp,0x11
  5a:	0000                	unimp
  5c:	0148                	addi	a0,sp,132
	...
  66:	0000                	unimp
  68:	0508                	addi	a0,sp,640
  6a:	0000                	unimp
  6c:	0000                	unimp
  6e:	0000                	unimp
  70:	014c                	addi	a1,sp,132
  72:	0000                	unimp
  74:	0000                	unimp
  76:	0000                	unimp
  78:	014e                	slli	sp,sp,0x13
  7a:	0000                	unimp
  7c:	0150                	addi	a2,sp,132
  7e:	0000                	unimp
  80:	0152                	slli	sp,sp,0x14
  82:	0000                	unimp
  84:	0154                	addi	a3,sp,132
  86:	0000                	unimp
  88:	0156                	slli	sp,sp,0x15
  8a:	0000                	unimp
  8c:	0158                	addi	a4,sp,132
  8e:	0000                	unimp
  90:	143e                	slli	s0,s0,0x2f
  92:	0000                	unimp
  94:	015c                	addi	a5,sp,132
  96:	0000                	unimp
  98:	015e                	slli	sp,sp,0x17
  9a:	0000                	unimp
  9c:	0160                	addi	s0,sp,140
  9e:	0000                	unimp
  a0:	0162                	slli	sp,sp,0x18
  a2:	0000                	unimp
  a4:	13aa                	slli	t2,t2,0x2a
  a6:	0000                	unimp
  a8:	0166                	slli	sp,sp,0x19
  aa:	0000                	unimp
  ac:	0168                	addi	a0,sp,140
  ae:	0000                	unimp
  b0:	016a                	slli	sp,sp,0x1a
  b2:	0000                	unimp
  b4:	016c                	addi	a1,sp,140
  b6:	0000                	unimp
  b8:	016e                	slli	sp,sp,0x1b
  ba:	0000                	unimp
  bc:	0170                	addi	a2,sp,140
  be:	0000                	unimp
  c0:	0172                	slli	sp,sp,0x1c
  c2:	0000                	unimp
  c4:	0174                	addi	a3,sp,140
  c6:	0000                	unimp
  c8:	0176                	slli	sp,sp,0x1d
  ca:	0000                	unimp
  cc:	0178                	addi	a4,sp,140
  ce:	0000                	unimp
  d0:	017a                	slli	sp,sp,0x1e
  d2:	0000                	unimp
  d4:	017c                	addi	a5,sp,140
  d6:	0000                	unimp
  d8:	017e                	slli	sp,sp,0x1f
  da:	0000                	unimp
  dc:	0180                	addi	s0,sp,192
  de:	0000                	unimp
  e0:	0182                	c.slli64	gp
  e2:	0000                	unimp
  e4:	0184                	addi	s1,sp,192
  e6:	0000                	unimp
  e8:	0186                	slli	gp,gp,0x1
  ea:	0000                	unimp
  ec:	13f0                	addi	a2,sp,492
  ee:	0000                	unimp
  f0:	018a                	slli	gp,gp,0x2
  f2:	0000                	unimp
  f4:	018c                	addi	a1,sp,192
  f6:	0000                	unimp
  f8:	018e                	slli	gp,gp,0x3
  fa:	0000                	unimp
  fc:	0190                	addi	a2,sp,192
  fe:	0000                	unimp
 100:	0192                	slli	gp,gp,0x4
 102:	0000                	unimp
 104:	0194                	addi	a3,sp,192
 106:	0000                	unimp
 108:	0196                	slli	gp,gp,0x5
 10a:	0000                	unimp
 10c:	1302                	slli	t1,t1,0x20
 10e:	0000                	unimp
 110:	019a                	slli	gp,gp,0x6
 112:	0000                	unimp
 114:	019c                	addi	a5,sp,192
 116:	0000                	unimp
 118:	019e                	slli	gp,gp,0x7
 11a:	0000                	unimp
 11c:	01a0                	addi	s0,sp,200
 11e:	0000                	unimp
 120:	01a2                	slli	gp,gp,0x8
 122:	0000                	unimp
 124:	01a4                	addi	s1,sp,200
 126:	0000                	unimp
 128:	01a6                	slli	gp,gp,0x9
 12a:	0000                	unimp
 12c:	01a8                	addi	a0,sp,200
 12e:	0000                	unimp
 130:	01aa                	slli	gp,gp,0xa
	...

Disassembly of section .text:

00000140 <NMI_Handler>:
     140:	a001                	j	140 <NMI_Handler>

00000142 <HardFault_Handler>:
     142:	a001                	j	142 <HardFault_Handler>

00000144 <Ecall_M_Mode_Handler>:
     144:	a001                	j	144 <Ecall_M_Mode_Handler>

00000146 <Ecall_U_Mode_Handler>:
     146:	a001                	j	146 <Ecall_U_Mode_Handler>

00000148 <Break_Point_Handler>:
     148:	a001                	j	148 <Break_Point_Handler>
     14a:	a001                	j	14a <Break_Point_Handler+0x2>

0000014c <SW_handler>:
     14c:	a001                	j	14c <SW_handler>

0000014e <WWDG_IRQHandler>:
     14e:	a001                	j	14e <WWDG_IRQHandler>

00000150 <PVD_IRQHandler>:
     150:	a001                	j	150 <PVD_IRQHandler>

00000152 <TAMPER_IRQHandler>:
     152:	a001                	j	152 <TAMPER_IRQHandler>

00000154 <RTC_IRQHandler>:
     154:	a001                	j	154 <RTC_IRQHandler>

00000156 <FLASH_IRQHandler>:
     156:	a001                	j	156 <FLASH_IRQHandler>

00000158 <RCC_IRQHandler>:
     158:	a001                	j	158 <RCC_IRQHandler>
     15a:	a001                	j	15a <RCC_IRQHandler+0x2>

0000015c <EXTI1_IRQHandler>:
     15c:	a001                	j	15c <EXTI1_IRQHandler>

0000015e <EXTI2_IRQHandler>:
     15e:	a001                	j	15e <EXTI2_IRQHandler>

00000160 <EXTI3_IRQHandler>:
     160:	a001                	j	160 <EXTI3_IRQHandler>

00000162 <EXTI4_IRQHandler>:
     162:	a001                	j	162 <EXTI4_IRQHandler>
     164:	a001                	j	164 <EXTI4_IRQHandler+0x2>

00000166 <DMA1_Channel2_IRQHandler>:
     166:	a001                	j	166 <DMA1_Channel2_IRQHandler>

00000168 <DMA1_Channel3_IRQHandler>:
     168:	a001                	j	168 <DMA1_Channel3_IRQHandler>

0000016a <DMA1_Channel4_IRQHandler>:
     16a:	a001                	j	16a <DMA1_Channel4_IRQHandler>

0000016c <DMA1_Channel5_IRQHandler>:
     16c:	a001                	j	16c <DMA1_Channel5_IRQHandler>

0000016e <DMA1_Channel6_IRQHandler>:
     16e:	a001                	j	16e <DMA1_Channel6_IRQHandler>

00000170 <DMA1_Channel7_IRQHandler>:
     170:	a001                	j	170 <DMA1_Channel7_IRQHandler>

00000172 <ADC1_2_IRQHandler>:
     172:	a001                	j	172 <ADC1_2_IRQHandler>

00000174 <USB_HP_CAN1_TX_IRQHandler>:
     174:	a001                	j	174 <USB_HP_CAN1_TX_IRQHandler>

00000176 <USB_LP_CAN1_RX0_IRQHandler>:
     176:	a001                	j	176 <USB_LP_CAN1_RX0_IRQHandler>

00000178 <CAN1_RX1_IRQHandler>:
     178:	a001                	j	178 <CAN1_RX1_IRQHandler>

0000017a <CAN1_SCE_IRQHandler>:
     17a:	a001                	j	17a <CAN1_SCE_IRQHandler>

0000017c <EXTI9_5_IRQHandler>:
     17c:	a001                	j	17c <EXTI9_5_IRQHandler>

0000017e <TIM1_BRK_IRQHandler>:
     17e:	a001                	j	17e <TIM1_BRK_IRQHandler>

00000180 <TIM1_UP_IRQHandler>:
     180:	a001                	j	180 <TIM1_UP_IRQHandler>

00000182 <TIM1_TRG_COM_IRQHandler>:
     182:	a001                	j	182 <TIM1_TRG_COM_IRQHandler>

00000184 <TIM1_CC_IRQHandler>:
     184:	a001                	j	184 <TIM1_CC_IRQHandler>

00000186 <TIM2_IRQHandler>:
     186:	a001                	j	186 <TIM2_IRQHandler>
     188:	a001                	j	188 <TIM2_IRQHandler+0x2>

0000018a <TIM4_IRQHandler>:
     18a:	a001                	j	18a <TIM4_IRQHandler>

0000018c <I2C1_EV_IRQHandler>:
     18c:	a001                	j	18c <I2C1_EV_IRQHandler>

0000018e <I2C1_ER_IRQHandler>:
     18e:	a001                	j	18e <I2C1_ER_IRQHandler>

00000190 <I2C2_EV_IRQHandler>:
     190:	a001                	j	190 <I2C2_EV_IRQHandler>

00000192 <I2C2_ER_IRQHandler>:
     192:	a001                	j	192 <I2C2_ER_IRQHandler>

00000194 <SPI1_IRQHandler>:
     194:	a001                	j	194 <SPI1_IRQHandler>

00000196 <SPI2_IRQHandler>:
     196:	a001                	j	196 <SPI2_IRQHandler>
     198:	a001                	j	198 <SPI2_IRQHandler+0x2>

0000019a <USART2_IRQHandler>:
     19a:	a001                	j	19a <USART2_IRQHandler>

0000019c <USART3_IRQHandler>:
     19c:	a001                	j	19c <USART3_IRQHandler>

0000019e <EXTI15_10_IRQHandler>:
     19e:	a001                	j	19e <EXTI15_10_IRQHandler>

000001a0 <RTCAlarm_IRQHandler>:
     1a0:	a001                	j	1a0 <RTCAlarm_IRQHandler>

000001a2 <USBWakeUp_IRQHandler>:
     1a2:	a001                	j	1a2 <USBWakeUp_IRQHandler>

000001a4 <USBHD_IRQHandler>:
     1a4:	a001                	j	1a4 <USBHD_IRQHandler>

000001a6 <USBHDWakeUp_IRQHandler>:
     1a6:	a001                	j	1a6 <USBHDWakeUp_IRQHandler>

000001a8 <UART4_IRQHandler>:
     1a8:	a001                	j	1a8 <UART4_IRQHandler>

000001aa <DMA1_Channel8_IRQHandler>:
     1aa:	a001                	j	1aa <DMA1_Channel8_IRQHandler>

000001ac <handle_reset>:
     1ac:	20000197          	auipc	gp,0x20000
     1b0:	65418193          	addi	gp,gp,1620 # 20000800 <__global_pointer$>
     1b4:	20005117          	auipc	sp,0x20005
     1b8:	e4c10113          	addi	sp,sp,-436 # 20005000 <_eusrstack>
     1bc:	00001517          	auipc	a0,0x1
     1c0:	4c850513          	addi	a0,a0,1224 # 1684 <_data_lma>
     1c4:	20000597          	auipc	a1,0x20000
     1c8:	e3c58593          	addi	a1,a1,-452 # 20000000 <_data_vma>
     1cc:	80818613          	addi	a2,gp,-2040 # 20000008 <_edata>
     1d0:	00c5fa63          	bgeu	a1,a2,1e4 <handle_reset+0x38>
     1d4:	00052283          	lw	t0,0(a0)
     1d8:	0055a023          	sw	t0,0(a1)
     1dc:	0511                	addi	a0,a0,4
     1de:	0591                	addi	a1,a1,4
     1e0:	fec5eae3          	bltu	a1,a2,1d4 <handle_reset+0x28>
     1e4:	80818513          	addi	a0,gp,-2040 # 20000008 <_edata>
     1e8:	84c18593          	addi	a1,gp,-1972 # 2000004c <_ebss>
     1ec:	00b57763          	bgeu	a0,a1,1fa <handle_reset+0x4e>
     1f0:	00052023          	sw	zero,0(a0)
     1f4:	0511                	addi	a0,a0,4
     1f6:	feb56de3          	bltu	a0,a1,1f0 <handle_reset+0x44>
     1fa:	42fd                	li	t0,31
     1fc:	bc029073          	csrw	0xbc0,t0
     200:	428d                	li	t0,3
     202:	80429073          	csrw	0x804,t0
     206:	08800293          	li	t0,136
     20a:	3002a073          	csrs	mstatus,t0
     20e:	00000297          	auipc	t0,0x0
     212:	e2a28293          	addi	t0,t0,-470 # 38 <_einit>
     216:	0032e293          	ori	t0,t0,3
     21a:	30529073          	csrw	mtvec,t0
     21e:	2c2010ef          	jal	ra,14e0 <SystemInit>
     222:	00001297          	auipc	t0,0x1
     226:	25028293          	addi	t0,t0,592 # 1472 <main>
     22a:	34129073          	csrw	mepc,t0
     22e:	30200073          	mret

00000232 <NVIC_EnableIRQ>:
     232:	1101                	addi	sp,sp,-32
     234:	ce22                	sw	s0,28(sp)
     236:	1000                	addi	s0,sp,32
     238:	fea42623          	sw	a0,-20(s0)
     23c:	fec42783          	lw	a5,-20(s0)
     240:	8bfd                	andi	a5,a5,31
     242:	4705                	li	a4,1
     244:	00f716b3          	sll	a3,a4,a5
     248:	e000e737          	lui	a4,0xe000e
     24c:	fec42783          	lw	a5,-20(s0)
     250:	8395                	srli	a5,a5,0x5
     252:	04078793          	addi	a5,a5,64
     256:	078a                	slli	a5,a5,0x2
     258:	97ba                	add	a5,a5,a4
     25a:	c394                	sw	a3,0(a5)
     25c:	0001                	nop
     25e:	4472                	lw	s0,28(sp)
     260:	6105                	addi	sp,sp,32
     262:	8082                	ret

00000264 <RVMSIS_Debug_init>:
     264:	1141                	addi	sp,sp,-16
     266:	c622                	sw	s0,12(sp)
     268:	0800                	addi	s0,sp,16
     26a:	400217b7          	lui	a5,0x40021
     26e:	4f98                	lw	a4,24(a5)
     270:	400217b7          	lui	a5,0x40021
     274:	00476713          	ori	a4,a4,4
     278:	cf98                	sw	a4,24(a5)
     27a:	400217b7          	lui	a5,0x40021
     27e:	4f98                	lw	a4,24(a5)
     280:	400217b7          	lui	a5,0x40021
     284:	00176713          	ori	a4,a4,1
     288:	cf98                	sw	a4,24(a5)
     28a:	400107b7          	lui	a5,0x40010
     28e:	43d4                	lw	a3,4(a5)
     290:	400107b7          	lui	a5,0x40010
     294:	f9000737          	lui	a4,0xf9000
     298:	177d                	addi	a4,a4,-1
     29a:	8f75                	and	a4,a4,a3
     29c:	c3d8                	sw	a4,4(a5)
     29e:	400117b7          	lui	a5,0x40011
     2a2:	80078793          	addi	a5,a5,-2048 # 40010800 <_eusrstack+0x2000b800>
     2a6:	6759                	lui	a4,0x16
     2a8:	cf98                	sw	a4,24(a5)
     2aa:	400117b7          	lui	a5,0x40011
     2ae:	80078793          	addi	a5,a5,-2048 # 40010800 <_eusrstack+0x2000b800>
     2b2:	6719                	lui	a4,0x6
     2b4:	cf98                	sw	a4,24(a5)
     2b6:	400117b7          	lui	a5,0x40011
     2ba:	80078793          	addi	a5,a5,-2048 # 40010800 <_eusrstack+0x2000b800>
     2be:	6759                	lui	a4,0x16
     2c0:	cf98                	sw	a4,24(a5)
     2c2:	400117b7          	lui	a5,0x40011
     2c6:	80078793          	addi	a5,a5,-2048 # 40010800 <_eusrstack+0x2000b800>
     2ca:	4f9c                	lw	a5,24(a5)
     2cc:	0001                	nop
     2ce:	4432                	lw	s0,12(sp)
     2d0:	0141                	addi	sp,sp,16
     2d2:	8082                	ret

000002d4 <RVMSIS_RCC_SystemClock_144MHz>:
     2d4:	1141                	addi	sp,sp,-16
     2d6:	c622                	sw	s0,12(sp)
     2d8:	0800                	addi	s0,sp,16
     2da:	400217b7          	lui	a5,0x40021
     2de:	4398                	lw	a4,0(a5)
     2e0:	400217b7          	lui	a5,0x40021
     2e4:	00176713          	ori	a4,a4,1
     2e8:	c398                	sw	a4,0(a5)
     2ea:	0001                	nop
     2ec:	400217b7          	lui	a5,0x40021
     2f0:	439c                	lw	a5,0(a5)
     2f2:	8b89                	andi	a5,a5,2
     2f4:	dfe5                	beqz	a5,2ec <RVMSIS_RCC_SystemClock_144MHz+0x18>
     2f6:	400217b7          	lui	a5,0x40021
     2fa:	4394                	lw	a3,0(a5)
     2fc:	400217b7          	lui	a5,0x40021
     300:	fffc0737          	lui	a4,0xfffc0
     304:	177d                	addi	a4,a4,-1
     306:	8f75                	and	a4,a4,a3
     308:	c398                	sw	a4,0(a5)
     30a:	400217b7          	lui	a5,0x40021
     30e:	4394                	lw	a3,0(a5)
     310:	400217b7          	lui	a5,0x40021
     314:	6741                	lui	a4,0x10
     316:	8f55                	or	a4,a4,a3
     318:	c398                	sw	a4,0(a5)
     31a:	0001                	nop
     31c:	400217b7          	lui	a5,0x40021
     320:	4398                	lw	a4,0(a5)
     322:	000207b7          	lui	a5,0x20
     326:	8ff9                	and	a5,a5,a4
     328:	dbf5                	beqz	a5,31c <RVMSIS_RCC_SystemClock_144MHz+0x48>
     32a:	400217b7          	lui	a5,0x40021
     32e:	4394                	lw	a3,0(a5)
     330:	400217b7          	lui	a5,0x40021
     334:	00080737          	lui	a4,0x80
     338:	8f55                	or	a4,a4,a3
     33a:	c398                	sw	a4,0(a5)
     33c:	400217b7          	lui	a5,0x40021
     340:	43dc                	lw	a5,4(a5)
     342:	ffc7f713          	andi	a4,a5,-4
     346:	400217b7          	lui	a5,0x40021
     34a:	00176713          	ori	a4,a4,1
     34e:	c3d8                	sw	a4,4(a5)
     350:	400217b7          	lui	a5,0x40021
     354:	4394                	lw	a3,0(a5)
     356:	400217b7          	lui	a5,0x40021
     35a:	ff000737          	lui	a4,0xff000
     35e:	177d                	addi	a4,a4,-1
     360:	8f75                	and	a4,a4,a3
     362:	c398                	sw	a4,0(a5)
     364:	400217b7          	lui	a5,0x40021
     368:	43d8                	lw	a4,4(a5)
     36a:	400217b7          	lui	a5,0x40021
     36e:	f0f77713          	andi	a4,a4,-241
     372:	c3d8                	sw	a4,4(a5)
     374:	400227b7          	lui	a5,0x40022
     378:	4b94                	lw	a3,16(a5)
     37a:	400227b7          	lui	a5,0x40022
     37e:	fe000737          	lui	a4,0xfe000
     382:	177d                	addi	a4,a4,-1
     384:	8f75                	and	a4,a4,a3
     386:	cb98                	sw	a4,16(a5)
     388:	400217b7          	lui	a5,0x40021
     38c:	43d8                	lw	a4,4(a5)
     38e:	400217b7          	lui	a5,0x40021
     392:	8ff77713          	andi	a4,a4,-1793
     396:	c3d8                	sw	a4,4(a5)
     398:	400217b7          	lui	a5,0x40021
     39c:	43d8                	lw	a4,4(a5)
     39e:	77f1                	lui	a5,0xffffc
     3a0:	7ff78793          	addi	a5,a5,2047 # ffffc7ff <_eusrstack+0xdfff77ff>
     3a4:	00f776b3          	and	a3,a4,a5
     3a8:	400217b7          	lui	a5,0x40021
     3ac:	6709                	lui	a4,0x2
     3ae:	8f55                	or	a4,a4,a3
     3b0:	c3d8                	sw	a4,4(a5)
     3b2:	400217b7          	lui	a5,0x40021
     3b6:	43d8                	lw	a4,4(a5)
     3b8:	77d1                	lui	a5,0xffff4
     3ba:	17fd                	addi	a5,a5,-1
     3bc:	00f776b3          	and	a3,a4,a5
     3c0:	400217b7          	lui	a5,0x40021
     3c4:	6721                	lui	a4,0x8
     3c6:	8f55                	or	a4,a4,a3
     3c8:	c3d8                	sw	a4,4(a5)
     3ca:	400217b7          	lui	a5,0x40021
     3ce:	43d4                	lw	a3,4(a5)
     3d0:	400217b7          	lui	a5,0x40021
     3d4:	7701                	lui	a4,0xfffe0
     3d6:	177d                	addi	a4,a4,-1
     3d8:	8f75                	and	a4,a4,a3
     3da:	c3d8                	sw	a4,4(a5)
     3dc:	400217b7          	lui	a5,0x40021
     3e0:	43d4                	lw	a3,4(a5)
     3e2:	400217b7          	lui	a5,0x40021
     3e6:	6741                	lui	a4,0x10
     3e8:	8f55                	or	a4,a4,a3
     3ea:	c3d8                	sw	a4,4(a5)
     3ec:	400217b7          	lui	a5,0x40021
     3f0:	43d4                	lw	a3,4(a5)
     3f2:	400217b7          	lui	a5,0x40021
     3f6:	003c0737          	lui	a4,0x3c0
     3fa:	8f55                	or	a4,a4,a3
     3fc:	c3d8                	sw	a4,4(a5)
     3fe:	400217b7          	lui	a5,0x40021
     402:	43d8                	lw	a4,4(a5)
     404:	ff4007b7          	lui	a5,0xff400
     408:	17fd                	addi	a5,a5,-1
     40a:	00f776b3          	and	a3,a4,a5
     40e:	400217b7          	lui	a5,0x40021
     412:	00800737          	lui	a4,0x800
     416:	8f55                	or	a4,a4,a3
     418:	c3d8                	sw	a4,4(a5)
     41a:	400217b7          	lui	a5,0x40021
     41e:	43d8                	lw	a4,4(a5)
     420:	f90007b7          	lui	a5,0xf9000
     424:	17fd                	addi	a5,a5,-1
     426:	00f776b3          	and	a3,a4,a5
     42a:	400217b7          	lui	a5,0x40021
     42e:	06000737          	lui	a4,0x6000
     432:	8f55                	or	a4,a4,a3
     434:	c3d8                	sw	a4,4(a5)
     436:	400217b7          	lui	a5,0x40021
     43a:	4394                	lw	a3,0(a5)
     43c:	400217b7          	lui	a5,0x40021
     440:	01000737          	lui	a4,0x1000
     444:	8f55                	or	a4,a4,a3
     446:	c398                	sw	a4,0(a5)
     448:	400217b7          	lui	a5,0x40021
     44c:	43dc                	lw	a5,4(a5)
     44e:	ffc7f713          	andi	a4,a5,-4
     452:	400217b7          	lui	a5,0x40021
     456:	00276713          	ori	a4,a4,2
     45a:	c3d8                	sw	a4,4(a5)
     45c:	0001                	nop
     45e:	400217b7          	lui	a5,0x40021
     462:	4398                	lw	a4,0(a5)
     464:	020007b7          	lui	a5,0x2000
     468:	8ff9                	and	a5,a5,a4
     46a:	dbf5                	beqz	a5,45e <RVMSIS_RCC_SystemClock_144MHz+0x18a>
     46c:	0001                	nop
     46e:	4432                	lw	s0,12(sp)
     470:	0141                	addi	sp,sp,16
     472:	8082                	ret

00000474 <RVMSIS_SysTick_Timer_init>:
     474:	1141                	addi	sp,sp,-16
     476:	c606                	sw	ra,12(sp)
     478:	c422                	sw	s0,8(sp)
     47a:	0800                	addi	s0,sp,16
     47c:	e000f7b7          	lui	a5,0xe000f
     480:	4398                	lw	a4,0(a5)
     482:	e000f7b7          	lui	a5,0xe000f
     486:	9b79                	andi	a4,a4,-2
     488:	c398                	sw	a4,0(a5)
     48a:	e000f7b7          	lui	a5,0xe000f
     48e:	4398                	lw	a4,0(a5)
     490:	e000f7b7          	lui	a5,0xe000f
     494:	00276713          	ori	a4,a4,2
     498:	c398                	sw	a4,0(a5)
     49a:	e000f7b7          	lui	a5,0xe000f
     49e:	4398                	lw	a4,0(a5)
     4a0:	e000f7b7          	lui	a5,0xe000f
     4a4:	9b6d                	andi	a4,a4,-5
     4a6:	c398                	sw	a4,0(a5)
     4a8:	e000f7b7          	lui	a5,0xe000f
     4ac:	4398                	lw	a4,0(a5)
     4ae:	e000f7b7          	lui	a5,0xe000f
     4b2:	00876713          	ori	a4,a4,8
     4b6:	c398                	sw	a4,0(a5)
     4b8:	e000f7b7          	lui	a5,0xe000f
     4bc:	4398                	lw	a4,0(a5)
     4be:	e000f7b7          	lui	a5,0xe000f
     4c2:	01076713          	ori	a4,a4,16
     4c6:	c398                	sw	a4,0(a5)
     4c8:	e000f7b7          	lui	a5,0xe000f
     4cc:	4398                	lw	a4,0(a5)
     4ce:	e000f7b7          	lui	a5,0xe000f
     4d2:	02076713          	ori	a4,a4,32
     4d6:	c398                	sw	a4,0(a5)
     4d8:	e000f737          	lui	a4,0xe000f
     4dc:	6791                	lui	a5,0x4
     4de:	64f78793          	addi	a5,a5,1615 # 464f <_data_lma+0x2fcb>
     4e2:	4801                	li	a6,0
     4e4:	cb1c                	sw	a5,16(a4)
     4e6:	01072a23          	sw	a6,20(a4) # e000f014 <_eusrstack+0xc000a014>
     4ea:	4531                	li	a0,12
     4ec:	3399                	jal	232 <NVIC_EnableIRQ>
     4ee:	e000f7b7          	lui	a5,0xe000f
     4f2:	4398                	lw	a4,0(a5)
     4f4:	e000f7b7          	lui	a5,0xe000f
     4f8:	00176713          	ori	a4,a4,1
     4fc:	c398                	sw	a4,0(a5)
     4fe:	0001                	nop
     500:	40b2                	lw	ra,12(sp)
     502:	4422                	lw	s0,8(sp)
     504:	0141                	addi	sp,sp,16
     506:	8082                	ret

00000508 <SysTick_Handler>:
     508:	1141                	addi	sp,sp,-16
     50a:	c622                	sw	s0,12(sp)
     50c:	0800                	addi	s0,sp,16
     50e:	e000f7b7          	lui	a5,0xe000f
     512:	43d8                	lw	a4,4(a5)
     514:	e000f7b7          	lui	a5,0xe000f
     518:	9b79                	andi	a4,a4,-2
     51a:	c3d8                	sw	a4,4(a5)
     51c:	200007b7          	lui	a5,0x20000
     520:	0087a783          	lw	a5,8(a5) # 20000008 <_edata>
     524:	00178713          	addi	a4,a5,1
     528:	200007b7          	lui	a5,0x20000
     52c:	00e7a423          	sw	a4,8(a5) # 20000008 <_edata>
     530:	80c1a783          	lw	a5,-2036(gp) # 2000000c <Delay_counter_ms>
     534:	c799                	beqz	a5,542 <SysTick_Handler+0x3a>
     536:	80c1a783          	lw	a5,-2036(gp) # 2000000c <Delay_counter_ms>
     53a:	fff78713          	addi	a4,a5,-1
     53e:	80e1a623          	sw	a4,-2036(gp) # 2000000c <Delay_counter_ms>
     542:	8101a783          	lw	a5,-2032(gp) # 20000010 <Timeout_counter_ms>
     546:	c799                	beqz	a5,554 <SysTick_Handler+0x4c>
     548:	8101a783          	lw	a5,-2032(gp) # 20000010 <Timeout_counter_ms>
     54c:	fff78713          	addi	a4,a5,-1
     550:	80e1a823          	sw	a4,-2032(gp) # 20000010 <Timeout_counter_ms>
     554:	0001                	nop
     556:	4432                	lw	s0,12(sp)
     558:	0141                	addi	sp,sp,16
     55a:	30200073          	mret

0000055e <Delay_ms>:
     55e:	1101                	addi	sp,sp,-32
     560:	ce22                	sw	s0,28(sp)
     562:	1000                	addi	s0,sp,32
     564:	fea42623          	sw	a0,-20(s0)
     568:	fec42703          	lw	a4,-20(s0)
     56c:	80e1a623          	sw	a4,-2036(gp) # 2000000c <Delay_counter_ms>
     570:	0001                	nop
     572:	80c1a783          	lw	a5,-2036(gp) # 2000000c <Delay_counter_ms>
     576:	fff5                	bnez	a5,572 <Delay_ms+0x14>
     578:	0001                	nop
     57a:	4472                	lw	s0,28(sp)
     57c:	6105                	addi	sp,sp,32
     57e:	8082                	ret

00000580 <RVMSIS_PC13_OUTPUT_Push_Pull_init>:
     580:	1141                	addi	sp,sp,-16
     582:	c622                	sw	s0,12(sp)
     584:	0800                	addi	s0,sp,16
     586:	400217b7          	lui	a5,0x40021
     58a:	4f98                	lw	a4,24(a5)
     58c:	400217b7          	lui	a5,0x40021
     590:	01076713          	ori	a4,a4,16
     594:	cf98                	sw	a4,24(a5)
     596:	400117b7          	lui	a5,0x40011
     59a:	43d8                	lw	a4,4(a5)
     59c:	ffd007b7          	lui	a5,0xffd00
     5a0:	17fd                	addi	a5,a5,-1
     5a2:	00f776b3          	and	a3,a4,a5
     5a6:	400117b7          	lui	a5,0x40011
     5aa:	00200737          	lui	a4,0x200
     5ae:	8f55                	or	a4,a4,a3
     5b0:	c3d8                	sw	a4,4(a5)
     5b2:	400117b7          	lui	a5,0x40011
     5b6:	43d4                	lw	a3,4(a5)
     5b8:	400117b7          	lui	a5,0x40011
     5bc:	ff400737          	lui	a4,0xff400
     5c0:	177d                	addi	a4,a4,-1
     5c2:	8f75                	and	a4,a4,a3
     5c4:	c3d8                	sw	a4,4(a5)
     5c6:	0001                	nop
     5c8:	4432                	lw	s0,12(sp)
     5ca:	0141                	addi	sp,sp,16
     5cc:	8082                	ret

000005ce <RVMSIS_PA8_MCO_init>:
     5ce:	1141                	addi	sp,sp,-16
     5d0:	c622                	sw	s0,12(sp)
     5d2:	0800                	addi	s0,sp,16
     5d4:	400217b7          	lui	a5,0x40021
     5d8:	43d8                	lw	a4,4(a5)
     5da:	f90007b7          	lui	a5,0xf9000
     5de:	17fd                	addi	a5,a5,-1
     5e0:	00f776b3          	and	a3,a4,a5
     5e4:	400217b7          	lui	a5,0x40021
     5e8:	04000737          	lui	a4,0x4000
     5ec:	8f55                	or	a4,a4,a3
     5ee:	c3d8                	sw	a4,4(a5)
     5f0:	400217b7          	lui	a5,0x40021
     5f4:	4f98                	lw	a4,24(a5)
     5f6:	400217b7          	lui	a5,0x40021
     5fa:	00476713          	ori	a4,a4,4
     5fe:	cf98                	sw	a4,24(a5)
     600:	400117b7          	lui	a5,0x40011
     604:	80078793          	addi	a5,a5,-2048 # 40010800 <_eusrstack+0x2000b800>
     608:	43d8                	lw	a4,4(a5)
     60a:	400117b7          	lui	a5,0x40011
     60e:	80078793          	addi	a5,a5,-2048 # 40010800 <_eusrstack+0x2000b800>
     612:	00376713          	ori	a4,a4,3
     616:	c3d8                	sw	a4,4(a5)
     618:	400117b7          	lui	a5,0x40011
     61c:	80078793          	addi	a5,a5,-2048 # 40010800 <_eusrstack+0x2000b800>
     620:	43dc                	lw	a5,4(a5)
     622:	ff37f713          	andi	a4,a5,-13
     626:	400117b7          	lui	a5,0x40011
     62a:	80078793          	addi	a5,a5,-2048 # 40010800 <_eusrstack+0x2000b800>
     62e:	00876713          	ori	a4,a4,8
     632:	c3d8                	sw	a4,4(a5)
     634:	0001                	nop
     636:	4432                	lw	s0,12(sp)
     638:	0141                	addi	sp,sp,16
     63a:	8082                	ret

0000063c <RVMSIS_EXTI0_init>:
     63c:	1141                	addi	sp,sp,-16
     63e:	c606                	sw	ra,12(sp)
     640:	c422                	sw	s0,8(sp)
     642:	0800                	addi	s0,sp,16
     644:	400217b7          	lui	a5,0x40021
     648:	4f98                	lw	a4,24(a5)
     64a:	400217b7          	lui	a5,0x40021
     64e:	00176713          	ori	a4,a4,1
     652:	cf98                	sw	a4,24(a5)
     654:	400107b7          	lui	a5,0x40010
     658:	479c                	lw	a5,8(a5)
     65a:	ff07f713          	andi	a4,a5,-16
     65e:	400107b7          	lui	a5,0x40010
     662:	00176713          	ori	a4,a4,1
     666:	c798                	sw	a4,8(a5)
     668:	400217b7          	lui	a5,0x40021
     66c:	4f98                	lw	a4,24(a5)
     66e:	400217b7          	lui	a5,0x40021
     672:	00876713          	ori	a4,a4,8
     676:	cf98                	sw	a4,24(a5)
     678:	400117b7          	lui	a5,0x40011
     67c:	c0078793          	addi	a5,a5,-1024 # 40010c00 <_eusrstack+0x2000bc00>
     680:	439c                	lw	a5,0(a5)
     682:	ff37f713          	andi	a4,a5,-13
     686:	400117b7          	lui	a5,0x40011
     68a:	c0078793          	addi	a5,a5,-1024 # 40010c00 <_eusrstack+0x2000bc00>
     68e:	00876713          	ori	a4,a4,8
     692:	c398                	sw	a4,0(a5)
     694:	400117b7          	lui	a5,0x40011
     698:	c0078793          	addi	a5,a5,-1024 # 40010c00 <_eusrstack+0x2000bc00>
     69c:	4398                	lw	a4,0(a5)
     69e:	400117b7          	lui	a5,0x40011
     6a2:	c0078793          	addi	a5,a5,-1024 # 40010c00 <_eusrstack+0x2000bc00>
     6a6:	9b71                	andi	a4,a4,-4
     6a8:	c398                	sw	a4,0(a5)
     6aa:	400117b7          	lui	a5,0x40011
     6ae:	c0078793          	addi	a5,a5,-1024 # 40010c00 <_eusrstack+0x2000bc00>
     6b2:	6741                	lui	a4,0x10
     6b4:	cb98                	sw	a4,16(a5)
     6b6:	400107b7          	lui	a5,0x40010
     6ba:	40078793          	addi	a5,a5,1024 # 40010400 <_eusrstack+0x2000b400>
     6be:	4398                	lw	a4,0(a5)
     6c0:	400107b7          	lui	a5,0x40010
     6c4:	40078793          	addi	a5,a5,1024 # 40010400 <_eusrstack+0x2000b400>
     6c8:	00176713          	ori	a4,a4,1
     6cc:	c398                	sw	a4,0(a5)
     6ce:	400107b7          	lui	a5,0x40010
     6d2:	40078793          	addi	a5,a5,1024 # 40010400 <_eusrstack+0x2000b400>
     6d6:	4798                	lw	a4,8(a5)
     6d8:	400107b7          	lui	a5,0x40010
     6dc:	40078793          	addi	a5,a5,1024 # 40010400 <_eusrstack+0x2000b400>
     6e0:	00176713          	ori	a4,a4,1
     6e4:	c798                	sw	a4,8(a5)
     6e6:	400107b7          	lui	a5,0x40010
     6ea:	40078793          	addi	a5,a5,1024 # 40010400 <_eusrstack+0x2000b400>
     6ee:	47d8                	lw	a4,12(a5)
     6f0:	400107b7          	lui	a5,0x40010
     6f4:	40078793          	addi	a5,a5,1024 # 40010400 <_eusrstack+0x2000b400>
     6f8:	00176713          	ori	a4,a4,1
     6fc:	c7d8                	sw	a4,12(a5)
     6fe:	4559                	li	a0,22
     700:	3e0d                	jal	232 <NVIC_EnableIRQ>
     702:	0001                	nop
     704:	40b2                	lw	ra,12(sp)
     706:	4422                	lw	s0,8(sp)
     708:	0141                	addi	sp,sp,16
     70a:	8082                	ret

0000070c <RVMSIS_TIM3_init>:
     70c:	1141                	addi	sp,sp,-16
     70e:	c606                	sw	ra,12(sp)
     710:	c422                	sw	s0,8(sp)
     712:	0800                	addi	s0,sp,16
     714:	400217b7          	lui	a5,0x40021
     718:	4fd8                	lw	a4,28(a5)
     71a:	400217b7          	lui	a5,0x40021
     71e:	00276713          	ori	a4,a4,2
     722:	cfd8                	sw	a4,28(a5)
     724:	400217b7          	lui	a5,0x40021
     728:	4f98                	lw	a4,24(a5)
     72a:	400217b7          	lui	a5,0x40021
     72e:	00176713          	ori	a4,a4,1
     732:	cf98                	sw	a4,24(a5)
     734:	400007b7          	lui	a5,0x40000
     738:	40078793          	addi	a5,a5,1024 # 40000400 <_eusrstack+0x1fffb400>
     73c:	239e                	lhu	a5,0(a5)
     73e:	01079713          	slli	a4,a5,0x10
     742:	8341                	srli	a4,a4,0x10
     744:	400007b7          	lui	a5,0x40000
     748:	40078793          	addi	a5,a5,1024 # 40000400 <_eusrstack+0x1fffb400>
     74c:	9b75                	andi	a4,a4,-3
     74e:	0742                	slli	a4,a4,0x10
     750:	8341                	srli	a4,a4,0x10
     752:	a39a                	sh	a4,0(a5)
     754:	400007b7          	lui	a5,0x40000
     758:	40078793          	addi	a5,a5,1024 # 40000400 <_eusrstack+0x1fffb400>
     75c:	239e                	lhu	a5,0(a5)
     75e:	01079713          	slli	a4,a5,0x10
     762:	8341                	srli	a4,a4,0x10
     764:	400007b7          	lui	a5,0x40000
     768:	40078793          	addi	a5,a5,1024 # 40000400 <_eusrstack+0x1fffb400>
     76c:	9b6d                	andi	a4,a4,-5
     76e:	0742                	slli	a4,a4,0x10
     770:	8341                	srli	a4,a4,0x10
     772:	a39a                	sh	a4,0(a5)
     774:	400007b7          	lui	a5,0x40000
     778:	40078793          	addi	a5,a5,1024 # 40000400 <_eusrstack+0x1fffb400>
     77c:	239e                	lhu	a5,0(a5)
     77e:	01079713          	slli	a4,a5,0x10
     782:	8341                	srli	a4,a4,0x10
     784:	400007b7          	lui	a5,0x40000
     788:	40078793          	addi	a5,a5,1024 # 40000400 <_eusrstack+0x1fffb400>
     78c:	9b5d                	andi	a4,a4,-9
     78e:	0742                	slli	a4,a4,0x10
     790:	8341                	srli	a4,a4,0x10
     792:	a39a                	sh	a4,0(a5)
     794:	400007b7          	lui	a5,0x40000
     798:	40078793          	addi	a5,a5,1024 # 40000400 <_eusrstack+0x1fffb400>
     79c:	239e                	lhu	a5,0(a5)
     79e:	01079713          	slli	a4,a5,0x10
     7a2:	8341                	srli	a4,a4,0x10
     7a4:	400007b7          	lui	a5,0x40000
     7a8:	40078793          	addi	a5,a5,1024 # 40000400 <_eusrstack+0x1fffb400>
     7ac:	9b3d                	andi	a4,a4,-17
     7ae:	0742                	slli	a4,a4,0x10
     7b0:	8341                	srli	a4,a4,0x10
     7b2:	a39a                	sh	a4,0(a5)
     7b4:	400007b7          	lui	a5,0x40000
     7b8:	40078793          	addi	a5,a5,1024 # 40000400 <_eusrstack+0x1fffb400>
     7bc:	239e                	lhu	a5,0(a5)
     7be:	01079713          	slli	a4,a5,0x10
     7c2:	8341                	srli	a4,a4,0x10
     7c4:	400007b7          	lui	a5,0x40000
     7c8:	40078793          	addi	a5,a5,1024 # 40000400 <_eusrstack+0x1fffb400>
     7cc:	f9f77713          	andi	a4,a4,-97
     7d0:	0742                	slli	a4,a4,0x10
     7d2:	8341                	srli	a4,a4,0x10
     7d4:	a39a                	sh	a4,0(a5)
     7d6:	400007b7          	lui	a5,0x40000
     7da:	40078793          	addi	a5,a5,1024 # 40000400 <_eusrstack+0x1fffb400>
     7de:	239e                	lhu	a5,0(a5)
     7e0:	01079713          	slli	a4,a5,0x10
     7e4:	8341                	srli	a4,a4,0x10
     7e6:	400007b7          	lui	a5,0x40000
     7ea:	40078793          	addi	a5,a5,1024 # 40000400 <_eusrstack+0x1fffb400>
     7ee:	08076713          	ori	a4,a4,128
     7f2:	0742                	slli	a4,a4,0x10
     7f4:	8341                	srli	a4,a4,0x10
     7f6:	a39a                	sh	a4,0(a5)
     7f8:	400007b7          	lui	a5,0x40000
     7fc:	40078793          	addi	a5,a5,1024 # 40000400 <_eusrstack+0x1fffb400>
     800:	239e                	lhu	a5,0(a5)
     802:	01079713          	slli	a4,a5,0x10
     806:	8341                	srli	a4,a4,0x10
     808:	400007b7          	lui	a5,0x40000
     80c:	40078793          	addi	a5,a5,1024 # 40000400 <_eusrstack+0x1fffb400>
     810:	cff77713          	andi	a4,a4,-769
     814:	0742                	slli	a4,a4,0x10
     816:	8341                	srli	a4,a4,0x10
     818:	a39a                	sh	a4,0(a5)
     81a:	400007b7          	lui	a5,0x40000
     81e:	40078793          	addi	a5,a5,1024 # 40000400 <_eusrstack+0x1fffb400>
     822:	27de                	lhu	a5,12(a5)
     824:	01079713          	slli	a4,a5,0x10
     828:	8341                	srli	a4,a4,0x10
     82a:	400007b7          	lui	a5,0x40000
     82e:	40078793          	addi	a5,a5,1024 # 40000400 <_eusrstack+0x1fffb400>
     832:	00176713          	ori	a4,a4,1
     836:	0742                	slli	a4,a4,0x10
     838:	8341                	srli	a4,a4,0x10
     83a:	a7da                	sh	a4,12(a5)
     83c:	400007b7          	lui	a5,0x40000
     840:	40078793          	addi	a5,a5,1024 # 40000400 <_eusrstack+0x1fffb400>
     844:	6711                	lui	a4,0x4
     846:	83f70713          	addi	a4,a4,-1985 # 383f <_data_lma+0x21bb>
     84a:	b79a                	sh	a4,40(a5)
     84c:	400007b7          	lui	a5,0x40000
     850:	40078793          	addi	a5,a5,1024 # 40000400 <_eusrstack+0x1fffb400>
     854:	4725                	li	a4,9
     856:	b7da                	sh	a4,44(a5)
     858:	02d00513          	li	a0,45
     85c:	3ad9                	jal	232 <NVIC_EnableIRQ>
     85e:	400007b7          	lui	a5,0x40000
     862:	40078793          	addi	a5,a5,1024 # 40000400 <_eusrstack+0x1fffb400>
     866:	239e                	lhu	a5,0(a5)
     868:	01079713          	slli	a4,a5,0x10
     86c:	8341                	srli	a4,a4,0x10
     86e:	400007b7          	lui	a5,0x40000
     872:	40078793          	addi	a5,a5,1024 # 40000400 <_eusrstack+0x1fffb400>
     876:	00176713          	ori	a4,a4,1
     87a:	0742                	slli	a4,a4,0x10
     87c:	8341                	srli	a4,a4,0x10
     87e:	a39a                	sh	a4,0(a5)
     880:	0001                	nop
     882:	40b2                	lw	ra,12(sp)
     884:	4422                	lw	s0,8(sp)
     886:	0141                	addi	sp,sp,16
     888:	8082                	ret

0000088a <RVMSIS_TIM3_PWM_CHANNEL1_init>:
     88a:	1141                	addi	sp,sp,-16
     88c:	c622                	sw	s0,12(sp)
     88e:	0800                	addi	s0,sp,16
     890:	400217b7          	lui	a5,0x40021
     894:	4f98                	lw	a4,24(a5)
     896:	400217b7          	lui	a5,0x40021
     89a:	00476713          	ori	a4,a4,4
     89e:	cf98                	sw	a4,24(a5)
     8a0:	400117b7          	lui	a5,0x40011
     8a4:	80078793          	addi	a5,a5,-2048 # 40010800 <_eusrstack+0x2000b800>
     8a8:	4398                	lw	a4,0(a5)
     8aa:	f40007b7          	lui	a5,0xf4000
     8ae:	17fd                	addi	a5,a5,-1
     8b0:	00f776b3          	and	a3,a4,a5
     8b4:	400117b7          	lui	a5,0x40011
     8b8:	80078793          	addi	a5,a5,-2048 # 40010800 <_eusrstack+0x2000b800>
     8bc:	08000737          	lui	a4,0x8000
     8c0:	8f55                	or	a4,a4,a3
     8c2:	c398                	sw	a4,0(a5)
     8c4:	400117b7          	lui	a5,0x40011
     8c8:	80078793          	addi	a5,a5,-2048 # 40010800 <_eusrstack+0x2000b800>
     8cc:	4394                	lw	a3,0(a5)
     8ce:	400117b7          	lui	a5,0x40011
     8d2:	80078793          	addi	a5,a5,-2048 # 40010800 <_eusrstack+0x2000b800>
     8d6:	03000737          	lui	a4,0x3000
     8da:	8f55                	or	a4,a4,a3
     8dc:	c398                	sw	a4,0(a5)
     8de:	400007b7          	lui	a5,0x40000
     8e2:	40078793          	addi	a5,a5,1024 # 40000400 <_eusrstack+0x1fffb400>
     8e6:	2f9e                	lhu	a5,24(a5)
     8e8:	01079713          	slli	a4,a5,0x10
     8ec:	8341                	srli	a4,a4,0x10
     8ee:	400007b7          	lui	a5,0x40000
     8f2:	40078793          	addi	a5,a5,1024 # 40000400 <_eusrstack+0x1fffb400>
     8f6:	9b71                	andi	a4,a4,-4
     8f8:	0742                	slli	a4,a4,0x10
     8fa:	8341                	srli	a4,a4,0x10
     8fc:	af9a                	sh	a4,24(a5)
     8fe:	400007b7          	lui	a5,0x40000
     902:	40078793          	addi	a5,a5,1024 # 40000400 <_eusrstack+0x1fffb400>
     906:	2f9e                	lhu	a5,24(a5)
     908:	01079713          	slli	a4,a5,0x10
     90c:	8341                	srli	a4,a4,0x10
     90e:	400007b7          	lui	a5,0x40000
     912:	40078793          	addi	a5,a5,1024 # 40000400 <_eusrstack+0x1fffb400>
     916:	9b6d                	andi	a4,a4,-5
     918:	0742                	slli	a4,a4,0x10
     91a:	8341                	srli	a4,a4,0x10
     91c:	af9a                	sh	a4,24(a5)
     91e:	400007b7          	lui	a5,0x40000
     922:	40078793          	addi	a5,a5,1024 # 40000400 <_eusrstack+0x1fffb400>
     926:	2f9e                	lhu	a5,24(a5)
     928:	01079713          	slli	a4,a5,0x10
     92c:	8341                	srli	a4,a4,0x10
     92e:	400007b7          	lui	a5,0x40000
     932:	40078793          	addi	a5,a5,1024 # 40000400 <_eusrstack+0x1fffb400>
     936:	00876713          	ori	a4,a4,8
     93a:	0742                	slli	a4,a4,0x10
     93c:	8341                	srli	a4,a4,0x10
     93e:	af9a                	sh	a4,24(a5)
     940:	400007b7          	lui	a5,0x40000
     944:	40078793          	addi	a5,a5,1024 # 40000400 <_eusrstack+0x1fffb400>
     948:	2f9e                	lhu	a5,24(a5)
     94a:	07c2                	slli	a5,a5,0x10
     94c:	83c1                	srli	a5,a5,0x10
     94e:	07c2                	slli	a5,a5,0x10
     950:	87c1                	srai	a5,a5,0x10
     952:	f8f7f793          	andi	a5,a5,-113
     956:	07c2                	slli	a5,a5,0x10
     958:	87c1                	srai	a5,a5,0x10
     95a:	0607e793          	ori	a5,a5,96
     95e:	01079713          	slli	a4,a5,0x10
     962:	8741                	srai	a4,a4,0x10
     964:	400007b7          	lui	a5,0x40000
     968:	40078793          	addi	a5,a5,1024 # 40000400 <_eusrstack+0x1fffb400>
     96c:	0742                	slli	a4,a4,0x10
     96e:	8341                	srli	a4,a4,0x10
     970:	af9a                	sh	a4,24(a5)
     972:	400007b7          	lui	a5,0x40000
     976:	40078793          	addi	a5,a5,1024 # 40000400 <_eusrstack+0x1fffb400>
     97a:	2f9e                	lhu	a5,24(a5)
     97c:	01079713          	slli	a4,a5,0x10
     980:	8341                	srli	a4,a4,0x10
     982:	400007b7          	lui	a5,0x40000
     986:	40078793          	addi	a5,a5,1024 # 40000400 <_eusrstack+0x1fffb400>
     98a:	f7f77713          	andi	a4,a4,-129
     98e:	0742                	slli	a4,a4,0x10
     990:	8341                	srli	a4,a4,0x10
     992:	af9a                	sh	a4,24(a5)
     994:	400007b7          	lui	a5,0x40000
     998:	40078793          	addi	a5,a5,1024 # 40000400 <_eusrstack+0x1fffb400>
     99c:	339e                	lhu	a5,32(a5)
     99e:	01079713          	slli	a4,a5,0x10
     9a2:	8341                	srli	a4,a4,0x10
     9a4:	400007b7          	lui	a5,0x40000
     9a8:	40078793          	addi	a5,a5,1024 # 40000400 <_eusrstack+0x1fffb400>
     9ac:	00176713          	ori	a4,a4,1
     9b0:	0742                	slli	a4,a4,0x10
     9b2:	8341                	srli	a4,a4,0x10
     9b4:	b39a                	sh	a4,32(a5)
     9b6:	400007b7          	lui	a5,0x40000
     9ba:	40078793          	addi	a5,a5,1024 # 40000400 <_eusrstack+0x1fffb400>
     9be:	339e                	lhu	a5,32(a5)
     9c0:	01079713          	slli	a4,a5,0x10
     9c4:	8341                	srli	a4,a4,0x10
     9c6:	400007b7          	lui	a5,0x40000
     9ca:	40078793          	addi	a5,a5,1024 # 40000400 <_eusrstack+0x1fffb400>
     9ce:	00276713          	ori	a4,a4,2
     9d2:	0742                	slli	a4,a4,0x10
     9d4:	8341                	srli	a4,a4,0x10
     9d6:	b39a                	sh	a4,32(a5)
     9d8:	400007b7          	lui	a5,0x40000
     9dc:	40078793          	addi	a5,a5,1024 # 40000400 <_eusrstack+0x1fffb400>
     9e0:	4715                	li	a4,5
     9e2:	bbda                	sh	a4,52(a5)
     9e4:	0001                	nop
     9e6:	4432                	lw	s0,12(sp)
     9e8:	0141                	addi	sp,sp,16
     9ea:	8082                	ret

000009ec <RVMSIS_TIM3_PWM_CHANNEL2_init>:
     9ec:	1141                	addi	sp,sp,-16
     9ee:	c622                	sw	s0,12(sp)
     9f0:	0800                	addi	s0,sp,16
     9f2:	400217b7          	lui	a5,0x40021
     9f6:	4f98                	lw	a4,24(a5)
     9f8:	400217b7          	lui	a5,0x40021
     9fc:	00476713          	ori	a4,a4,4
     a00:	cf98                	sw	a4,24(a5)
     a02:	400117b7          	lui	a5,0x40011
     a06:	80078793          	addi	a5,a5,-2048 # 40010800 <_eusrstack+0x2000b800>
     a0a:	4398                	lw	a4,0(a5)
     a0c:	400007b7          	lui	a5,0x40000
     a10:	17fd                	addi	a5,a5,-1
     a12:	00f776b3          	and	a3,a4,a5
     a16:	400117b7          	lui	a5,0x40011
     a1a:	80078793          	addi	a5,a5,-2048 # 40010800 <_eusrstack+0x2000b800>
     a1e:	80000737          	lui	a4,0x80000
     a22:	8f55                	or	a4,a4,a3
     a24:	c398                	sw	a4,0(a5)
     a26:	400117b7          	lui	a5,0x40011
     a2a:	80078793          	addi	a5,a5,-2048 # 40010800 <_eusrstack+0x2000b800>
     a2e:	4394                	lw	a3,0(a5)
     a30:	400117b7          	lui	a5,0x40011
     a34:	80078793          	addi	a5,a5,-2048 # 40010800 <_eusrstack+0x2000b800>
     a38:	30000737          	lui	a4,0x30000
     a3c:	8f55                	or	a4,a4,a3
     a3e:	c398                	sw	a4,0(a5)
     a40:	400007b7          	lui	a5,0x40000
     a44:	40078793          	addi	a5,a5,1024 # 40000400 <_eusrstack+0x1fffb400>
     a48:	2f9e                	lhu	a5,24(a5)
     a4a:	01079713          	slli	a4,a5,0x10
     a4e:	8341                	srli	a4,a4,0x10
     a50:	400007b7          	lui	a5,0x40000
     a54:	40078793          	addi	a5,a5,1024 # 40000400 <_eusrstack+0x1fffb400>
     a58:	cff77713          	andi	a4,a4,-769
     a5c:	0742                	slli	a4,a4,0x10
     a5e:	8341                	srli	a4,a4,0x10
     a60:	af9a                	sh	a4,24(a5)
     a62:	400007b7          	lui	a5,0x40000
     a66:	40078793          	addi	a5,a5,1024 # 40000400 <_eusrstack+0x1fffb400>
     a6a:	2f9e                	lhu	a5,24(a5)
     a6c:	01079713          	slli	a4,a5,0x10
     a70:	8341                	srli	a4,a4,0x10
     a72:	400007b7          	lui	a5,0x40000
     a76:	40078793          	addi	a5,a5,1024 # 40000400 <_eusrstack+0x1fffb400>
     a7a:	bff77713          	andi	a4,a4,-1025
     a7e:	0742                	slli	a4,a4,0x10
     a80:	8341                	srli	a4,a4,0x10
     a82:	af9a                	sh	a4,24(a5)
     a84:	400007b7          	lui	a5,0x40000
     a88:	40078793          	addi	a5,a5,1024 # 40000400 <_eusrstack+0x1fffb400>
     a8c:	2f9e                	lhu	a5,24(a5)
     a8e:	01079693          	slli	a3,a5,0x10
     a92:	82c1                	srli	a3,a3,0x10
     a94:	400007b7          	lui	a5,0x40000
     a98:	40078793          	addi	a5,a5,1024 # 40000400 <_eusrstack+0x1fffb400>
     a9c:	6705                	lui	a4,0x1
     a9e:	80070713          	addi	a4,a4,-2048 # 800 <RVMSIS_TIM3_init+0xf4>
     aa2:	8f55                	or	a4,a4,a3
     aa4:	0742                	slli	a4,a4,0x10
     aa6:	8341                	srli	a4,a4,0x10
     aa8:	af9a                	sh	a4,24(a5)
     aaa:	400007b7          	lui	a5,0x40000
     aae:	40078793          	addi	a5,a5,1024 # 40000400 <_eusrstack+0x1fffb400>
     ab2:	2f9e                	lhu	a5,24(a5)
     ab4:	07c2                	slli	a5,a5,0x10
     ab6:	83c1                	srli	a5,a5,0x10
     ab8:	01079713          	slli	a4,a5,0x10
     abc:	8741                	srai	a4,a4,0x10
     abe:	77e5                	lui	a5,0xffff9
     ac0:	17fd                	addi	a5,a5,-1
     ac2:	8ff9                	and	a5,a5,a4
     ac4:	01079713          	slli	a4,a5,0x10
     ac8:	8741                	srai	a4,a4,0x10
     aca:	6799                	lui	a5,0x6
     acc:	8fd9                	or	a5,a5,a4
     ace:	01079713          	slli	a4,a5,0x10
     ad2:	8741                	srai	a4,a4,0x10
     ad4:	400007b7          	lui	a5,0x40000
     ad8:	40078793          	addi	a5,a5,1024 # 40000400 <_eusrstack+0x1fffb400>
     adc:	0742                	slli	a4,a4,0x10
     ade:	8341                	srli	a4,a4,0x10
     ae0:	af9a                	sh	a4,24(a5)
     ae2:	400007b7          	lui	a5,0x40000
     ae6:	40078793          	addi	a5,a5,1024 # 40000400 <_eusrstack+0x1fffb400>
     aea:	2f9e                	lhu	a5,24(a5)
     aec:	01079693          	slli	a3,a5,0x10
     af0:	82c1                	srli	a3,a3,0x10
     af2:	400007b7          	lui	a5,0x40000
     af6:	40078793          	addi	a5,a5,1024 # 40000400 <_eusrstack+0x1fffb400>
     afa:	6721                	lui	a4,0x8
     afc:	177d                	addi	a4,a4,-1
     afe:	8f75                	and	a4,a4,a3
     b00:	0742                	slli	a4,a4,0x10
     b02:	8341                	srli	a4,a4,0x10
     b04:	af9a                	sh	a4,24(a5)
     b06:	400007b7          	lui	a5,0x40000
     b0a:	40078793          	addi	a5,a5,1024 # 40000400 <_eusrstack+0x1fffb400>
     b0e:	339e                	lhu	a5,32(a5)
     b10:	01079713          	slli	a4,a5,0x10
     b14:	8341                	srli	a4,a4,0x10
     b16:	400007b7          	lui	a5,0x40000
     b1a:	40078793          	addi	a5,a5,1024 # 40000400 <_eusrstack+0x1fffb400>
     b1e:	01076713          	ori	a4,a4,16
     b22:	0742                	slli	a4,a4,0x10
     b24:	8341                	srli	a4,a4,0x10
     b26:	b39a                	sh	a4,32(a5)
     b28:	400007b7          	lui	a5,0x40000
     b2c:	40078793          	addi	a5,a5,1024 # 40000400 <_eusrstack+0x1fffb400>
     b30:	339e                	lhu	a5,32(a5)
     b32:	01079713          	slli	a4,a5,0x10
     b36:	8341                	srli	a4,a4,0x10
     b38:	400007b7          	lui	a5,0x40000
     b3c:	40078793          	addi	a5,a5,1024 # 40000400 <_eusrstack+0x1fffb400>
     b40:	fdf77713          	andi	a4,a4,-33
     b44:	0742                	slli	a4,a4,0x10
     b46:	8341                	srli	a4,a4,0x10
     b48:	b39a                	sh	a4,32(a5)
     b4a:	400007b7          	lui	a5,0x40000
     b4e:	40078793          	addi	a5,a5,1024 # 40000400 <_eusrstack+0x1fffb400>
     b52:	4715                	li	a4,5
     b54:	bf9a                	sh	a4,56(a5)
     b56:	0001                	nop
     b58:	4432                	lw	s0,12(sp)
     b5a:	0141                	addi	sp,sp,16
     b5c:	8082                	ret

00000b5e <RVMSIS_ADC_DMA_init>:
     b5e:	1141                	addi	sp,sp,-16
     b60:	c606                	sw	ra,12(sp)
     b62:	c422                	sw	s0,8(sp)
     b64:	0800                	addi	s0,sp,16
     b66:	400217b7          	lui	a5,0x40021
     b6a:	4bd8                	lw	a4,20(a5)
     b6c:	400217b7          	lui	a5,0x40021
     b70:	00176713          	ori	a4,a4,1
     b74:	cbd8                	sw	a4,20(a5)
     b76:	400207b7          	lui	a5,0x40020
     b7a:	07a1                	addi	a5,a5,8
     b7c:	40012737          	lui	a4,0x40012
     b80:	44c70713          	addi	a4,a4,1100 # 4001244c <_eusrstack+0x2000d44c>
     b84:	c798                	sw	a4,8(a5)
     b86:	400207b7          	lui	a5,0x40020
     b8a:	07a1                	addi	a5,a5,8
     b8c:	81418713          	addi	a4,gp,-2028 # 20000014 <ADC_RAW_Data>
     b90:	c7d8                	sw	a4,12(a5)
     b92:	400207b7          	lui	a5,0x40020
     b96:	07a1                	addi	a5,a5,8
     b98:	4709                	li	a4,2
     b9a:	c3d8                	sw	a4,4(a5)
     b9c:	400207b7          	lui	a5,0x40020
     ba0:	07a1                	addi	a5,a5,8
     ba2:	4394                	lw	a3,0(a5)
     ba4:	400207b7          	lui	a5,0x40020
     ba8:	07a1                	addi	a5,a5,8
     baa:	7775                	lui	a4,0xffffd
     bac:	177d                	addi	a4,a4,-1
     bae:	8f75                	and	a4,a4,a3
     bb0:	c398                	sw	a4,0(a5)
     bb2:	400207b7          	lui	a5,0x40020
     bb6:	07a1                	addi	a5,a5,8
     bb8:	4398                	lw	a4,0(a5)
     bba:	400207b7          	lui	a5,0x40020
     bbe:	07a1                	addi	a5,a5,8
     bc0:	9b3d                	andi	a4,a4,-17
     bc2:	c398                	sw	a4,0(a5)
     bc4:	400207b7          	lui	a5,0x40020
     bc8:	07a1                	addi	a5,a5,8
     bca:	4398                	lw	a4,0(a5)
     bcc:	400207b7          	lui	a5,0x40020
     bd0:	07a1                	addi	a5,a5,8
     bd2:	02076713          	ori	a4,a4,32
     bd6:	c398                	sw	a4,0(a5)
     bd8:	400207b7          	lui	a5,0x40020
     bdc:	07a1                	addi	a5,a5,8
     bde:	439c                	lw	a5,0(a5)
     be0:	cff7f713          	andi	a4,a5,-769
     be4:	400207b7          	lui	a5,0x40020
     be8:	07a1                	addi	a5,a5,8
     bea:	10076713          	ori	a4,a4,256
     bee:	c398                	sw	a4,0(a5)
     bf0:	400207b7          	lui	a5,0x40020
     bf4:	07a1                	addi	a5,a5,8
     bf6:	4398                	lw	a4,0(a5)
     bf8:	77fd                	lui	a5,0xfffff
     bfa:	3ff78793          	addi	a5,a5,1023 # fffff3ff <_eusrstack+0xdfffa3ff>
     bfe:	8f7d                	and	a4,a4,a5
     c00:	400207b7          	lui	a5,0x40020
     c04:	07a1                	addi	a5,a5,8
     c06:	40076713          	ori	a4,a4,1024
     c0a:	c398                	sw	a4,0(a5)
     c0c:	400207b7          	lui	a5,0x40020
     c10:	07a1                	addi	a5,a5,8
     c12:	4398                	lw	a4,0(a5)
     c14:	400207b7          	lui	a5,0x40020
     c18:	07a1                	addi	a5,a5,8
     c1a:	00276713          	ori	a4,a4,2
     c1e:	c398                	sw	a4,0(a5)
     c20:	400207b7          	lui	a5,0x40020
     c24:	07a1                	addi	a5,a5,8
     c26:	4398                	lw	a4,0(a5)
     c28:	400207b7          	lui	a5,0x40020
     c2c:	07a1                	addi	a5,a5,8
     c2e:	9b6d                	andi	a4,a4,-5
     c30:	c398                	sw	a4,0(a5)
     c32:	400207b7          	lui	a5,0x40020
     c36:	07a1                	addi	a5,a5,8
     c38:	4398                	lw	a4,0(a5)
     c3a:	400207b7          	lui	a5,0x40020
     c3e:	07a1                	addi	a5,a5,8
     c40:	00876713          	ori	a4,a4,8
     c44:	c398                	sw	a4,0(a5)
     c46:	400207b7          	lui	a5,0x40020
     c4a:	07a1                	addi	a5,a5,8
     c4c:	4398                	lw	a4,0(a5)
     c4e:	400207b7          	lui	a5,0x40020
     c52:	07a1                	addi	a5,a5,8
     c54:	08076713          	ori	a4,a4,128
     c58:	c398                	sw	a4,0(a5)
     c5a:	400207b7          	lui	a5,0x40020
     c5e:	07a1                	addi	a5,a5,8
     c60:	4398                	lw	a4,0(a5)
     c62:	400207b7          	lui	a5,0x40020
     c66:	07a1                	addi	a5,a5,8
     c68:	00176713          	ori	a4,a4,1
     c6c:	c398                	sw	a4,0(a5)
     c6e:	456d                	li	a0,27
     c70:	dc2ff0ef          	jal	ra,232 <NVIC_EnableIRQ>
     c74:	400217b7          	lui	a5,0x40021
     c78:	4f98                	lw	a4,24(a5)
     c7a:	400217b7          	lui	a5,0x40021
     c7e:	20076713          	ori	a4,a4,512
     c82:	cf98                	sw	a4,24(a5)
     c84:	400217b7          	lui	a5,0x40021
     c88:	4f98                	lw	a4,24(a5)
     c8a:	400217b7          	lui	a5,0x40021
     c8e:	00476713          	ori	a4,a4,4
     c92:	cf98                	sw	a4,24(a5)
     c94:	400117b7          	lui	a5,0x40011
     c98:	80078793          	addi	a5,a5,-2048 # 40010800 <_eusrstack+0x2000b800>
     c9c:	4398                	lw	a4,0(a5)
     c9e:	400117b7          	lui	a5,0x40011
     ca2:	80078793          	addi	a5,a5,-2048 # 40010800 <_eusrstack+0x2000b800>
     ca6:	9b4d                	andi	a4,a4,-13
     ca8:	c398                	sw	a4,0(a5)
     caa:	400117b7          	lui	a5,0x40011
     cae:	80078793          	addi	a5,a5,-2048 # 40010800 <_eusrstack+0x2000b800>
     cb2:	4398                	lw	a4,0(a5)
     cb4:	400117b7          	lui	a5,0x40011
     cb8:	80078793          	addi	a5,a5,-2048 # 40010800 <_eusrstack+0x2000b800>
     cbc:	9b71                	andi	a4,a4,-4
     cbe:	c398                	sw	a4,0(a5)
     cc0:	400117b7          	lui	a5,0x40011
     cc4:	80078793          	addi	a5,a5,-2048 # 40010800 <_eusrstack+0x2000b800>
     cc8:	4398                	lw	a4,0(a5)
     cca:	400117b7          	lui	a5,0x40011
     cce:	80078793          	addi	a5,a5,-2048 # 40010800 <_eusrstack+0x2000b800>
     cd2:	f3f77713          	andi	a4,a4,-193
     cd6:	c398                	sw	a4,0(a5)
     cd8:	400117b7          	lui	a5,0x40011
     cdc:	80078793          	addi	a5,a5,-2048 # 40010800 <_eusrstack+0x2000b800>
     ce0:	4398                	lw	a4,0(a5)
     ce2:	400117b7          	lui	a5,0x40011
     ce6:	80078793          	addi	a5,a5,-2048 # 40010800 <_eusrstack+0x2000b800>
     cea:	fcf77713          	andi	a4,a4,-49
     cee:	c398                	sw	a4,0(a5)
     cf0:	400127b7          	lui	a5,0x40012
     cf4:	40078793          	addi	a5,a5,1024 # 40012400 <_eusrstack+0x2000d400>
     cf8:	43d8                	lw	a4,4(a5)
     cfa:	400127b7          	lui	a5,0x40012
     cfe:	40078793          	addi	a5,a5,1024 # 40012400 <_eusrstack+0x2000d400>
     d02:	fdf77713          	andi	a4,a4,-33
     d06:	c3d8                	sw	a4,4(a5)
     d08:	400127b7          	lui	a5,0x40012
     d0c:	40078793          	addi	a5,a5,1024 # 40012400 <_eusrstack+0x2000d400>
     d10:	43d8                	lw	a4,4(a5)
     d12:	400127b7          	lui	a5,0x40012
     d16:	40078793          	addi	a5,a5,1024 # 40012400 <_eusrstack+0x2000d400>
     d1a:	fbf77713          	andi	a4,a4,-65
     d1e:	c3d8                	sw	a4,4(a5)
     d20:	400127b7          	lui	a5,0x40012
     d24:	40078793          	addi	a5,a5,1024 # 40012400 <_eusrstack+0x2000d400>
     d28:	43d8                	lw	a4,4(a5)
     d2a:	400127b7          	lui	a5,0x40012
     d2e:	40078793          	addi	a5,a5,1024 # 40012400 <_eusrstack+0x2000d400>
     d32:	f7f77713          	andi	a4,a4,-129
     d36:	c3d8                	sw	a4,4(a5)
     d38:	400127b7          	lui	a5,0x40012
     d3c:	40078793          	addi	a5,a5,1024 # 40012400 <_eusrstack+0x2000d400>
     d40:	43d8                	lw	a4,4(a5)
     d42:	400127b7          	lui	a5,0x40012
     d46:	40078793          	addi	a5,a5,1024 # 40012400 <_eusrstack+0x2000d400>
     d4a:	10076713          	ori	a4,a4,256
     d4e:	c3d8                	sw	a4,4(a5)
     d50:	400127b7          	lui	a5,0x40012
     d54:	40078793          	addi	a5,a5,1024 # 40012400 <_eusrstack+0x2000d400>
     d58:	43d8                	lw	a4,4(a5)
     d5a:	400127b7          	lui	a5,0x40012
     d5e:	40078793          	addi	a5,a5,1024 # 40012400 <_eusrstack+0x2000d400>
     d62:	dff77713          	andi	a4,a4,-513
     d66:	c3d8                	sw	a4,4(a5)
     d68:	400127b7          	lui	a5,0x40012
     d6c:	40078793          	addi	a5,a5,1024 # 40012400 <_eusrstack+0x2000d400>
     d70:	43d8                	lw	a4,4(a5)
     d72:	400127b7          	lui	a5,0x40012
     d76:	40078793          	addi	a5,a5,1024 # 40012400 <_eusrstack+0x2000d400>
     d7a:	bff77713          	andi	a4,a4,-1025
     d7e:	c3d8                	sw	a4,4(a5)
     d80:	400127b7          	lui	a5,0x40012
     d84:	40078793          	addi	a5,a5,1024 # 40012400 <_eusrstack+0x2000d400>
     d88:	43d4                	lw	a3,4(a5)
     d8a:	400127b7          	lui	a5,0x40012
     d8e:	40078793          	addi	a5,a5,1024 # 40012400 <_eusrstack+0x2000d400>
     d92:	777d                	lui	a4,0xfffff
     d94:	7ff70713          	addi	a4,a4,2047 # fffff7ff <_eusrstack+0xdfffa7ff>
     d98:	8f75                	and	a4,a4,a3
     d9a:	c3d8                	sw	a4,4(a5)
     d9c:	400127b7          	lui	a5,0x40012
     da0:	40078793          	addi	a5,a5,1024 # 40012400 <_eusrstack+0x2000d400>
     da4:	43d4                	lw	a3,4(a5)
     da6:	400127b7          	lui	a5,0x40012
     daa:	40078793          	addi	a5,a5,1024 # 40012400 <_eusrstack+0x2000d400>
     dae:	777d                	lui	a4,0xfffff
     db0:	177d                	addi	a4,a4,-1
     db2:	8f75                	and	a4,a4,a3
     db4:	c3d8                	sw	a4,4(a5)
     db6:	400127b7          	lui	a5,0x40012
     dba:	40078793          	addi	a5,a5,1024 # 40012400 <_eusrstack+0x2000d400>
     dbe:	43d8                	lw	a4,4(a5)
     dc0:	fff107b7          	lui	a5,0xfff10
     dc4:	17fd                	addi	a5,a5,-1
     dc6:	00f776b3          	and	a3,a4,a5
     dca:	400127b7          	lui	a5,0x40012
     dce:	40078793          	addi	a5,a5,1024 # 40012400 <_eusrstack+0x2000d400>
     dd2:	00060737          	lui	a4,0x60
     dd6:	8f55                	or	a4,a4,a3
     dd8:	c3d8                	sw	a4,4(a5)
     dda:	400127b7          	lui	a5,0x40012
     dde:	40078793          	addi	a5,a5,1024 # 40012400 <_eusrstack+0x2000d400>
     de2:	43d4                	lw	a3,4(a5)
     de4:	400127b7          	lui	a5,0x40012
     de8:	40078793          	addi	a5,a5,1024 # 40012400 <_eusrstack+0x2000d400>
     dec:	ffc00737          	lui	a4,0xffc00
     df0:	177d                	addi	a4,a4,-1
     df2:	8f75                	and	a4,a4,a3
     df4:	c3d8                	sw	a4,4(a5)
     df6:	400127b7          	lui	a5,0x40012
     dfa:	40078793          	addi	a5,a5,1024 # 40012400 <_eusrstack+0x2000d400>
     dfe:	43d4                	lw	a3,4(a5)
     e00:	400127b7          	lui	a5,0x40012
     e04:	40078793          	addi	a5,a5,1024 # 40012400 <_eusrstack+0x2000d400>
     e08:	ff800737          	lui	a4,0xff800
     e0c:	177d                	addi	a4,a4,-1
     e0e:	8f75                	and	a4,a4,a3
     e10:	c3d8                	sw	a4,4(a5)
     e12:	400127b7          	lui	a5,0x40012
     e16:	40078793          	addi	a5,a5,1024 # 40012400 <_eusrstack+0x2000d400>
     e1a:	4798                	lw	a4,8(a5)
     e1c:	400127b7          	lui	a5,0x40012
     e20:	40078793          	addi	a5,a5,1024 # 40012400 <_eusrstack+0x2000d400>
     e24:	00176713          	ori	a4,a4,1
     e28:	c798                	sw	a4,8(a5)
     e2a:	400127b7          	lui	a5,0x40012
     e2e:	40078793          	addi	a5,a5,1024 # 40012400 <_eusrstack+0x2000d400>
     e32:	4798                	lw	a4,8(a5)
     e34:	400127b7          	lui	a5,0x40012
     e38:	40078793          	addi	a5,a5,1024 # 40012400 <_eusrstack+0x2000d400>
     e3c:	00276713          	ori	a4,a4,2
     e40:	c798                	sw	a4,8(a5)
     e42:	400127b7          	lui	a5,0x40012
     e46:	40078793          	addi	a5,a5,1024 # 40012400 <_eusrstack+0x2000d400>
     e4a:	4798                	lw	a4,8(a5)
     e4c:	400127b7          	lui	a5,0x40012
     e50:	40078793          	addi	a5,a5,1024 # 40012400 <_eusrstack+0x2000d400>
     e54:	00476713          	ori	a4,a4,4
     e58:	c798                	sw	a4,8(a5)
     e5a:	0001                	nop
     e5c:	400127b7          	lui	a5,0x40012
     e60:	40078793          	addi	a5,a5,1024 # 40012400 <_eusrstack+0x2000d400>
     e64:	479c                	lw	a5,8(a5)
     e66:	8b91                	andi	a5,a5,4
     e68:	fbf5                	bnez	a5,e5c <RVMSIS_ADC_DMA_init+0x2fe>
     e6a:	400127b7          	lui	a5,0x40012
     e6e:	40078793          	addi	a5,a5,1024 # 40012400 <_eusrstack+0x2000d400>
     e72:	4798                	lw	a4,8(a5)
     e74:	400127b7          	lui	a5,0x40012
     e78:	40078793          	addi	a5,a5,1024 # 40012400 <_eusrstack+0x2000d400>
     e7c:	10076713          	ori	a4,a4,256
     e80:	c798                	sw	a4,8(a5)
     e82:	400127b7          	lui	a5,0x40012
     e86:	40078793          	addi	a5,a5,1024 # 40012400 <_eusrstack+0x2000d400>
     e8a:	4794                	lw	a3,8(a5)
     e8c:	400127b7          	lui	a5,0x40012
     e90:	40078793          	addi	a5,a5,1024 # 40012400 <_eusrstack+0x2000d400>
     e94:	777d                	lui	a4,0xfffff
     e96:	7ff70713          	addi	a4,a4,2047 # fffff7ff <_eusrstack+0xdfffa7ff>
     e9a:	8f75                	and	a4,a4,a3
     e9c:	c798                	sw	a4,8(a5)
     e9e:	400127b7          	lui	a5,0x40012
     ea2:	40078793          	addi	a5,a5,1024 # 40012400 <_eusrstack+0x2000d400>
     ea6:	4794                	lw	a3,8(a5)
     ea8:	400127b7          	lui	a5,0x40012
     eac:	40078793          	addi	a5,a5,1024 # 40012400 <_eusrstack+0x2000d400>
     eb0:	000e0737          	lui	a4,0xe0
     eb4:	8f55                	or	a4,a4,a3
     eb6:	c798                	sw	a4,8(a5)
     eb8:	400127b7          	lui	a5,0x40012
     ebc:	40078793          	addi	a5,a5,1024 # 40012400 <_eusrstack+0x2000d400>
     ec0:	4794                	lw	a3,8(a5)
     ec2:	400127b7          	lui	a5,0x40012
     ec6:	40078793          	addi	a5,a5,1024 # 40012400 <_eusrstack+0x2000d400>
     eca:	fff00737          	lui	a4,0xfff00
     ece:	177d                	addi	a4,a4,-1
     ed0:	8f75                	and	a4,a4,a3
     ed2:	c798                	sw	a4,8(a5)
     ed4:	400127b7          	lui	a5,0x40012
     ed8:	40078793          	addi	a5,a5,1024 # 40012400 <_eusrstack+0x2000d400>
     edc:	4b98                	lw	a4,16(a5)
     ede:	400127b7          	lui	a5,0x40012
     ee2:	40078793          	addi	a5,a5,1024 # 40012400 <_eusrstack+0x2000d400>
     ee6:	00776713          	ori	a4,a4,7
     eea:	cb98                	sw	a4,16(a5)
     eec:	400127b7          	lui	a5,0x40012
     ef0:	40078793          	addi	a5,a5,1024 # 40012400 <_eusrstack+0x2000d400>
     ef4:	4b98                	lw	a4,16(a5)
     ef6:	400127b7          	lui	a5,0x40012
     efa:	40078793          	addi	a5,a5,1024 # 40012400 <_eusrstack+0x2000d400>
     efe:	03876713          	ori	a4,a4,56
     f02:	cb98                	sw	a4,16(a5)
     f04:	400127b7          	lui	a5,0x40012
     f08:	40078793          	addi	a5,a5,1024 # 40012400 <_eusrstack+0x2000d400>
     f0c:	57d8                	lw	a4,44(a5)
     f0e:	ff1007b7          	lui	a5,0xff100
     f12:	17fd                	addi	a5,a5,-1
     f14:	00f776b3          	and	a3,a4,a5
     f18:	400127b7          	lui	a5,0x40012
     f1c:	40078793          	addi	a5,a5,1024 # 40012400 <_eusrstack+0x2000d400>
     f20:	00100737          	lui	a4,0x100
     f24:	8f55                	or	a4,a4,a3
     f26:	d7d8                	sw	a4,44(a5)
     f28:	400127b7          	lui	a5,0x40012
     f2c:	40078793          	addi	a5,a5,1024 # 40012400 <_eusrstack+0x2000d400>
     f30:	5bd8                	lw	a4,52(a5)
     f32:	400127b7          	lui	a5,0x40012
     f36:	40078793          	addi	a5,a5,1024 # 40012400 <_eusrstack+0x2000d400>
     f3a:	9b01                	andi	a4,a4,-32
     f3c:	dbd8                	sw	a4,52(a5)
     f3e:	400127b7          	lui	a5,0x40012
     f42:	40078793          	addi	a5,a5,1024 # 40012400 <_eusrstack+0x2000d400>
     f46:	5bdc                	lw	a5,52(a5)
     f48:	c1f7f713          	andi	a4,a5,-993
     f4c:	400127b7          	lui	a5,0x40012
     f50:	40078793          	addi	a5,a5,1024 # 40012400 <_eusrstack+0x2000d400>
     f54:	02076713          	ori	a4,a4,32
     f58:	dbd8                	sw	a4,52(a5)
     f5a:	0001                	nop
     f5c:	40b2                	lw	ra,12(sp)
     f5e:	4422                	lw	s0,8(sp)
     f60:	0141                	addi	sp,sp,16
     f62:	8082                	ret

00000f64 <RVMSIS_USART1_Init>:
     f64:	1141                	addi	sp,sp,-16
     f66:	c606                	sw	ra,12(sp)
     f68:	c422                	sw	s0,8(sp)
     f6a:	0800                	addi	s0,sp,16
     f6c:	400217b7          	lui	a5,0x40021
     f70:	4f98                	lw	a4,24(a5)
     f72:	400217b7          	lui	a5,0x40021
     f76:	00476713          	ori	a4,a4,4
     f7a:	cf98                	sw	a4,24(a5)
     f7c:	400217b7          	lui	a5,0x40021
     f80:	4f98                	lw	a4,24(a5)
     f82:	400217b7          	lui	a5,0x40021
     f86:	00176713          	ori	a4,a4,1
     f8a:	cf98                	sw	a4,24(a5)
     f8c:	400117b7          	lui	a5,0x40011
     f90:	80078793          	addi	a5,a5,-2048 # 40010800 <_eusrstack+0x2000b800>
     f94:	43dc                	lw	a5,4(a5)
     f96:	f3f7f713          	andi	a4,a5,-193
     f9a:	400117b7          	lui	a5,0x40011
     f9e:	80078793          	addi	a5,a5,-2048 # 40010800 <_eusrstack+0x2000b800>
     fa2:	08076713          	ori	a4,a4,128
     fa6:	c3d8                	sw	a4,4(a5)
     fa8:	400117b7          	lui	a5,0x40011
     fac:	80078793          	addi	a5,a5,-2048 # 40010800 <_eusrstack+0x2000b800>
     fb0:	43d8                	lw	a4,4(a5)
     fb2:	400117b7          	lui	a5,0x40011
     fb6:	80078793          	addi	a5,a5,-2048 # 40010800 <_eusrstack+0x2000b800>
     fba:	03076713          	ori	a4,a4,48
     fbe:	c3d8                	sw	a4,4(a5)
     fc0:	400117b7          	lui	a5,0x40011
     fc4:	80078793          	addi	a5,a5,-2048 # 40010800 <_eusrstack+0x2000b800>
     fc8:	43d8                	lw	a4,4(a5)
     fca:	77fd                	lui	a5,0xfffff
     fcc:	3ff78793          	addi	a5,a5,1023 # fffff3ff <_eusrstack+0xdfffa3ff>
     fd0:	8f7d                	and	a4,a4,a5
     fd2:	400117b7          	lui	a5,0x40011
     fd6:	80078793          	addi	a5,a5,-2048 # 40010800 <_eusrstack+0x2000b800>
     fda:	40076713          	ori	a4,a4,1024
     fde:	c3d8                	sw	a4,4(a5)
     fe0:	400117b7          	lui	a5,0x40011
     fe4:	80078793          	addi	a5,a5,-2048 # 40010800 <_eusrstack+0x2000b800>
     fe8:	43d8                	lw	a4,4(a5)
     fea:	400117b7          	lui	a5,0x40011
     fee:	80078793          	addi	a5,a5,-2048 # 40010800 <_eusrstack+0x2000b800>
     ff2:	cff77713          	andi	a4,a4,-769
     ff6:	c3d8                	sw	a4,4(a5)
     ff8:	400217b7          	lui	a5,0x40021
     ffc:	4f94                	lw	a3,24(a5)
     ffe:	400217b7          	lui	a5,0x40021
    1002:	6711                	lui	a4,0x4
    1004:	8f55                	or	a4,a4,a3
    1006:	cf98                	sw	a4,24(a5)
    1008:	400147b7          	lui	a5,0x40014
    100c:	80078793          	addi	a5,a5,-2048 # 40013800 <_eusrstack+0x2000e800>
    1010:	279e                	lhu	a5,8(a5)
    1012:	07c2                	slli	a5,a5,0x10
    1014:	83c1                	srli	a5,a5,0x10
    1016:	07c2                	slli	a5,a5,0x10
    1018:	87c1                	srai	a5,a5,0x10
    101a:	8bbd                	andi	a5,a5,15
    101c:	01079713          	slli	a4,a5,0x10
    1020:	8741                	srai	a4,a4,0x10
    1022:	6789                	lui	a5,0x2
    1024:	d4078793          	addi	a5,a5,-704 # 1d40 <_data_lma+0x6bc>
    1028:	8fd9                	or	a5,a5,a4
    102a:	01079713          	slli	a4,a5,0x10
    102e:	8741                	srai	a4,a4,0x10
    1030:	400147b7          	lui	a5,0x40014
    1034:	80078793          	addi	a5,a5,-2048 # 40013800 <_eusrstack+0x2000e800>
    1038:	0742                	slli	a4,a4,0x10
    103a:	8341                	srli	a4,a4,0x10
    103c:	a79a                	sh	a4,8(a5)
    103e:	400147b7          	lui	a5,0x40014
    1042:	80078793          	addi	a5,a5,-2048 # 40013800 <_eusrstack+0x2000e800>
    1046:	279e                	lhu	a5,8(a5)
    1048:	07c2                	slli	a5,a5,0x10
    104a:	83c1                	srli	a5,a5,0x10
    104c:	07c2                	slli	a5,a5,0x10
    104e:	87c1                	srai	a5,a5,0x10
    1050:	f307f793          	andi	a5,a5,-208
    1054:	07c2                	slli	a5,a5,0x10
    1056:	87c1                	srai	a5,a5,0x10
    1058:	0c07e793          	ori	a5,a5,192
    105c:	01079713          	slli	a4,a5,0x10
    1060:	8741                	srai	a4,a4,0x10
    1062:	400147b7          	lui	a5,0x40014
    1066:	80078793          	addi	a5,a5,-2048 # 40013800 <_eusrstack+0x2000e800>
    106a:	0742                	slli	a4,a4,0x10
    106c:	8341                	srli	a4,a4,0x10
    106e:	a79a                	sh	a4,8(a5)
    1070:	400147b7          	lui	a5,0x40014
    1074:	80078793          	addi	a5,a5,-2048 # 40013800 <_eusrstack+0x2000e800>
    1078:	27de                	lhu	a5,12(a5)
    107a:	01079693          	slli	a3,a5,0x10
    107e:	82c1                	srli	a3,a3,0x10
    1080:	400147b7          	lui	a5,0x40014
    1084:	80078793          	addi	a5,a5,-2048 # 40013800 <_eusrstack+0x2000e800>
    1088:	6709                	lui	a4,0x2
    108a:	8f55                	or	a4,a4,a3
    108c:	0742                	slli	a4,a4,0x10
    108e:	8341                	srli	a4,a4,0x10
    1090:	a7da                	sh	a4,12(a5)
    1092:	400147b7          	lui	a5,0x40014
    1096:	80078793          	addi	a5,a5,-2048 # 40013800 <_eusrstack+0x2000e800>
    109a:	27de                	lhu	a5,12(a5)
    109c:	01079693          	slli	a3,a5,0x10
    10a0:	82c1                	srli	a3,a3,0x10
    10a2:	400147b7          	lui	a5,0x40014
    10a6:	80078793          	addi	a5,a5,-2048 # 40013800 <_eusrstack+0x2000e800>
    10aa:	777d                	lui	a4,0xfffff
    10ac:	177d                	addi	a4,a4,-1
    10ae:	8f75                	and	a4,a4,a3
    10b0:	0742                	slli	a4,a4,0x10
    10b2:	8341                	srli	a4,a4,0x10
    10b4:	a7da                	sh	a4,12(a5)
    10b6:	400147b7          	lui	a5,0x40014
    10ba:	80078793          	addi	a5,a5,-2048 # 40013800 <_eusrstack+0x2000e800>
    10be:	27de                	lhu	a5,12(a5)
    10c0:	01079693          	slli	a3,a5,0x10
    10c4:	82c1                	srli	a3,a3,0x10
    10c6:	400147b7          	lui	a5,0x40014
    10ca:	80078793          	addi	a5,a5,-2048 # 40013800 <_eusrstack+0x2000e800>
    10ce:	777d                	lui	a4,0xfffff
    10d0:	7ff70713          	addi	a4,a4,2047 # fffff7ff <_eusrstack+0xdfffa7ff>
    10d4:	8f75                	and	a4,a4,a3
    10d6:	0742                	slli	a4,a4,0x10
    10d8:	8341                	srli	a4,a4,0x10
    10da:	a7da                	sh	a4,12(a5)
    10dc:	400147b7          	lui	a5,0x40014
    10e0:	80078793          	addi	a5,a5,-2048 # 40013800 <_eusrstack+0x2000e800>
    10e4:	27de                	lhu	a5,12(a5)
    10e6:	01079713          	slli	a4,a5,0x10
    10ea:	8341                	srli	a4,a4,0x10
    10ec:	400147b7          	lui	a5,0x40014
    10f0:	80078793          	addi	a5,a5,-2048 # 40013800 <_eusrstack+0x2000e800>
    10f4:	bff77713          	andi	a4,a4,-1025
    10f8:	0742                	slli	a4,a4,0x10
    10fa:	8341                	srli	a4,a4,0x10
    10fc:	a7da                	sh	a4,12(a5)
    10fe:	400147b7          	lui	a5,0x40014
    1102:	80078793          	addi	a5,a5,-2048 # 40013800 <_eusrstack+0x2000e800>
    1106:	27de                	lhu	a5,12(a5)
    1108:	01079713          	slli	a4,a5,0x10
    110c:	8341                	srli	a4,a4,0x10
    110e:	400147b7          	lui	a5,0x40014
    1112:	80078793          	addi	a5,a5,-2048 # 40013800 <_eusrstack+0x2000e800>
    1116:	eff77713          	andi	a4,a4,-257
    111a:	0742                	slli	a4,a4,0x10
    111c:	8341                	srli	a4,a4,0x10
    111e:	a7da                	sh	a4,12(a5)
    1120:	400147b7          	lui	a5,0x40014
    1124:	80078793          	addi	a5,a5,-2048 # 40013800 <_eusrstack+0x2000e800>
    1128:	27de                	lhu	a5,12(a5)
    112a:	01079713          	slli	a4,a5,0x10
    112e:	8341                	srli	a4,a4,0x10
    1130:	400147b7          	lui	a5,0x40014
    1134:	80078793          	addi	a5,a5,-2048 # 40013800 <_eusrstack+0x2000e800>
    1138:	f7f77713          	andi	a4,a4,-129
    113c:	0742                	slli	a4,a4,0x10
    113e:	8341                	srli	a4,a4,0x10
    1140:	a7da                	sh	a4,12(a5)
    1142:	400147b7          	lui	a5,0x40014
    1146:	80078793          	addi	a5,a5,-2048 # 40013800 <_eusrstack+0x2000e800>
    114a:	27de                	lhu	a5,12(a5)
    114c:	01079713          	slli	a4,a5,0x10
    1150:	8341                	srli	a4,a4,0x10
    1152:	400147b7          	lui	a5,0x40014
    1156:	80078793          	addi	a5,a5,-2048 # 40013800 <_eusrstack+0x2000e800>
    115a:	fbf77713          	andi	a4,a4,-65
    115e:	0742                	slli	a4,a4,0x10
    1160:	8341                	srli	a4,a4,0x10
    1162:	a7da                	sh	a4,12(a5)
    1164:	400147b7          	lui	a5,0x40014
    1168:	80078793          	addi	a5,a5,-2048 # 40013800 <_eusrstack+0x2000e800>
    116c:	27de                	lhu	a5,12(a5)
    116e:	01079713          	slli	a4,a5,0x10
    1172:	8341                	srli	a4,a4,0x10
    1174:	400147b7          	lui	a5,0x40014
    1178:	80078793          	addi	a5,a5,-2048 # 40013800 <_eusrstack+0x2000e800>
    117c:	02076713          	ori	a4,a4,32
    1180:	0742                	slli	a4,a4,0x10
    1182:	8341                	srli	a4,a4,0x10
    1184:	a7da                	sh	a4,12(a5)
    1186:	400147b7          	lui	a5,0x40014
    118a:	80078793          	addi	a5,a5,-2048 # 40013800 <_eusrstack+0x2000e800>
    118e:	27de                	lhu	a5,12(a5)
    1190:	01079713          	slli	a4,a5,0x10
    1194:	8341                	srli	a4,a4,0x10
    1196:	400147b7          	lui	a5,0x40014
    119a:	80078793          	addi	a5,a5,-2048 # 40013800 <_eusrstack+0x2000e800>
    119e:	01076713          	ori	a4,a4,16
    11a2:	0742                	slli	a4,a4,0x10
    11a4:	8341                	srli	a4,a4,0x10
    11a6:	a7da                	sh	a4,12(a5)
    11a8:	400147b7          	lui	a5,0x40014
    11ac:	80078793          	addi	a5,a5,-2048 # 40013800 <_eusrstack+0x2000e800>
    11b0:	27de                	lhu	a5,12(a5)
    11b2:	01079713          	slli	a4,a5,0x10
    11b6:	8341                	srli	a4,a4,0x10
    11b8:	400147b7          	lui	a5,0x40014
    11bc:	80078793          	addi	a5,a5,-2048 # 40013800 <_eusrstack+0x2000e800>
    11c0:	00876713          	ori	a4,a4,8
    11c4:	0742                	slli	a4,a4,0x10
    11c6:	8341                	srli	a4,a4,0x10
    11c8:	a7da                	sh	a4,12(a5)
    11ca:	400147b7          	lui	a5,0x40014
    11ce:	80078793          	addi	a5,a5,-2048 # 40013800 <_eusrstack+0x2000e800>
    11d2:	27de                	lhu	a5,12(a5)
    11d4:	01079713          	slli	a4,a5,0x10
    11d8:	8341                	srli	a4,a4,0x10
    11da:	400147b7          	lui	a5,0x40014
    11de:	80078793          	addi	a5,a5,-2048 # 40013800 <_eusrstack+0x2000e800>
    11e2:	00476713          	ori	a4,a4,4
    11e6:	0742                	slli	a4,a4,0x10
    11e8:	8341                	srli	a4,a4,0x10
    11ea:	a7da                	sh	a4,12(a5)
    11ec:	400147b7          	lui	a5,0x40014
    11f0:	80078793          	addi	a5,a5,-2048 # 40013800 <_eusrstack+0x2000e800>
    11f4:	27de                	lhu	a5,12(a5)
    11f6:	01079713          	slli	a4,a5,0x10
    11fa:	8341                	srli	a4,a4,0x10
    11fc:	400147b7          	lui	a5,0x40014
    1200:	80078793          	addi	a5,a5,-2048 # 40013800 <_eusrstack+0x2000e800>
    1204:	9b75                	andi	a4,a4,-3
    1206:	0742                	slli	a4,a4,0x10
    1208:	8341                	srli	a4,a4,0x10
    120a:	a7da                	sh	a4,12(a5)
    120c:	400147b7          	lui	a5,0x40014
    1210:	80078793          	addi	a5,a5,-2048 # 40013800 <_eusrstack+0x2000e800>
    1214:	27de                	lhu	a5,12(a5)
    1216:	01079713          	slli	a4,a5,0x10
    121a:	8341                	srli	a4,a4,0x10
    121c:	400147b7          	lui	a5,0x40014
    1220:	80078793          	addi	a5,a5,-2048 # 40013800 <_eusrstack+0x2000e800>
    1224:	9b79                	andi	a4,a4,-2
    1226:	0742                	slli	a4,a4,0x10
    1228:	8341                	srli	a4,a4,0x10
    122a:	a7da                	sh	a4,12(a5)
    122c:	400147b7          	lui	a5,0x40014
    1230:	80078793          	addi	a5,a5,-2048 # 40013800 <_eusrstack+0x2000e800>
    1234:	00079823          	sh	zero,16(a5)
    1238:	400147b7          	lui	a5,0x40014
    123c:	80078793          	addi	a5,a5,-2048 # 40013800 <_eusrstack+0x2000e800>
    1240:	2b9e                	lhu	a5,16(a5)
    1242:	01079693          	slli	a3,a5,0x10
    1246:	82c1                	srli	a3,a3,0x10
    1248:	400147b7          	lui	a5,0x40014
    124c:	80078793          	addi	a5,a5,-2048 # 40013800 <_eusrstack+0x2000e800>
    1250:	7775                	lui	a4,0xffffd
    1252:	177d                	addi	a4,a4,-1
    1254:	8f75                	and	a4,a4,a3
    1256:	0742                	slli	a4,a4,0x10
    1258:	8341                	srli	a4,a4,0x10
    125a:	ab9a                	sh	a4,16(a5)
    125c:	400147b7          	lui	a5,0x40014
    1260:	80078793          	addi	a5,a5,-2048 # 40013800 <_eusrstack+0x2000e800>
    1264:	00079a23          	sh	zero,20(a5)
    1268:	400147b7          	lui	a5,0x40014
    126c:	80078793          	addi	a5,a5,-2048 # 40013800 <_eusrstack+0x2000e800>
    1270:	00079c23          	sh	zero,24(a5)
    1274:	03500513          	li	a0,53
    1278:	fbbfe0ef          	jal	ra,232 <NVIC_EnableIRQ>
    127c:	0001                	nop
    127e:	40b2                	lw	ra,12(sp)
    1280:	4422                	lw	s0,8(sp)
    1282:	0141                	addi	sp,sp,16
    1284:	8082                	ret

00001286 <RVMSIS_USART_Transmit>:
    1286:	7179                	addi	sp,sp,-48
    1288:	d622                	sw	s0,44(sp)
    128a:	1800                	addi	s0,sp,48
    128c:	fca42e23          	sw	a0,-36(s0)
    1290:	fcb42c23          	sw	a1,-40(s0)
    1294:	87b2                	mv	a5,a2
    1296:	fcd42823          	sw	a3,-48(s0)
    129a:	fcf41b23          	sh	a5,-42(s0)
    129e:	fe041723          	sh	zero,-18(s0)
    12a2:	a0a9                	j	12ec <RVMSIS_USART_Transmit+0x66>
    12a4:	fd042703          	lw	a4,-48(s0)
    12a8:	80e1a823          	sw	a4,-2032(gp) # 20000010 <Timeout_counter_ms>
    12ac:	a031                	j	12b8 <RVMSIS_USART_Transmit+0x32>
    12ae:	8101a783          	lw	a5,-2032(gp) # 20000010 <Timeout_counter_ms>
    12b2:	e399                	bnez	a5,12b8 <RVMSIS_USART_Transmit+0x32>
    12b4:	4781                	li	a5,0
    12b6:	a091                	j	12fa <RVMSIS_USART_Transmit+0x74>
    12b8:	fdc42783          	lw	a5,-36(s0)
    12bc:	239e                	lhu	a5,0(a5)
    12be:	07c2                	slli	a5,a5,0x10
    12c0:	83c1                	srli	a5,a5,0x10
    12c2:	0807f793          	andi	a5,a5,128
    12c6:	d7e5                	beqz	a5,12ae <RVMSIS_USART_Transmit+0x28>
    12c8:	fd842783          	lw	a5,-40(s0)
    12cc:	00178713          	addi	a4,a5,1
    12d0:	fce42c23          	sw	a4,-40(s0)
    12d4:	239c                	lbu	a5,0(a5)
    12d6:	01079713          	slli	a4,a5,0x10
    12da:	8341                	srli	a4,a4,0x10
    12dc:	fdc42783          	lw	a5,-36(s0)
    12e0:	a3da                	sh	a4,4(a5)
    12e2:	fee45783          	lhu	a5,-18(s0)
    12e6:	0785                	addi	a5,a5,1
    12e8:	fef41723          	sh	a5,-18(s0)
    12ec:	fee45703          	lhu	a4,-18(s0)
    12f0:	fd645783          	lhu	a5,-42(s0)
    12f4:	faf768e3          	bltu	a4,a5,12a4 <RVMSIS_USART_Transmit+0x1e>
    12f8:	4785                	li	a5,1
    12fa:	853e                	mv	a0,a5
    12fc:	5432                	lw	s0,44(sp)
    12fe:	6145                	addi	sp,sp,48
    1300:	8082                	ret

00001302 <USART1_IRQHandler>:
    1302:	1141                	addi	sp,sp,-16
    1304:	c622                	sw	s0,12(sp)
    1306:	0800                	addi	s0,sp,16
    1308:	400147b7          	lui	a5,0x40014
    130c:	80078793          	addi	a5,a5,-2048 # 40013800 <_eusrstack+0x2000e800>
    1310:	239e                	lhu	a5,0(a5)
    1312:	07c2                	slli	a5,a5,0x10
    1314:	83c1                	srli	a5,a5,0x10
    1316:	0207f793          	andi	a5,a5,32
    131a:	c7a9                	beqz	a5,1364 <USART1_IRQHandler+0x62>
    131c:	400147b7          	lui	a5,0x40014
    1320:	80078793          	addi	a5,a5,-2048 # 40013800 <_eusrstack+0x2000e800>
    1324:	23de                	lhu	a5,4(a5)
    1326:	01079713          	slli	a4,a5,0x10
    132a:	8341                	srli	a4,a4,0x10
    132c:	200007b7          	lui	a5,0x20000
    1330:	02078793          	addi	a5,a5,32 # 20000020 <husart1>
    1334:	379e                	lhu	a5,40(a5)
    1336:	86be                	mv	a3,a5
    1338:	0ff77713          	andi	a4,a4,255
    133c:	200007b7          	lui	a5,0x20000
    1340:	02078793          	addi	a5,a5,32 # 20000020 <husart1>
    1344:	97b6                	add	a5,a5,a3
    1346:	abd8                	sb	a4,20(a5)
    1348:	200007b7          	lui	a5,0x20000
    134c:	02078793          	addi	a5,a5,32 # 20000020 <husart1>
    1350:	379e                	lhu	a5,40(a5)
    1352:	0785                	addi	a5,a5,1
    1354:	01079713          	slli	a4,a5,0x10
    1358:	8341                	srli	a4,a4,0x10
    135a:	200007b7          	lui	a5,0x20000
    135e:	02078793          	addi	a5,a5,32 # 20000020 <husart1>
    1362:	b79a                	sh	a4,40(a5)
    1364:	400147b7          	lui	a5,0x40014
    1368:	80078793          	addi	a5,a5,-2048 # 40013800 <_eusrstack+0x2000e800>
    136c:	239e                	lhu	a5,0(a5)
    136e:	07c2                	slli	a5,a5,0x10
    1370:	83c1                	srli	a5,a5,0x10
    1372:	8bc1                	andi	a5,a5,16
    1374:	c795                	beqz	a5,13a0 <USART1_IRQHandler+0x9e>
    1376:	400147b7          	lui	a5,0x40014
    137a:	80078793          	addi	a5,a5,-2048 # 40013800 <_eusrstack+0x2000e800>
    137e:	23de                	lhu	a5,4(a5)
    1380:	200007b7          	lui	a5,0x20000
    1384:	02078793          	addi	a5,a5,32 # 20000020 <husart1>
    1388:	379a                	lhu	a4,40(a5)
    138a:	200007b7          	lui	a5,0x20000
    138e:	02078793          	addi	a5,a5,32 # 20000020 <husart1>
    1392:	b7ba                	sh	a4,42(a5)
    1394:	200007b7          	lui	a5,0x20000
    1398:	02078793          	addi	a5,a5,32 # 20000020 <husart1>
    139c:	02079423          	sh	zero,40(a5)
    13a0:	0001                	nop
    13a2:	4432                	lw	s0,12(sp)
    13a4:	0141                	addi	sp,sp,16
    13a6:	30200073          	mret

000013aa <DMA1_Channel1_IRQHandler>:
    13aa:	1141                	addi	sp,sp,-16
    13ac:	c622                	sw	s0,12(sp)
    13ae:	0800                	addi	s0,sp,16
    13b0:	400207b7          	lui	a5,0x40020
    13b4:	439c                	lw	a5,0(a5)
    13b6:	8b89                	andi	a5,a5,2
    13b8:	cb91                	beqz	a5,13cc <DMA1_Channel1_IRQHandler+0x22>
    13ba:	400207b7          	lui	a5,0x40020
    13be:	43d8                	lw	a4,4(a5)
    13c0:	400207b7          	lui	a5,0x40020
    13c4:	00176713          	ori	a4,a4,1
    13c8:	c3d8                	sw	a4,4(a5)
    13ca:	a831                	j	13e6 <DMA1_Channel1_IRQHandler+0x3c>
    13cc:	400207b7          	lui	a5,0x40020
    13d0:	439c                	lw	a5,0(a5)
    13d2:	8ba1                	andi	a5,a5,8
    13d4:	cb89                	beqz	a5,13e6 <DMA1_Channel1_IRQHandler+0x3c>
    13d6:	400207b7          	lui	a5,0x40020
    13da:	43d8                	lw	a4,4(a5)
    13dc:	400207b7          	lui	a5,0x40020
    13e0:	00176713          	ori	a4,a4,1
    13e4:	c3d8                	sw	a4,4(a5)
    13e6:	0001                	nop
    13e8:	4432                	lw	s0,12(sp)
    13ea:	0141                	addi	sp,sp,16
    13ec:	30200073          	mret

000013f0 <TIM3_IRQHandler>:
    13f0:	1141                	addi	sp,sp,-16
    13f2:	c622                	sw	s0,12(sp)
    13f4:	0800                	addi	s0,sp,16
    13f6:	400007b7          	lui	a5,0x40000
    13fa:	40078793          	addi	a5,a5,1024 # 40000400 <_eusrstack+0x1fffb400>
    13fe:	2b9e                	lhu	a5,16(a5)
    1400:	07c2                	slli	a5,a5,0x10
    1402:	83c1                	srli	a5,a5,0x10
    1404:	8b85                	andi	a5,a5,1
    1406:	c79d                	beqz	a5,1434 <TIM3_IRQHandler+0x44>
    1408:	400007b7          	lui	a5,0x40000
    140c:	40078793          	addi	a5,a5,1024 # 40000400 <_eusrstack+0x1fffb400>
    1410:	2b9e                	lhu	a5,16(a5)
    1412:	01079713          	slli	a4,a5,0x10
    1416:	8341                	srli	a4,a4,0x10
    1418:	400007b7          	lui	a5,0x40000
    141c:	40078793          	addi	a5,a5,1024 # 40000400 <_eusrstack+0x1fffb400>
    1420:	9b79                	andi	a4,a4,-2
    1422:	0742                	slli	a4,a4,0x10
    1424:	8341                	srli	a4,a4,0x10
    1426:	ab9a                	sh	a4,16(a5)
    1428:	8181a783          	lw	a5,-2024(gp) # 20000018 <TIM_Counter>
    142c:	00178713          	addi	a4,a5,1
    1430:	80e1ac23          	sw	a4,-2024(gp) # 20000018 <TIM_Counter>
    1434:	0001                	nop
    1436:	4432                	lw	s0,12(sp)
    1438:	0141                	addi	sp,sp,16
    143a:	30200073          	mret

0000143e <EXTI0_IRQHandler>:
    143e:	1141                	addi	sp,sp,-16
    1440:	c622                	sw	s0,12(sp)
    1442:	0800                	addi	s0,sp,16
    1444:	400107b7          	lui	a5,0x40010
    1448:	40078793          	addi	a5,a5,1024 # 40010400 <_eusrstack+0x2000b400>
    144c:	4bd8                	lw	a4,20(a5)
    144e:	400107b7          	lui	a5,0x40010
    1452:	40078793          	addi	a5,a5,1024 # 40010400 <_eusrstack+0x2000b400>
    1456:	00176713          	ori	a4,a4,1
    145a:	cbd8                	sw	a4,20(a5)
    145c:	81c1a783          	lw	a5,-2020(gp) # 2000001c <EXTI0_Counter>
    1460:	00178713          	addi	a4,a5,1
    1464:	80e1ae23          	sw	a4,-2020(gp) # 2000001c <EXTI0_Counter>
    1468:	0001                	nop
    146a:	4432                	lw	s0,12(sp)
    146c:	0141                	addi	sp,sp,16
    146e:	30200073          	mret

00001472 <main>:
    1472:	1141                	addi	sp,sp,-16
    1474:	c606                	sw	ra,12(sp)
    1476:	c422                	sw	s0,8(sp)
    1478:	0800                	addi	s0,sp,16
    147a:	debfe0ef          	jal	ra,264 <RVMSIS_Debug_init>
    147e:	e57fe0ef          	jal	ra,2d4 <RVMSIS_RCC_SystemClock_144MHz>
    1482:	ff3fe0ef          	jal	ra,474 <RVMSIS_SysTick_Timer_init>
    1486:	8faff0ef          	jal	ra,580 <RVMSIS_PC13_OUTPUT_Push_Pull_init>
    148a:	944ff0ef          	jal	ra,5ce <RVMSIS_PA8_MCO_init>
    148e:	a7eff0ef          	jal	ra,70c <RVMSIS_TIM3_init>
    1492:	bf8ff0ef          	jal	ra,88a <RVMSIS_TIM3_PWM_CHANNEL1_init>
    1496:	d56ff0ef          	jal	ra,9ec <RVMSIS_TIM3_PWM_CHANNEL2_init>
    149a:	9a2ff0ef          	jal	ra,63c <RVMSIS_EXTI0_init>
    149e:	ec0ff0ef          	jal	ra,b5e <RVMSIS_ADC_DMA_init>
    14a2:	34c9                	jal	f64 <RVMSIS_USART1_Init>
    14a4:	400117b7          	lui	a5,0x40011
    14a8:	6709                	lui	a4,0x2
    14aa:	cb98                	sw	a4,16(a5)
    14ac:	3e800513          	li	a0,1000
    14b0:	8aeff0ef          	jal	ra,55e <Delay_ms>
    14b4:	400117b7          	lui	a5,0x40011
    14b8:	20000737          	lui	a4,0x20000
    14bc:	cb98                	sw	a4,16(a5)
    14be:	3e800513          	li	a0,1000
    14c2:	89cff0ef          	jal	ra,55e <Delay_ms>
    14c6:	06400693          	li	a3,100
    14ca:	4619                	li	a2,6
    14cc:	200007b7          	lui	a5,0x20000
    14d0:	00078593          	mv	a1,a5
    14d4:	400147b7          	lui	a5,0x40014
    14d8:	80078513          	addi	a0,a5,-2048 # 40013800 <_eusrstack+0x2000e800>
    14dc:	336d                	jal	1286 <RVMSIS_USART_Transmit>
    14de:	b7d9                	j	14a4 <main+0x32>

000014e0 <SystemInit>:
    14e0:	1141                	addi	sp,sp,-16
    14e2:	c606                	sw	ra,12(sp)
    14e4:	c422                	sw	s0,8(sp)
    14e6:	0800                	addi	s0,sp,16
    14e8:	400217b7          	lui	a5,0x40021
    14ec:	4398                	lw	a4,0(a5)
    14ee:	400217b7          	lui	a5,0x40021
    14f2:	00176713          	ori	a4,a4,1
    14f6:	c398                	sw	a4,0(a5)
    14f8:	400217b7          	lui	a5,0x40021
    14fc:	43d4                	lw	a3,4(a5)
    14fe:	400217b7          	lui	a5,0x40021
    1502:	f8ff0737          	lui	a4,0xf8ff0
    1506:	8f75                	and	a4,a4,a3
    1508:	c3d8                	sw	a4,4(a5)
    150a:	400217b7          	lui	a5,0x40021
    150e:	4394                	lw	a3,0(a5)
    1510:	400217b7          	lui	a5,0x40021
    1514:	fef70737          	lui	a4,0xfef70
    1518:	177d                	addi	a4,a4,-1
    151a:	8f75                	and	a4,a4,a3
    151c:	c398                	sw	a4,0(a5)
    151e:	400217b7          	lui	a5,0x40021
    1522:	4394                	lw	a3,0(a5)
    1524:	400217b7          	lui	a5,0x40021
    1528:	fffc0737          	lui	a4,0xfffc0
    152c:	177d                	addi	a4,a4,-1
    152e:	8f75                	and	a4,a4,a3
    1530:	c398                	sw	a4,0(a5)
    1532:	400217b7          	lui	a5,0x40021
    1536:	43d4                	lw	a3,4(a5)
    1538:	400217b7          	lui	a5,0x40021
    153c:	ff810737          	lui	a4,0xff810
    1540:	177d                	addi	a4,a4,-1
    1542:	8f75                	and	a4,a4,a3
    1544:	c3d8                	sw	a4,4(a5)
    1546:	400217b7          	lui	a5,0x40021
    154a:	009f0737          	lui	a4,0x9f0
    154e:	c798                	sw	a4,8(a5)
    1550:	2031                	jal	155c <SetSysClock>
    1552:	0001                	nop
    1554:	40b2                	lw	ra,12(sp)
    1556:	4422                	lw	s0,8(sp)
    1558:	0141                	addi	sp,sp,16
    155a:	8082                	ret

0000155c <SetSysClock>:
    155c:	1141                	addi	sp,sp,-16
    155e:	c606                	sw	ra,12(sp)
    1560:	c422                	sw	s0,8(sp)
    1562:	0800                	addi	s0,sp,16
    1564:	2031                	jal	1570 <SetSysClockTo96_HSE>
    1566:	0001                	nop
    1568:	40b2                	lw	ra,12(sp)
    156a:	4422                	lw	s0,8(sp)
    156c:	0141                	addi	sp,sp,16
    156e:	8082                	ret

00001570 <SetSysClockTo96_HSE>:
    1570:	1101                	addi	sp,sp,-32
    1572:	ce22                	sw	s0,28(sp)
    1574:	1000                	addi	s0,sp,32
    1576:	fe042623          	sw	zero,-20(s0)
    157a:	fe042423          	sw	zero,-24(s0)
    157e:	400217b7          	lui	a5,0x40021
    1582:	4394                	lw	a3,0(a5)
    1584:	400217b7          	lui	a5,0x40021
    1588:	6741                	lui	a4,0x10
    158a:	8f55                	or	a4,a4,a3
    158c:	c398                	sw	a4,0(a5)
    158e:	400217b7          	lui	a5,0x40021
    1592:	4398                	lw	a4,0(a5)
    1594:	000207b7          	lui	a5,0x20
    1598:	8ff9                	and	a5,a5,a4
    159a:	fef42423          	sw	a5,-24(s0)
    159e:	fec42783          	lw	a5,-20(s0)
    15a2:	0785                	addi	a5,a5,1
    15a4:	fef42623          	sw	a5,-20(s0)
    15a8:	fe842783          	lw	a5,-24(s0)
    15ac:	e791                	bnez	a5,15b8 <SetSysClockTo96_HSE+0x48>
    15ae:	fec42703          	lw	a4,-20(s0)
    15b2:	6785                	lui	a5,0x1
    15b4:	fcf71de3          	bne	a4,a5,158e <SetSysClockTo96_HSE+0x1e>
    15b8:	400217b7          	lui	a5,0x40021
    15bc:	4398                	lw	a4,0(a5)
    15be:	000207b7          	lui	a5,0x20
    15c2:	8ff9                	and	a5,a5,a4
    15c4:	c789                	beqz	a5,15ce <SetSysClockTo96_HSE+0x5e>
    15c6:	4785                	li	a5,1
    15c8:	fef42423          	sw	a5,-24(s0)
    15cc:	a019                	j	15d2 <SetSysClockTo96_HSE+0x62>
    15ce:	fe042423          	sw	zero,-24(s0)
    15d2:	fe842703          	lw	a4,-24(s0)
    15d6:	4785                	li	a5,1
    15d8:	0af71263          	bne	a4,a5,167c <SetSysClockTo96_HSE+0x10c>
    15dc:	40021737          	lui	a4,0x40021
    15e0:	400217b7          	lui	a5,0x40021
    15e4:	4358                	lw	a4,4(a4)
    15e6:	c3d8                	sw	a4,4(a5)
    15e8:	40021737          	lui	a4,0x40021
    15ec:	400217b7          	lui	a5,0x40021
    15f0:	4358                	lw	a4,4(a4)
    15f2:	c3d8                	sw	a4,4(a5)
    15f4:	400217b7          	lui	a5,0x40021
    15f8:	43d8                	lw	a4,4(a5)
    15fa:	400217b7          	lui	a5,0x40021
    15fe:	40076713          	ori	a4,a4,1024
    1602:	c3d8                	sw	a4,4(a5)
    1604:	400217b7          	lui	a5,0x40021
    1608:	43d4                	lw	a3,4(a5)
    160a:	400217b7          	lui	a5,0x40021
    160e:	ffc10737          	lui	a4,0xffc10
    1612:	177d                	addi	a4,a4,-1
    1614:	8f75                	and	a4,a4,a3
    1616:	c3d8                	sw	a4,4(a5)
    1618:	400217b7          	lui	a5,0x40021
    161c:	43d4                	lw	a3,4(a5)
    161e:	400217b7          	lui	a5,0x40021
    1622:	00290737          	lui	a4,0x290
    1626:	8f55                	or	a4,a4,a3
    1628:	c3d8                	sw	a4,4(a5)
    162a:	400217b7          	lui	a5,0x40021
    162e:	4394                	lw	a3,0(a5)
    1630:	400217b7          	lui	a5,0x40021
    1634:	01000737          	lui	a4,0x1000
    1638:	8f55                	or	a4,a4,a3
    163a:	c398                	sw	a4,0(a5)
    163c:	0001                	nop
    163e:	400217b7          	lui	a5,0x40021
    1642:	4398                	lw	a4,0(a5)
    1644:	020007b7          	lui	a5,0x2000
    1648:	8ff9                	and	a5,a5,a4
    164a:	dbf5                	beqz	a5,163e <SetSysClockTo96_HSE+0xce>
    164c:	400217b7          	lui	a5,0x40021
    1650:	43d8                	lw	a4,4(a5)
    1652:	400217b7          	lui	a5,0x40021
    1656:	9b71                	andi	a4,a4,-4
    1658:	c3d8                	sw	a4,4(a5)
    165a:	400217b7          	lui	a5,0x40021
    165e:	43d8                	lw	a4,4(a5)
    1660:	400217b7          	lui	a5,0x40021
    1664:	00276713          	ori	a4,a4,2
    1668:	c3d8                	sw	a4,4(a5)
    166a:	0001                	nop
    166c:	400217b7          	lui	a5,0x40021
    1670:	43dc                	lw	a5,4(a5)
    1672:	00c7f713          	andi	a4,a5,12
    1676:	47a1                	li	a5,8
    1678:	fef71ae3          	bne	a4,a5,166c <SetSysClockTo96_HSE+0xfc>
    167c:	0001                	nop
    167e:	4472                	lw	s0,28(sp)
    1680:	6105                	addi	sp,sp,32
    1682:	8082                	ret
