
CH32V203C8T6.elf:     file format elf32-littleriscv
CH32V203C8T6.elf
architecture: riscv:rv32, flags 0x00000112:
EXEC_P, HAS_SYMS, D_PAGED
start address 0x00000000

Program Header:
    LOAD off    0x00001000 vaddr 0x00000000 paddr 0x00000000 align 2**12
         filesz 0x00000bb8 memsz 0x00000bb8 flags r-x
    LOAD off    0x00002000 vaddr 0x20000000 paddr 0x00000bb8 align 2**12
         filesz 0x00000000 memsz 0x00000024 flags rw-
    LOAD off    0x00001e00 vaddr 0x20004e00 paddr 0x20004e00 align 2**12
         filesz 0x00000000 memsz 0x00000200 flags rw-

Sections:
Idx Name          Size      VMA       LMA       File off  Algn
  0 .init         00000038  00000000  00000000  00001000  2**1
                  CONTENTS, ALLOC, LOAD, READONLY, CODE
  1 .vector       00000108  00000038  00000038  00001038  2**1
                  CONTENTS, ALLOC, LOAD, READONLY, CODE
  2 .text         00000a78  00000140  00000140  00001140  2**2
                  CONTENTS, ALLOC, LOAD, READONLY, CODE
  3 .fini         00000000  00000bb8  00000bb8  00001bb8  2**0
                  CONTENTS, ALLOC, LOAD, CODE
  4 .dalign       00000000  20000000  20000000  00001bb8  2**0
                  CONTENTS
  5 .dlalign      00000000  00000bb8  00000bb8  00001bb8  2**0
                  CONTENTS
  6 .data         00000000  20000000  20000000  00001bb8  2**0
                  CONTENTS, ALLOC, LOAD, DATA
  7 .bss          00000024  20000000  00000bb8  00002000  2**2
                  ALLOC
  8 .stack        00000200  20004e00  20004e00  00001e00  2**0
                  ALLOC
  9 .debug_line   00003589  00000000  00000000  00001bb8  2**0
                  CONTENTS, READONLY, DEBUGGING
 10 .debug_info   00001c8a  00000000  00000000  00005141  2**0
                  CONTENTS, READONLY, DEBUGGING
 11 .debug_abbrev 00000582  00000000  00000000  00006dcb  2**0
                  CONTENTS, READONLY, DEBUGGING
 12 .debug_aranges 000001e0  00000000  00000000  00007350  2**3
                  CONTENTS, READONLY, DEBUGGING
 13 .debug_str    0002f7a2  00000000  00000000  00007530  2**0
                  CONTENTS, READONLY, DEBUGGING
 14 .debug_ranges 000001a8  00000000  00000000  00036cd8  2**3
                  CONTENTS, READONLY, DEBUGGING
 15 .debug_macro  0000043a  00000000  00000000  00036e80  2**0
                  CONTENTS, READONLY, DEBUGGING
 16 .comment      00000033  00000000  00000000  000372ba  2**0
                  CONTENTS, READONLY
 17 .debug_frame  00000654  00000000  00000000  000372f0  2**2
                  CONTENTS, READONLY, DEBUGGING
SYMBOL TABLE:
00000000 l    d  .init	00000000 .init
00000038 l    d  .vector	00000000 .vector
00000140 l    d  .text	00000000 .text
00000bb8 l    d  .fini	00000000 .fini
20000000 l    d  .dalign	00000000 .dalign
00000bb8 l    d  .dlalign	00000000 .dlalign
20000000 l    d  .data	00000000 .data
20000000 l    d  .bss	00000000 .bss
20004e00 l    d  .stack	00000000 .stack
00000000 l    d  .debug_line	00000000 .debug_line
00000000 l    d  .debug_info	00000000 .debug_info
00000000 l    d  .debug_abbrev	00000000 .debug_abbrev
00000000 l    d  .debug_aranges	00000000 .debug_aranges
00000000 l    d  .debug_str	00000000 .debug_str
00000000 l    d  .debug_ranges	00000000 .debug_ranges
00000000 l    d  .debug_macro	00000000 .debug_macro
00000000 l    d  .comment	00000000 .comment
00000000 l    d  .debug_frame	00000000 .debug_frame
00000000 l    df *ABS*	00000000 ./Core/Startup/startup_ch32v20x_D6.o
00000038 l       .vector	00000000 _vector_base
00000000 l    df *ABS*	00000000 ch32v20x_RVMSIS.c
0000023a l     F .text	00000032 NVIC_EnableIRQ
00000000 l    df *ABS*	00000000 main.c
00000000 l    df *ABS*	00000000 system_ch32v20x.c
00000a8c l     F .text	00000014 SetSysClock
00000aa0 l     F .text	00000114 SetSysClockTo96_HSE
0000015e  w      .text	00000000 EXTI2_IRQHandler
20000004 g     O .bss	00000004 Delay_counter_ms
20000800 g       .data	00000000 __global_pointer$
00000184  w      .text	00000000 TIM1_CC_IRQHandler
00000142  w      .text	00000000 HardFault_Handler
20000008 g     O .bss	00000004 Timeout_counter_ms
0000047e g     F .text	00000094 RVMSIS_SysTick_Timer_init
00000512 g     F .text	0000006e SysTick_Handler
00000640 g     F .text	0000007a RVMSIS_FLASH_Page_erase
000005f8 g     F .text	0000002a RVMSIS_FLASH_Unlock
00000150  w      .text	00000000 PVD_IRQHandler
00000140  w      .text	00000000 NMI_Handler
00000160  w      .text	00000000 EXTI3_IRQHandler
0000082e g     F .text	000000da RVMSIS_FLASH_Read_data
0000014c  w      .text	00000000 SW_handler
20000000 g       .bss	00000000 _sbss
00000200 g       *ABS*	00000000 __stack_size
0000015a  w      .text	00000000 EXTI0_IRQHandler
00000190  w      .text	00000000 I2C2_EV_IRQHandler
00000038 g       .init	00000000 _einit
00000172  w      .text	00000000 ADC1_2_IRQHandler
00000148  w      .text	00000000 Break_Point_Handler
000005aa g     F .text	0000004e RVMSIS_PC13_OUTPUT_Push_Pull_init
00000194  w      .text	00000000 SPI1_IRQHandler
00000152  w      .text	00000000 TAMPER_IRQHandler
00000144  w      .text	00000000 Ecall_M_Mode_Handler
0000016a  w      .text	00000000 DMA1_Channel4_IRQHandler
0000019c  w      .text	00000000 USART3_IRQHandler
00000154  w      .text	00000000 RTC_IRQHandler
20000024 g       .bss	00000000 _ebss
00000170  w      .text	00000000 DMA1_Channel7_IRQHandler
00000178  w      .text	00000000 CAN1_RX1_IRQHandler
0000018a  w      .text	00000000 TIM4_IRQHandler
0000018c  w      .text	00000000 I2C1_EV_IRQHandler
000001a4  w      .text	00000000 USBHD_IRQHandler
0000016e  w      .text	00000000 DMA1_Channel6_IRQHandler
000001a8  w      .text	00000000 UART4_IRQHandler
00000188  w      .text	00000000 TIM3_IRQHandler
00000158  w      .text	00000000 RCC_IRQHandler
00000182  w      .text	00000000 TIM1_TRG_COM_IRQHandler
00000164  w      .text	00000000 DMA1_Channel1_IRQHandler
00000000 g       .init	00000000 _start
0000019e  w      .text	00000000 EXTI15_10_IRQHandler
000001aa  w      .text	00000000 DMA1_Channel8_IRQHandler
20000000 g       .dalign	00000000 _data_vma
0000017c  w      .text	00000000 EXTI9_5_IRQHandler
00000580 g     F .text	0000002a Delay_ms
2000000c g     O .bss	0000000b Flash_data_CH32
20000018 g     O .bss	0000000b Flash_data_CH32_read
00000196  w      .text	00000000 SPI2_IRQHandler
00000908 g     F .text	00000108 main
0000026c g     F .text	00000070 RVMSIS_Debug_init
0000016c  w      .text	00000000 DMA1_Channel5_IRQHandler
00000162  w      .text	00000000 EXTI4_IRQHandler
00000176  w      .text	00000000 USB_LP_CAN1_RX0_IRQHandler
00000a10 g     F .text	0000007c SystemInit
00000174  w      .text	00000000 USB_HP_CAN1_TX_IRQHandler
00000000 g       .init	00000000 _sinit
000001a6  w      .text	00000000 USBHDWakeUp_IRQHandler
00000168  w      .text	00000000 DMA1_Channel3_IRQHandler
00000180  w      .text	00000000 TIM1_UP_IRQHandler
0000014e  w      .text	00000000 WWDG_IRQHandler
00000146  w      .text	00000000 Ecall_U_Mode_Handler
00000186  w      .text	00000000 TIM2_IRQHandler
20005000 g       .stack	00000000 _eusrstack
20000000 g     O .bss	00000004 SysTimer_ms
0000017e  w      .text	00000000 TIM1_BRK_IRQHandler
0000015c  w      .text	00000000 EXTI1_IRQHandler
20000000 g       .data	00000000 _edata
00000622 g     F .text	0000001e RVMSIS_FLASH_Lock
000001a0  w      .text	00000000 RTCAlarm_IRQHandler
00000bb8 g       .dlalign	00000000 _data_lma
0000019a  w      .text	00000000 USART2_IRQHandler
000002dc g     F .text	000001a2 RVMSIS_RCC_SystemClock_144MHz
00000192  w      .text	00000000 I2C2_ER_IRQHandler
00000166  w      .text	00000000 DMA1_Channel2_IRQHandler
000006ba g     F .text	00000174 RVMSIS_FLASH_Page_write
000001ac  w      .text	00000000 handle_reset
0000017a  w      .text	00000000 CAN1_SCE_IRQHandler
00000156  w      .text	00000000 FLASH_IRQHandler
00000198  w      .text	00000000 USART1_IRQHandler
0000018e  w      .text	00000000 I2C1_ER_IRQHandler
000001a2  w      .text	00000000 USBWakeUp_IRQHandler



Disassembly of section .init:

00000000 <_sinit>:
   0:	1ac0006f          	j	1ac <handle_reset>
   4:	00000013          	nop
   8:	00000013          	nop
   c:	00000013          	nop
  10:	00000013          	nop
  14:	00000013          	nop
  18:	00000013          	nop
  1c:	00000013          	nop
  20:	00000013          	nop
  24:	00000013          	nop
  28:	00000013          	nop
  2c:	00000013          	nop
  30:	00000013          	nop
  34:	00100073          	ebreak

Disassembly of section .vector:

00000038 <_vector_base>:
	...
  40:	0140                	addi	s0,sp,132
  42:	0000                	unimp
  44:	0142                	slli	sp,sp,0x10
  46:	0000                	unimp
  48:	0000                	unimp
  4a:	0000                	unimp
  4c:	0144                	addi	s1,sp,132
	...
  56:	0000                	unimp
  58:	0146                	slli	sp,sp,0x11
  5a:	0000                	unimp
  5c:	0148                	addi	a0,sp,132
	...
  66:	0000                	unimp
  68:	0512                	slli	a0,a0,0x4
  6a:	0000                	unimp
  6c:	0000                	unimp
  6e:	0000                	unimp
  70:	014c                	addi	a1,sp,132
  72:	0000                	unimp
  74:	0000                	unimp
  76:	0000                	unimp
  78:	014e                	slli	sp,sp,0x13
  7a:	0000                	unimp
  7c:	0150                	addi	a2,sp,132
  7e:	0000                	unimp
  80:	0152                	slli	sp,sp,0x14
  82:	0000                	unimp
  84:	0154                	addi	a3,sp,132
  86:	0000                	unimp
  88:	0156                	slli	sp,sp,0x15
  8a:	0000                	unimp
  8c:	0158                	addi	a4,sp,132
  8e:	0000                	unimp
  90:	015a                	slli	sp,sp,0x16
  92:	0000                	unimp
  94:	015c                	addi	a5,sp,132
  96:	0000                	unimp
  98:	015e                	slli	sp,sp,0x17
  9a:	0000                	unimp
  9c:	0160                	addi	s0,sp,140
  9e:	0000                	unimp
  a0:	0162                	slli	sp,sp,0x18
  a2:	0000                	unimp
  a4:	0164                	addi	s1,sp,140
  a6:	0000                	unimp
  a8:	0166                	slli	sp,sp,0x19
  aa:	0000                	unimp
  ac:	0168                	addi	a0,sp,140
  ae:	0000                	unimp
  b0:	016a                	slli	sp,sp,0x1a
  b2:	0000                	unimp
  b4:	016c                	addi	a1,sp,140
  b6:	0000                	unimp
  b8:	016e                	slli	sp,sp,0x1b
  ba:	0000                	unimp
  bc:	0170                	addi	a2,sp,140
  be:	0000                	unimp
  c0:	0172                	slli	sp,sp,0x1c
  c2:	0000                	unimp
  c4:	0174                	addi	a3,sp,140
  c6:	0000                	unimp
  c8:	0176                	slli	sp,sp,0x1d
  ca:	0000                	unimp
  cc:	0178                	addi	a4,sp,140
  ce:	0000                	unimp
  d0:	017a                	slli	sp,sp,0x1e
  d2:	0000                	unimp
  d4:	017c                	addi	a5,sp,140
  d6:	0000                	unimp
  d8:	017e                	slli	sp,sp,0x1f
  da:	0000                	unimp
  dc:	0180                	addi	s0,sp,192
  de:	0000                	unimp
  e0:	0182                	c.slli64	gp
  e2:	0000                	unimp
  e4:	0184                	addi	s1,sp,192
  e6:	0000                	unimp
  e8:	0186                	slli	gp,gp,0x1
  ea:	0000                	unimp
  ec:	0188                	addi	a0,sp,192
  ee:	0000                	unimp
  f0:	018a                	slli	gp,gp,0x2
  f2:	0000                	unimp
  f4:	018c                	addi	a1,sp,192
  f6:	0000                	unimp
  f8:	018e                	slli	gp,gp,0x3
  fa:	0000                	unimp
  fc:	0190                	addi	a2,sp,192
  fe:	0000                	unimp
 100:	0192                	slli	gp,gp,0x4
 102:	0000                	unimp
 104:	0194                	addi	a3,sp,192
 106:	0000                	unimp
 108:	0196                	slli	gp,gp,0x5
 10a:	0000                	unimp
 10c:	0198                	addi	a4,sp,192
 10e:	0000                	unimp
 110:	019a                	slli	gp,gp,0x6
 112:	0000                	unimp
 114:	019c                	addi	a5,sp,192
 116:	0000                	unimp
 118:	019e                	slli	gp,gp,0x7
 11a:	0000                	unimp
 11c:	01a0                	addi	s0,sp,200
 11e:	0000                	unimp
 120:	01a2                	slli	gp,gp,0x8
 122:	0000                	unimp
 124:	01a4                	addi	s1,sp,200
 126:	0000                	unimp
 128:	01a6                	slli	gp,gp,0x9
 12a:	0000                	unimp
 12c:	01a8                	addi	a0,sp,200
 12e:	0000                	unimp
 130:	01aa                	slli	gp,gp,0xa
	...

Disassembly of section .text:

00000140 <NMI_Handler>:
 140:	a001                	j	140 <NMI_Handler>

00000142 <HardFault_Handler>:
 142:	a001                	j	142 <HardFault_Handler>

00000144 <Ecall_M_Mode_Handler>:
 144:	a001                	j	144 <Ecall_M_Mode_Handler>

00000146 <Ecall_U_Mode_Handler>:
 146:	a001                	j	146 <Ecall_U_Mode_Handler>

00000148 <Break_Point_Handler>:
 148:	a001                	j	148 <Break_Point_Handler>
 14a:	a001                	j	14a <Break_Point_Handler+0x2>

0000014c <SW_handler>:
 14c:	a001                	j	14c <SW_handler>

0000014e <WWDG_IRQHandler>:
 14e:	a001                	j	14e <WWDG_IRQHandler>

00000150 <PVD_IRQHandler>:
 150:	a001                	j	150 <PVD_IRQHandler>

00000152 <TAMPER_IRQHandler>:
 152:	a001                	j	152 <TAMPER_IRQHandler>

00000154 <RTC_IRQHandler>:
 154:	a001                	j	154 <RTC_IRQHandler>

00000156 <FLASH_IRQHandler>:
 156:	a001                	j	156 <FLASH_IRQHandler>

00000158 <RCC_IRQHandler>:
 158:	a001                	j	158 <RCC_IRQHandler>

0000015a <EXTI0_IRQHandler>:
 15a:	a001                	j	15a <EXTI0_IRQHandler>

0000015c <EXTI1_IRQHandler>:
 15c:	a001                	j	15c <EXTI1_IRQHandler>

0000015e <EXTI2_IRQHandler>:
 15e:	a001                	j	15e <EXTI2_IRQHandler>

00000160 <EXTI3_IRQHandler>:
 160:	a001                	j	160 <EXTI3_IRQHandler>

00000162 <EXTI4_IRQHandler>:
 162:	a001                	j	162 <EXTI4_IRQHandler>

00000164 <DMA1_Channel1_IRQHandler>:
 164:	a001                	j	164 <DMA1_Channel1_IRQHandler>

00000166 <DMA1_Channel2_IRQHandler>:
 166:	a001                	j	166 <DMA1_Channel2_IRQHandler>

00000168 <DMA1_Channel3_IRQHandler>:
 168:	a001                	j	168 <DMA1_Channel3_IRQHandler>

0000016a <DMA1_Channel4_IRQHandler>:
 16a:	a001                	j	16a <DMA1_Channel4_IRQHandler>

0000016c <DMA1_Channel5_IRQHandler>:
 16c:	a001                	j	16c <DMA1_Channel5_IRQHandler>

0000016e <DMA1_Channel6_IRQHandler>:
 16e:	a001                	j	16e <DMA1_Channel6_IRQHandler>

00000170 <DMA1_Channel7_IRQHandler>:
 170:	a001                	j	170 <DMA1_Channel7_IRQHandler>

00000172 <ADC1_2_IRQHandler>:
 172:	a001                	j	172 <ADC1_2_IRQHandler>

00000174 <USB_HP_CAN1_TX_IRQHandler>:
 174:	a001                	j	174 <USB_HP_CAN1_TX_IRQHandler>

00000176 <USB_LP_CAN1_RX0_IRQHandler>:
 176:	a001                	j	176 <USB_LP_CAN1_RX0_IRQHandler>

00000178 <CAN1_RX1_IRQHandler>:
 178:	a001                	j	178 <CAN1_RX1_IRQHandler>

0000017a <CAN1_SCE_IRQHandler>:
 17a:	a001                	j	17a <CAN1_SCE_IRQHandler>

0000017c <EXTI9_5_IRQHandler>:
 17c:	a001                	j	17c <EXTI9_5_IRQHandler>

0000017e <TIM1_BRK_IRQHandler>:
 17e:	a001                	j	17e <TIM1_BRK_IRQHandler>

00000180 <TIM1_UP_IRQHandler>:
 180:	a001                	j	180 <TIM1_UP_IRQHandler>

00000182 <TIM1_TRG_COM_IRQHandler>:
 182:	a001                	j	182 <TIM1_TRG_COM_IRQHandler>

00000184 <TIM1_CC_IRQHandler>:
 184:	a001                	j	184 <TIM1_CC_IRQHandler>

00000186 <TIM2_IRQHandler>:
 186:	a001                	j	186 <TIM2_IRQHandler>

00000188 <TIM3_IRQHandler>:
 188:	a001                	j	188 <TIM3_IRQHandler>

0000018a <TIM4_IRQHandler>:
 18a:	a001                	j	18a <TIM4_IRQHandler>

0000018c <I2C1_EV_IRQHandler>:
 18c:	a001                	j	18c <I2C1_EV_IRQHandler>

0000018e <I2C1_ER_IRQHandler>:
 18e:	a001                	j	18e <I2C1_ER_IRQHandler>

00000190 <I2C2_EV_IRQHandler>:
 190:	a001                	j	190 <I2C2_EV_IRQHandler>

00000192 <I2C2_ER_IRQHandler>:
 192:	a001                	j	192 <I2C2_ER_IRQHandler>

00000194 <SPI1_IRQHandler>:
 194:	a001                	j	194 <SPI1_IRQHandler>

00000196 <SPI2_IRQHandler>:
 196:	a001                	j	196 <SPI2_IRQHandler>

00000198 <USART1_IRQHandler>:
 198:	a001                	j	198 <USART1_IRQHandler>

0000019a <USART2_IRQHandler>:
 19a:	a001                	j	19a <USART2_IRQHandler>

0000019c <USART3_IRQHandler>:
 19c:	a001                	j	19c <USART3_IRQHandler>

0000019e <EXTI15_10_IRQHandler>:
 19e:	a001                	j	19e <EXTI15_10_IRQHandler>

000001a0 <RTCAlarm_IRQHandler>:
 1a0:	a001                	j	1a0 <RTCAlarm_IRQHandler>

000001a2 <USBWakeUp_IRQHandler>:
 1a2:	a001                	j	1a2 <USBWakeUp_IRQHandler>

000001a4 <USBHD_IRQHandler>:
 1a4:	a001                	j	1a4 <USBHD_IRQHandler>

000001a6 <USBHDWakeUp_IRQHandler>:
 1a6:	a001                	j	1a6 <USBHDWakeUp_IRQHandler>

000001a8 <UART4_IRQHandler>:
 1a8:	a001                	j	1a8 <UART4_IRQHandler>

000001aa <DMA1_Channel8_IRQHandler>:
 1aa:	a001                	j	1aa <DMA1_Channel8_IRQHandler>

000001ac <handle_reset>:
 1ac:	20000197          	auipc	gp,0x20000
 1b0:	65418193          	addi	gp,gp,1620 # 20000800 <__global_pointer$>
 1b4:	20005117          	auipc	sp,0x20005
 1b8:	e4c10113          	addi	sp,sp,-436 # 20005000 <_eusrstack>
 1bc:	00001517          	auipc	a0,0x1
 1c0:	9fc50513          	addi	a0,a0,-1540 # bb8 <_data_lma>
 1c4:	20000597          	auipc	a1,0x20000
 1c8:	e3c58593          	addi	a1,a1,-452 # 20000000 <_data_vma>
 1cc:	20000617          	auipc	a2,0x20000
 1d0:	e3460613          	addi	a2,a2,-460 # 20000000 <_data_vma>
 1d4:	00c5fa63          	bgeu	a1,a2,1e8 <handle_reset+0x3c>
 1d8:	00052283          	lw	t0,0(a0)
 1dc:	0055a023          	sw	t0,0(a1)
 1e0:	0511                	addi	a0,a0,4
 1e2:	0591                	addi	a1,a1,4
 1e4:	fec5eae3          	bltu	a1,a2,1d8 <handle_reset+0x2c>
 1e8:	20000517          	auipc	a0,0x20000
 1ec:	e1850513          	addi	a0,a0,-488 # 20000000 <_data_vma>
 1f0:	82418593          	addi	a1,gp,-2012 # 20000024 <_ebss>
 1f4:	00b57763          	bgeu	a0,a1,202 <__stack_size+0x2>
 1f8:	00052023          	sw	zero,0(a0)
 1fc:	0511                	addi	a0,a0,4
 1fe:	feb56de3          	bltu	a0,a1,1f8 <handle_reset+0x4c>
 202:	42fd                	li	t0,31
 204:	bc029073          	csrw	0xbc0,t0
 208:	428d                	li	t0,3
 20a:	80429073          	csrw	0x804,t0
 20e:	08800293          	li	t0,136
 212:	3002a073          	csrs	mstatus,t0
 216:	00000297          	auipc	t0,0x0
 21a:	e2228293          	addi	t0,t0,-478 # 38 <_einit>
 21e:	0032e293          	ori	t0,t0,3
 222:	30529073          	csrw	mtvec,t0
 226:	7ea000ef          	jal	ra,a10 <SystemInit>
 22a:	00000297          	auipc	t0,0x0
 22e:	6de28293          	addi	t0,t0,1758 # 908 <main>
 232:	34129073          	csrw	mepc,t0
 236:	30200073          	mret

0000023a <NVIC_EnableIRQ>:
 23a:	1101                	addi	sp,sp,-32
 23c:	ce22                	sw	s0,28(sp)
 23e:	1000                	addi	s0,sp,32
 240:	fea42623          	sw	a0,-20(s0)
 244:	fec42783          	lw	a5,-20(s0)
 248:	8bfd                	andi	a5,a5,31
 24a:	4705                	li	a4,1
 24c:	00f716b3          	sll	a3,a4,a5
 250:	e000e737          	lui	a4,0xe000e
 254:	fec42783          	lw	a5,-20(s0)
 258:	8395                	srli	a5,a5,0x5
 25a:	04078793          	addi	a5,a5,64
 25e:	078a                	slli	a5,a5,0x2
 260:	97ba                	add	a5,a5,a4
 262:	c394                	sw	a3,0(a5)
 264:	0001                	nop
 266:	4472                	lw	s0,28(sp)
 268:	6105                	addi	sp,sp,32
 26a:	8082                	ret

0000026c <RVMSIS_Debug_init>:
 26c:	1141                	addi	sp,sp,-16
 26e:	c622                	sw	s0,12(sp)
 270:	0800                	addi	s0,sp,16
 272:	400217b7          	lui	a5,0x40021
 276:	4f98                	lw	a4,24(a5)
 278:	400217b7          	lui	a5,0x40021
 27c:	00476713          	ori	a4,a4,4
 280:	cf98                	sw	a4,24(a5)
 282:	400217b7          	lui	a5,0x40021
 286:	4f98                	lw	a4,24(a5)
 288:	400217b7          	lui	a5,0x40021
 28c:	00176713          	ori	a4,a4,1
 290:	cf98                	sw	a4,24(a5)
 292:	400107b7          	lui	a5,0x40010
 296:	43d4                	lw	a3,4(a5)
 298:	400107b7          	lui	a5,0x40010
 29c:	f9000737          	lui	a4,0xf9000
 2a0:	177d                	addi	a4,a4,-1
 2a2:	8f75                	and	a4,a4,a3
 2a4:	c3d8                	sw	a4,4(a5)
 2a6:	400117b7          	lui	a5,0x40011
 2aa:	80078793          	addi	a5,a5,-2048 # 40010800 <_eusrstack+0x2000b800>
 2ae:	6759                	lui	a4,0x16
 2b0:	cf98                	sw	a4,24(a5)
 2b2:	400117b7          	lui	a5,0x40011
 2b6:	80078793          	addi	a5,a5,-2048 # 40010800 <_eusrstack+0x2000b800>
 2ba:	6719                	lui	a4,0x6
 2bc:	cf98                	sw	a4,24(a5)
 2be:	400117b7          	lui	a5,0x40011
 2c2:	80078793          	addi	a5,a5,-2048 # 40010800 <_eusrstack+0x2000b800>
 2c6:	6759                	lui	a4,0x16
 2c8:	cf98                	sw	a4,24(a5)
 2ca:	400117b7          	lui	a5,0x40011
 2ce:	80078793          	addi	a5,a5,-2048 # 40010800 <_eusrstack+0x2000b800>
 2d2:	4f9c                	lw	a5,24(a5)
 2d4:	0001                	nop
 2d6:	4432                	lw	s0,12(sp)
 2d8:	0141                	addi	sp,sp,16
 2da:	8082                	ret

000002dc <RVMSIS_RCC_SystemClock_144MHz>:
 2dc:	1141                	addi	sp,sp,-16
 2de:	c622                	sw	s0,12(sp)
 2e0:	0800                	addi	s0,sp,16
 2e2:	400217b7          	lui	a5,0x40021
 2e6:	4398                	lw	a4,0(a5)
 2e8:	400217b7          	lui	a5,0x40021
 2ec:	00176713          	ori	a4,a4,1
 2f0:	c398                	sw	a4,0(a5)
 2f2:	0001                	nop
 2f4:	400217b7          	lui	a5,0x40021
 2f8:	439c                	lw	a5,0(a5)
 2fa:	8b89                	andi	a5,a5,2
 2fc:	dfe5                	beqz	a5,2f4 <RVMSIS_RCC_SystemClock_144MHz+0x18>
 2fe:	400217b7          	lui	a5,0x40021
 302:	4394                	lw	a3,0(a5)
 304:	400217b7          	lui	a5,0x40021
 308:	fffc0737          	lui	a4,0xfffc0
 30c:	177d                	addi	a4,a4,-1
 30e:	8f75                	and	a4,a4,a3
 310:	c398                	sw	a4,0(a5)
 312:	400217b7          	lui	a5,0x40021
 316:	4394                	lw	a3,0(a5)
 318:	400217b7          	lui	a5,0x40021
 31c:	6741                	lui	a4,0x10
 31e:	8f55                	or	a4,a4,a3
 320:	c398                	sw	a4,0(a5)
 322:	0001                	nop
 324:	400217b7          	lui	a5,0x40021
 328:	4398                	lw	a4,0(a5)
 32a:	000207b7          	lui	a5,0x20
 32e:	8ff9                	and	a5,a5,a4
 330:	dbf5                	beqz	a5,324 <RVMSIS_RCC_SystemClock_144MHz+0x48>
 332:	400217b7          	lui	a5,0x40021
 336:	4394                	lw	a3,0(a5)
 338:	400217b7          	lui	a5,0x40021
 33c:	00080737          	lui	a4,0x80
 340:	8f55                	or	a4,a4,a3
 342:	c398                	sw	a4,0(a5)
 344:	400217b7          	lui	a5,0x40021
 348:	43dc                	lw	a5,4(a5)
 34a:	ffc7f713          	andi	a4,a5,-4
 34e:	400217b7          	lui	a5,0x40021
 352:	00176713          	ori	a4,a4,1
 356:	c3d8                	sw	a4,4(a5)
 358:	400217b7          	lui	a5,0x40021
 35c:	4394                	lw	a3,0(a5)
 35e:	400217b7          	lui	a5,0x40021
 362:	ff000737          	lui	a4,0xff000
 366:	177d                	addi	a4,a4,-1
 368:	8f75                	and	a4,a4,a3
 36a:	c398                	sw	a4,0(a5)
 36c:	400217b7          	lui	a5,0x40021
 370:	43dc                	lw	a5,4(a5)
 372:	f0f7f713          	andi	a4,a5,-241
 376:	400217b7          	lui	a5,0x40021
 37a:	08076713          	ori	a4,a4,128
 37e:	c3d8                	sw	a4,4(a5)
 380:	400227b7          	lui	a5,0x40022
 384:	4b94                	lw	a3,16(a5)
 386:	400227b7          	lui	a5,0x40022
 38a:	fe000737          	lui	a4,0xfe000
 38e:	177d                	addi	a4,a4,-1
 390:	8f75                	and	a4,a4,a3
 392:	cb98                	sw	a4,16(a5)
 394:	400217b7          	lui	a5,0x40021
 398:	43dc                	lw	a5,4(a5)
 39a:	8ff7f713          	andi	a4,a5,-1793
 39e:	400217b7          	lui	a5,0x40021
 3a2:	40076713          	ori	a4,a4,1024
 3a6:	c3d8                	sw	a4,4(a5)
 3a8:	400217b7          	lui	a5,0x40021
 3ac:	43d4                	lw	a3,4(a5)
 3ae:	400217b7          	lui	a5,0x40021
 3b2:	7771                	lui	a4,0xffffc
 3b4:	7ff70713          	addi	a4,a4,2047 # ffffc7ff <_eusrstack+0xdfff77ff>
 3b8:	8f75                	and	a4,a4,a3
 3ba:	c3d8                	sw	a4,4(a5)
 3bc:	400217b7          	lui	a5,0x40021
 3c0:	43d8                	lw	a4,4(a5)
 3c2:	77d1                	lui	a5,0xffff4
 3c4:	17fd                	addi	a5,a5,-1
 3c6:	00f776b3          	and	a3,a4,a5
 3ca:	400217b7          	lui	a5,0x40021
 3ce:	6721                	lui	a4,0x8
 3d0:	8f55                	or	a4,a4,a3
 3d2:	c3d8                	sw	a4,4(a5)
 3d4:	400217b7          	lui	a5,0x40021
 3d8:	43d4                	lw	a3,4(a5)
 3da:	400217b7          	lui	a5,0x40021
 3de:	7701                	lui	a4,0xfffe0
 3e0:	177d                	addi	a4,a4,-1
 3e2:	8f75                	and	a4,a4,a3
 3e4:	c3d8                	sw	a4,4(a5)
 3e6:	400217b7          	lui	a5,0x40021
 3ea:	43d4                	lw	a3,4(a5)
 3ec:	400217b7          	lui	a5,0x40021
 3f0:	6741                	lui	a4,0x10
 3f2:	8f55                	or	a4,a4,a3
 3f4:	c3d8                	sw	a4,4(a5)
 3f6:	400217b7          	lui	a5,0x40021
 3fa:	43d4                	lw	a3,4(a5)
 3fc:	400217b7          	lui	a5,0x40021
 400:	003c0737          	lui	a4,0x3c0
 404:	8f55                	or	a4,a4,a3
 406:	c3d8                	sw	a4,4(a5)
 408:	400217b7          	lui	a5,0x40021
 40c:	43d8                	lw	a4,4(a5)
 40e:	ff4007b7          	lui	a5,0xff400
 412:	17fd                	addi	a5,a5,-1
 414:	00f776b3          	and	a3,a4,a5
 418:	400217b7          	lui	a5,0x40021
 41c:	00800737          	lui	a4,0x800
 420:	8f55                	or	a4,a4,a3
 422:	c3d8                	sw	a4,4(a5)
 424:	400217b7          	lui	a5,0x40021
 428:	43d8                	lw	a4,4(a5)
 42a:	f90007b7          	lui	a5,0xf9000
 42e:	17fd                	addi	a5,a5,-1
 430:	00f776b3          	and	a3,a4,a5
 434:	400217b7          	lui	a5,0x40021
 438:	06000737          	lui	a4,0x6000
 43c:	8f55                	or	a4,a4,a3
 43e:	c3d8                	sw	a4,4(a5)
 440:	400217b7          	lui	a5,0x40021
 444:	4394                	lw	a3,0(a5)
 446:	400217b7          	lui	a5,0x40021
 44a:	01000737          	lui	a4,0x1000
 44e:	8f55                	or	a4,a4,a3
 450:	c398                	sw	a4,0(a5)
 452:	400217b7          	lui	a5,0x40021
 456:	43dc                	lw	a5,4(a5)
 458:	ffc7f713          	andi	a4,a5,-4
 45c:	400217b7          	lui	a5,0x40021
 460:	00276713          	ori	a4,a4,2
 464:	c3d8                	sw	a4,4(a5)
 466:	0001                	nop
 468:	400217b7          	lui	a5,0x40021
 46c:	4398                	lw	a4,0(a5)
 46e:	020007b7          	lui	a5,0x2000
 472:	8ff9                	and	a5,a5,a4
 474:	dbf5                	beqz	a5,468 <RVMSIS_RCC_SystemClock_144MHz+0x18c>
 476:	0001                	nop
 478:	4432                	lw	s0,12(sp)
 47a:	0141                	addi	sp,sp,16
 47c:	8082                	ret

0000047e <RVMSIS_SysTick_Timer_init>:
 47e:	1141                	addi	sp,sp,-16
 480:	c606                	sw	ra,12(sp)
 482:	c422                	sw	s0,8(sp)
 484:	0800                	addi	s0,sp,16
 486:	e000f7b7          	lui	a5,0xe000f
 48a:	4398                	lw	a4,0(a5)
 48c:	e000f7b7          	lui	a5,0xe000f
 490:	9b79                	andi	a4,a4,-2
 492:	c398                	sw	a4,0(a5)
 494:	e000f7b7          	lui	a5,0xe000f
 498:	4398                	lw	a4,0(a5)
 49a:	e000f7b7          	lui	a5,0xe000f
 49e:	00276713          	ori	a4,a4,2
 4a2:	c398                	sw	a4,0(a5)
 4a4:	e000f7b7          	lui	a5,0xe000f
 4a8:	4398                	lw	a4,0(a5)
 4aa:	e000f7b7          	lui	a5,0xe000f
 4ae:	9b6d                	andi	a4,a4,-5
 4b0:	c398                	sw	a4,0(a5)
 4b2:	e000f7b7          	lui	a5,0xe000f
 4b6:	4398                	lw	a4,0(a5)
 4b8:	e000f7b7          	lui	a5,0xe000f
 4bc:	00876713          	ori	a4,a4,8
 4c0:	c398                	sw	a4,0(a5)
 4c2:	e000f7b7          	lui	a5,0xe000f
 4c6:	4398                	lw	a4,0(a5)
 4c8:	e000f7b7          	lui	a5,0xe000f
 4cc:	01076713          	ori	a4,a4,16
 4d0:	c398                	sw	a4,0(a5)
 4d2:	e000f7b7          	lui	a5,0xe000f
 4d6:	4398                	lw	a4,0(a5)
 4d8:	e000f7b7          	lui	a5,0xe000f
 4dc:	02076713          	ori	a4,a4,32
 4e0:	c398                	sw	a4,0(a5)
 4e2:	e000f737          	lui	a4,0xe000f
 4e6:	6789                	lui	a5,0x2
 4e8:	32778793          	addi	a5,a5,807 # 2327 <_data_lma+0x176f>
 4ec:	4801                	li	a6,0
 4ee:	cb1c                	sw	a5,16(a4)
 4f0:	01072a23          	sw	a6,20(a4) # e000f014 <_eusrstack+0xc000a014>
 4f4:	4531                	li	a0,12
 4f6:	3391                	jal	23a <NVIC_EnableIRQ>
 4f8:	e000f7b7          	lui	a5,0xe000f
 4fc:	4398                	lw	a4,0(a5)
 4fe:	e000f7b7          	lui	a5,0xe000f
 502:	00176713          	ori	a4,a4,1
 506:	c398                	sw	a4,0(a5)
 508:	0001                	nop
 50a:	40b2                	lw	ra,12(sp)
 50c:	4422                	lw	s0,8(sp)
 50e:	0141                	addi	sp,sp,16
 510:	8082                	ret

00000512 <SysTick_Handler>:
 512:	1141                	addi	sp,sp,-16
 514:	c622                	sw	s0,12(sp)
 516:	0800                	addi	s0,sp,16
 518:	e000f7b7          	lui	a5,0xe000f
 51c:	43d8                	lw	a4,4(a5)
 51e:	e000f7b7          	lui	a5,0xe000f
 522:	9b79                	andi	a4,a4,-2
 524:	c3d8                	sw	a4,4(a5)
 526:	200007b7          	lui	a5,0x20000
 52a:	0007a783          	lw	a5,0(a5) # 20000000 <_data_vma>
 52e:	00178713          	addi	a4,a5,1
 532:	200007b7          	lui	a5,0x20000
 536:	00e7a023          	sw	a4,0(a5) # 20000000 <_data_vma>
 53a:	200007b7          	lui	a5,0x20000
 53e:	0047a783          	lw	a5,4(a5) # 20000004 <Delay_counter_ms>
 542:	cb99                	beqz	a5,558 <SysTick_Handler+0x46>
 544:	200007b7          	lui	a5,0x20000
 548:	0047a783          	lw	a5,4(a5) # 20000004 <Delay_counter_ms>
 54c:	fff78713          	addi	a4,a5,-1
 550:	200007b7          	lui	a5,0x20000
 554:	00e7a223          	sw	a4,4(a5) # 20000004 <Delay_counter_ms>
 558:	200007b7          	lui	a5,0x20000
 55c:	0087a783          	lw	a5,8(a5) # 20000008 <Timeout_counter_ms>
 560:	cb99                	beqz	a5,576 <SysTick_Handler+0x64>
 562:	200007b7          	lui	a5,0x20000
 566:	0087a783          	lw	a5,8(a5) # 20000008 <Timeout_counter_ms>
 56a:	fff78713          	addi	a4,a5,-1
 56e:	200007b7          	lui	a5,0x20000
 572:	00e7a423          	sw	a4,8(a5) # 20000008 <Timeout_counter_ms>
 576:	0001                	nop
 578:	4432                	lw	s0,12(sp)
 57a:	0141                	addi	sp,sp,16
 57c:	30200073          	mret

00000580 <Delay_ms>:
 580:	1101                	addi	sp,sp,-32
 582:	ce22                	sw	s0,28(sp)
 584:	1000                	addi	s0,sp,32
 586:	fea42623          	sw	a0,-20(s0)
 58a:	200007b7          	lui	a5,0x20000
 58e:	fec42703          	lw	a4,-20(s0)
 592:	00e7a223          	sw	a4,4(a5) # 20000004 <Delay_counter_ms>
 596:	0001                	nop
 598:	200007b7          	lui	a5,0x20000
 59c:	0047a783          	lw	a5,4(a5) # 20000004 <Delay_counter_ms>
 5a0:	ffe5                	bnez	a5,598 <Delay_ms+0x18>
 5a2:	0001                	nop
 5a4:	4472                	lw	s0,28(sp)
 5a6:	6105                	addi	sp,sp,32
 5a8:	8082                	ret

000005aa <RVMSIS_PC13_OUTPUT_Push_Pull_init>:
 5aa:	1141                	addi	sp,sp,-16
 5ac:	c622                	sw	s0,12(sp)
 5ae:	0800                	addi	s0,sp,16
 5b0:	400217b7          	lui	a5,0x40021
 5b4:	4f98                	lw	a4,24(a5)
 5b6:	400217b7          	lui	a5,0x40021
 5ba:	01076713          	ori	a4,a4,16
 5be:	cf98                	sw	a4,24(a5)
 5c0:	400117b7          	lui	a5,0x40011
 5c4:	43d8                	lw	a4,4(a5)
 5c6:	ffd007b7          	lui	a5,0xffd00
 5ca:	17fd                	addi	a5,a5,-1
 5cc:	00f776b3          	and	a3,a4,a5
 5d0:	400117b7          	lui	a5,0x40011
 5d4:	00200737          	lui	a4,0x200
 5d8:	8f55                	or	a4,a4,a3
 5da:	c3d8                	sw	a4,4(a5)
 5dc:	400117b7          	lui	a5,0x40011
 5e0:	43d4                	lw	a3,4(a5)
 5e2:	400117b7          	lui	a5,0x40011
 5e6:	ff400737          	lui	a4,0xff400
 5ea:	177d                	addi	a4,a4,-1
 5ec:	8f75                	and	a4,a4,a3
 5ee:	c3d8                	sw	a4,4(a5)
 5f0:	0001                	nop
 5f2:	4432                	lw	s0,12(sp)
 5f4:	0141                	addi	sp,sp,16
 5f6:	8082                	ret

000005f8 <RVMSIS_FLASH_Unlock>:
 5f8:	1141                	addi	sp,sp,-16
 5fa:	c622                	sw	s0,12(sp)
 5fc:	0800                	addi	s0,sp,16
 5fe:	400227b7          	lui	a5,0x40022
 602:	45670737          	lui	a4,0x45670
 606:	12370713          	addi	a4,a4,291 # 45670123 <_eusrstack+0x2566b123>
 60a:	c3d8                	sw	a4,4(a5)
 60c:	400227b7          	lui	a5,0x40022
 610:	cdef9737          	lui	a4,0xcdef9
 614:	9ab70713          	addi	a4,a4,-1621 # cdef89ab <_eusrstack+0xadef39ab>
 618:	c3d8                	sw	a4,4(a5)
 61a:	0001                	nop
 61c:	4432                	lw	s0,12(sp)
 61e:	0141                	addi	sp,sp,16
 620:	8082                	ret

00000622 <RVMSIS_FLASH_Lock>:
 622:	1141                	addi	sp,sp,-16
 624:	c622                	sw	s0,12(sp)
 626:	0800                	addi	s0,sp,16
 628:	400227b7          	lui	a5,0x40022
 62c:	4b98                	lw	a4,16(a5)
 62e:	400227b7          	lui	a5,0x40022
 632:	08076713          	ori	a4,a4,128
 636:	cb98                	sw	a4,16(a5)
 638:	0001                	nop
 63a:	4432                	lw	s0,12(sp)
 63c:	0141                	addi	sp,sp,16
 63e:	8082                	ret

00000640 <RVMSIS_FLASH_Page_erase>:
 640:	1101                	addi	sp,sp,-32
 642:	ce06                	sw	ra,28(sp)
 644:	cc22                	sw	s0,24(sp)
 646:	1000                	addi	s0,sp,32
 648:	87aa                	mv	a5,a0
 64a:	fef41723          	sh	a5,-18(s0)
 64e:	400227b7          	lui	a5,0x40022
 652:	4b9c                	lw	a5,16(a5)
 654:	0807f793          	andi	a5,a5,128
 658:	c391                	beqz	a5,65c <RVMSIS_FLASH_Page_erase+0x1c>
 65a:	3f79                	jal	5f8 <RVMSIS_FLASH_Unlock>
 65c:	400227b7          	lui	a5,0x40022
 660:	4b98                	lw	a4,16(a5)
 662:	400227b7          	lui	a5,0x40022
 666:	00276713          	ori	a4,a4,2
 66a:	cb98                	sw	a4,16(a5)
 66c:	400227b7          	lui	a5,0x40022
 670:	fee45703          	lhu	a4,-18(s0)
 674:	cbd8                	sw	a4,20(a5)
 676:	400227b7          	lui	a5,0x40022
 67a:	4b98                	lw	a4,16(a5)
 67c:	400227b7          	lui	a5,0x40022
 680:	04076713          	ori	a4,a4,64
 684:	cb98                	sw	a4,16(a5)
 686:	0001                	nop
 688:	400227b7          	lui	a5,0x40022
 68c:	47dc                	lw	a5,12(a5)
 68e:	8b85                	andi	a5,a5,1
 690:	ffe5                	bnez	a5,688 <RVMSIS_FLASH_Page_erase+0x48>
 692:	0001                	nop
 694:	400227b7          	lui	a5,0x40022
 698:	47dc                	lw	a5,12(a5)
 69a:	0207f793          	andi	a5,a5,32
 69e:	dbfd                	beqz	a5,694 <RVMSIS_FLASH_Page_erase+0x54>
 6a0:	400227b7          	lui	a5,0x40022
 6a4:	4b98                	lw	a4,16(a5)
 6a6:	400227b7          	lui	a5,0x40022
 6aa:	9b75                	andi	a4,a4,-3
 6ac:	cb98                	sw	a4,16(a5)
 6ae:	3f95                	jal	622 <RVMSIS_FLASH_Lock>
 6b0:	0001                	nop
 6b2:	40f2                	lw	ra,28(sp)
 6b4:	4462                	lw	s0,24(sp)
 6b6:	6105                	addi	sp,sp,32
 6b8:	8082                	ret

000006ba <RVMSIS_FLASH_Page_write>:
 6ba:	7179                	addi	sp,sp,-48
 6bc:	d606                	sw	ra,44(sp)
 6be:	d422                	sw	s0,40(sp)
 6c0:	1800                	addi	s0,sp,48
 6c2:	fca42e23          	sw	a0,-36(s0)
 6c6:	fcb42c23          	sw	a1,-40(s0)
 6ca:	87b2                	mv	a5,a2
 6cc:	fcf41b23          	sh	a5,-42(s0)
 6d0:	fd645783          	lhu	a5,-42(s0)
 6d4:	8b85                	andi	a5,a5,1
 6d6:	07c2                	slli	a5,a5,0x10
 6d8:	83c1                	srli	a5,a5,0x10
 6da:	c3dd                	beqz	a5,780 <RVMSIS_FLASH_Page_write+0xc6>
 6dc:	fd645783          	lhu	a5,-42(s0)
 6e0:	8385                	srli	a5,a5,0x1
 6e2:	fcf41b23          	sh	a5,-42(s0)
 6e6:	fdc42783          	lw	a5,-36(s0)
 6ea:	07c2                	slli	a5,a5,0x10
 6ec:	83c1                	srli	a5,a5,0x10
 6ee:	853e                	mv	a0,a5
 6f0:	3f81                	jal	640 <RVMSIS_FLASH_Page_erase>
 6f2:	400227b7          	lui	a5,0x40022
 6f6:	4b9c                	lw	a5,16(a5)
 6f8:	0807f793          	andi	a5,a5,128
 6fc:	c391                	beqz	a5,700 <RVMSIS_FLASH_Page_write+0x46>
 6fe:	3ded                	jal	5f8 <RVMSIS_FLASH_Unlock>
 700:	400227b7          	lui	a5,0x40022
 704:	4b98                	lw	a4,16(a5)
 706:	400227b7          	lui	a5,0x40022
 70a:	00176713          	ori	a4,a4,1
 70e:	cb98                	sw	a4,16(a5)
 710:	fe042623          	sw	zero,-20(s0)
 714:	a81d                	j	74a <RVMSIS_FLASH_Page_write+0x90>
 716:	fec42783          	lw	a5,-20(s0)
 71a:	0786                	slli	a5,a5,0x1
 71c:	fd842703          	lw	a4,-40(s0)
 720:	97ba                	add	a5,a5,a4
 722:	fec42703          	lw	a4,-20(s0)
 726:	0706                	slli	a4,a4,0x1
 728:	86ba                	mv	a3,a4
 72a:	fdc42703          	lw	a4,-36(s0)
 72e:	9736                	add	a4,a4,a3
 730:	239e                	lhu	a5,0(a5)
 732:	a31e                	sh	a5,0(a4)
 734:	0001                	nop
 736:	400227b7          	lui	a5,0x40022
 73a:	47dc                	lw	a5,12(a5)
 73c:	8b85                	andi	a5,a5,1
 73e:	ffe5                	bnez	a5,736 <RVMSIS_FLASH_Page_write+0x7c>
 740:	fec42783          	lw	a5,-20(s0)
 744:	0785                	addi	a5,a5,1
 746:	fef42623          	sw	a5,-20(s0)
 74a:	fd645783          	lhu	a5,-42(s0)
 74e:	fec42703          	lw	a4,-20(s0)
 752:	fcf742e3          	blt	a4,a5,716 <RVMSIS_FLASH_Page_write+0x5c>
 756:	fd645783          	lhu	a5,-42(s0)
 75a:	0786                	slli	a5,a5,0x1
 75c:	873e                	mv	a4,a5
 75e:	fd842783          	lw	a5,-40(s0)
 762:	97ba                	add	a5,a5,a4
 764:	2394                	lbu	a3,0(a5)
 766:	fd645783          	lhu	a5,-42(s0)
 76a:	0786                	slli	a5,a5,0x1
 76c:	873e                	mv	a4,a5
 76e:	fdc42783          	lw	a5,-36(s0)
 772:	97ba                	add	a5,a5,a4
 774:	873e                	mv	a4,a5
 776:	01069793          	slli	a5,a3,0x10
 77a:	83c1                	srli	a5,a5,0x10
 77c:	a31e                	sh	a5,0(a4)
 77e:	a8b5                	j	7fa <RVMSIS_FLASH_Page_write+0x140>
 780:	fd645783          	lhu	a5,-42(s0)
 784:	8385                	srli	a5,a5,0x1
 786:	fcf41b23          	sh	a5,-42(s0)
 78a:	fdc42783          	lw	a5,-36(s0)
 78e:	07c2                	slli	a5,a5,0x10
 790:	83c1                	srli	a5,a5,0x10
 792:	853e                	mv	a0,a5
 794:	3575                	jal	640 <RVMSIS_FLASH_Page_erase>
 796:	400227b7          	lui	a5,0x40022
 79a:	4b9c                	lw	a5,16(a5)
 79c:	0807f793          	andi	a5,a5,128
 7a0:	c391                	beqz	a5,7a4 <RVMSIS_FLASH_Page_write+0xea>
 7a2:	3d99                	jal	5f8 <RVMSIS_FLASH_Unlock>
 7a4:	400227b7          	lui	a5,0x40022
 7a8:	4b98                	lw	a4,16(a5)
 7aa:	400227b7          	lui	a5,0x40022
 7ae:	00176713          	ori	a4,a4,1
 7b2:	cb98                	sw	a4,16(a5)
 7b4:	fe042423          	sw	zero,-24(s0)
 7b8:	a81d                	j	7ee <RVMSIS_FLASH_Page_write+0x134>
 7ba:	fe842783          	lw	a5,-24(s0)
 7be:	0786                	slli	a5,a5,0x1
 7c0:	fd842703          	lw	a4,-40(s0)
 7c4:	97ba                	add	a5,a5,a4
 7c6:	fe842703          	lw	a4,-24(s0)
 7ca:	0706                	slli	a4,a4,0x1
 7cc:	86ba                	mv	a3,a4
 7ce:	fdc42703          	lw	a4,-36(s0)
 7d2:	9736                	add	a4,a4,a3
 7d4:	239e                	lhu	a5,0(a5)
 7d6:	a31e                	sh	a5,0(a4)
 7d8:	0001                	nop
 7da:	400227b7          	lui	a5,0x40022
 7de:	47dc                	lw	a5,12(a5)
 7e0:	8b85                	andi	a5,a5,1
 7e2:	ffe5                	bnez	a5,7da <RVMSIS_FLASH_Page_write+0x120>
 7e4:	fe842783          	lw	a5,-24(s0)
 7e8:	0785                	addi	a5,a5,1
 7ea:	fef42423          	sw	a5,-24(s0)
 7ee:	fd645783          	lhu	a5,-42(s0)
 7f2:	fe842703          	lw	a4,-24(s0)
 7f6:	fcf742e3          	blt	a4,a5,7ba <RVMSIS_FLASH_Page_write+0x100>
 7fa:	0001                	nop
 7fc:	400227b7          	lui	a5,0x40022
 800:	47dc                	lw	a5,12(a5)
 802:	8b85                	andi	a5,a5,1
 804:	ffe5                	bnez	a5,7fc <RVMSIS_FLASH_Page_write+0x142>
 806:	0001                	nop
 808:	400227b7          	lui	a5,0x40022
 80c:	47dc                	lw	a5,12(a5)
 80e:	0207f793          	andi	a5,a5,32
 812:	dbfd                	beqz	a5,808 <RVMSIS_FLASH_Page_write+0x14e>
 814:	400227b7          	lui	a5,0x40022
 818:	4b98                	lw	a4,16(a5)
 81a:	400227b7          	lui	a5,0x40022
 81e:	9b79                	andi	a4,a4,-2
 820:	cb98                	sw	a4,16(a5)
 822:	3501                	jal	622 <RVMSIS_FLASH_Lock>
 824:	0001                	nop
 826:	50b2                	lw	ra,44(sp)
 828:	5422                	lw	s0,40(sp)
 82a:	6145                	addi	sp,sp,48
 82c:	8082                	ret

0000082e <RVMSIS_FLASH_Read_data>:
 82e:	7179                	addi	sp,sp,-48
 830:	d622                	sw	s0,44(sp)
 832:	1800                	addi	s0,sp,48
 834:	fca42e23          	sw	a0,-36(s0)
 838:	fcb42c23          	sw	a1,-40(s0)
 83c:	87b2                	mv	a5,a2
 83e:	fcf41b23          	sh	a5,-42(s0)
 842:	fd645783          	lhu	a5,-42(s0)
 846:	8b85                	andi	a5,a5,1
 848:	07c2                	slli	a5,a5,0x10
 84a:	83c1                	srli	a5,a5,0x10
 84c:	c7bd                	beqz	a5,8ba <RVMSIS_FLASH_Read_data+0x8c>
 84e:	fd645783          	lhu	a5,-42(s0)
 852:	8385                	srli	a5,a5,0x1
 854:	fcf41b23          	sh	a5,-42(s0)
 858:	fe041723          	sh	zero,-18(s0)
 85c:	a035                	j	888 <RVMSIS_FLASH_Read_data+0x5a>
 85e:	fee45783          	lhu	a5,-18(s0)
 862:	0786                	slli	a5,a5,0x1
 864:	873e                	mv	a4,a5
 866:	fdc42783          	lw	a5,-36(s0)
 86a:	97ba                	add	a5,a5,a4
 86c:	86be                	mv	a3,a5
 86e:	fee45783          	lhu	a5,-18(s0)
 872:	0786                	slli	a5,a5,0x1
 874:	fd842703          	lw	a4,-40(s0)
 878:	97ba                	add	a5,a5,a4
 87a:	229a                	lhu	a4,0(a3)
 87c:	a39a                	sh	a4,0(a5)
 87e:	fee45783          	lhu	a5,-18(s0)
 882:	0785                	addi	a5,a5,1
 884:	fef41723          	sh	a5,-18(s0)
 888:	fee45703          	lhu	a4,-18(s0)
 88c:	fd645783          	lhu	a5,-42(s0)
 890:	fcf767e3          	bltu	a4,a5,85e <RVMSIS_FLASH_Read_data+0x30>
 894:	fd645783          	lhu	a5,-42(s0)
 898:	0786                	slli	a5,a5,0x1
 89a:	873e                	mv	a4,a5
 89c:	fdc42783          	lw	a5,-36(s0)
 8a0:	97ba                	add	a5,a5,a4
 8a2:	239a                	lhu	a4,0(a5)
 8a4:	fd645783          	lhu	a5,-42(s0)
 8a8:	0786                	slli	a5,a5,0x1
 8aa:	86be                	mv	a3,a5
 8ac:	fd842783          	lw	a5,-40(s0)
 8b0:	97b6                	add	a5,a5,a3
 8b2:	0ff77713          	andi	a4,a4,255
 8b6:	a398                	sb	a4,0(a5)
 8b8:	a0a1                	j	900 <RVMSIS_FLASH_Read_data+0xd2>
 8ba:	fd645783          	lhu	a5,-42(s0)
 8be:	8385                	srli	a5,a5,0x1
 8c0:	fcf41b23          	sh	a5,-42(s0)
 8c4:	fe041623          	sh	zero,-20(s0)
 8c8:	a035                	j	8f4 <RVMSIS_FLASH_Read_data+0xc6>
 8ca:	fec45783          	lhu	a5,-20(s0)
 8ce:	0786                	slli	a5,a5,0x1
 8d0:	873e                	mv	a4,a5
 8d2:	fdc42783          	lw	a5,-36(s0)
 8d6:	97ba                	add	a5,a5,a4
 8d8:	86be                	mv	a3,a5
 8da:	fec45783          	lhu	a5,-20(s0)
 8de:	0786                	slli	a5,a5,0x1
 8e0:	fd842703          	lw	a4,-40(s0)
 8e4:	97ba                	add	a5,a5,a4
 8e6:	229a                	lhu	a4,0(a3)
 8e8:	a39a                	sh	a4,0(a5)
 8ea:	fec45783          	lhu	a5,-20(s0)
 8ee:	0785                	addi	a5,a5,1
 8f0:	fef41623          	sh	a5,-20(s0)
 8f4:	fec45703          	lhu	a4,-20(s0)
 8f8:	fd645783          	lhu	a5,-42(s0)
 8fc:	fcf767e3          	bltu	a4,a5,8ca <RVMSIS_FLASH_Read_data+0x9c>
 900:	0001                	nop
 902:	5432                	lw	s0,44(sp)
 904:	6145                	addi	sp,sp,48
 906:	8082                	ret

00000908 <main>:
 908:	1141                	addi	sp,sp,-16
 90a:	c606                	sw	ra,12(sp)
 90c:	c422                	sw	s0,8(sp)
 90e:	0800                	addi	s0,sp,16
 910:	3ab1                	jal	26c <RVMSIS_Debug_init>
 912:	32e9                	jal	2dc <RVMSIS_RCC_SystemClock_144MHz>
 914:	36ad                	jal	47e <RVMSIS_SysTick_Timer_init>
 916:	3951                	jal	5aa <RVMSIS_PC13_OUTPUT_Push_Pull_init>
 918:	200007b7          	lui	a5,0x20000
 91c:	577d                	li	a4,-1
 91e:	00e78623          	sb	a4,12(a5) # 2000000c <Flash_data_CH32>
 922:	200007b7          	lui	a5,0x20000
 926:	00d7c703          	lbu	a4,13(a5) # 2000000d <Flash_data_CH32+0x1>
 92a:	8b01                	andi	a4,a4,0
 92c:	06776713          	ori	a4,a4,103
 930:	00e786a3          	sb	a4,13(a5)
 934:	00e7c703          	lbu	a4,14(a5)
 938:	8b01                	andi	a4,a4,0
 93a:	04576713          	ori	a4,a4,69
 93e:	00e78723          	sb	a4,14(a5)
 942:	200007b7          	lui	a5,0x20000
 946:	00f7c703          	lbu	a4,15(a5) # 2000000f <Flash_data_CH32+0x3>
 94a:	8b01                	andi	a4,a4,0
 94c:	01276713          	ori	a4,a4,18
 950:	00e787a3          	sb	a4,15(a5)
 954:	8101c703          	lbu	a4,-2032(gp) # 20000010 <Flash_data_CH32+0x4>
 958:	8b01                	andi	a4,a4,0
 95a:	01176713          	ori	a4,a4,17
 95e:	80e18823          	sb	a4,-2032(gp) # 20000010 <Flash_data_CH32+0x4>
 962:	8111c703          	lbu	a4,-2031(gp) # 20000011 <Flash_data_CH32+0x5>
 966:	8b01                	andi	a4,a4,0
 968:	01076713          	ori	a4,a4,16
 96c:	80e188a3          	sb	a4,-2031(gp) # 20000011 <Flash_data_CH32+0x5>
 970:	8121c703          	lbu	a4,-2030(gp) # 20000012 <Flash_data_CH32+0x6>
 974:	8b01                	andi	a4,a4,0
 976:	f8976713          	ori	a4,a4,-119
 97a:	80e18923          	sb	a4,-2030(gp) # 20000012 <Flash_data_CH32+0x6>
 97e:	200007b7          	lui	a5,0x20000
 982:	00c78793          	addi	a5,a5,12 # 2000000c <Flash_data_CH32>
 986:	6705                	lui	a4,0x1
 988:	bb472703          	lw	a4,-1100(a4) # bb4 <SetSysClockTo96_HSE+0x114>
 98c:	0ff77593          	andi	a1,a4,255
 990:	33f4                	lbu	a3,7(a5)
 992:	8a81                	andi	a3,a3,0
 994:	8636                	mv	a2,a3
 996:	86ae                	mv	a3,a1
 998:	8ed1                	or	a3,a3,a2
 99a:	b3f4                	sb	a3,7(a5)
 99c:	00875693          	srli	a3,a4,0x8
 9a0:	0ff6f593          	andi	a1,a3,255
 9a4:	2794                	lbu	a3,8(a5)
 9a6:	8a81                	andi	a3,a3,0
 9a8:	8636                	mv	a2,a3
 9aa:	86ae                	mv	a3,a1
 9ac:	8ed1                	or	a3,a3,a2
 9ae:	a794                	sb	a3,8(a5)
 9b0:	01075693          	srli	a3,a4,0x10
 9b4:	0ff6f593          	andi	a1,a3,255
 9b8:	3794                	lbu	a3,9(a5)
 9ba:	8a81                	andi	a3,a3,0
 9bc:	8636                	mv	a2,a3
 9be:	86ae                	mv	a3,a1
 9c0:	8ed1                	or	a3,a3,a2
 9c2:	b794                	sb	a3,9(a5)
 9c4:	01875613          	srli	a2,a4,0x18
 9c8:	27b8                	lbu	a4,10(a5)
 9ca:	8b01                	andi	a4,a4,0
 9cc:	86ba                	mv	a3,a4
 9ce:	8732                	mv	a4,a2
 9d0:	8f55                	or	a4,a4,a3
 9d2:	a7b8                	sb	a4,10(a5)
 9d4:	462d                	li	a2,11
 9d6:	200007b7          	lui	a5,0x20000
 9da:	00c78593          	addi	a1,a5,12 # 2000000c <Flash_data_CH32>
 9de:	0800f537          	lui	a0,0x800f
 9e2:	39e1                	jal	6ba <RVMSIS_FLASH_Page_write>
 9e4:	462d                	li	a2,11
 9e6:	81818593          	addi	a1,gp,-2024 # 20000018 <Flash_data_CH32_read>
 9ea:	0800f537          	lui	a0,0x800f
 9ee:	3581                	jal	82e <RVMSIS_FLASH_Read_data>
 9f0:	400117b7          	lui	a5,0x40011
 9f4:	6709                	lui	a4,0x2
 9f6:	cb98                	sw	a4,16(a5)
 9f8:	3e800513          	li	a0,1000
 9fc:	3651                	jal	580 <Delay_ms>
 9fe:	400117b7          	lui	a5,0x40011
 a02:	20000737          	lui	a4,0x20000
 a06:	cb98                	sw	a4,16(a5)
 a08:	3e800513          	li	a0,1000
 a0c:	3e95                	jal	580 <Delay_ms>
 a0e:	b7cd                	j	9f0 <main+0xe8>

00000a10 <SystemInit>:
 a10:	1141                	addi	sp,sp,-16
 a12:	c606                	sw	ra,12(sp)
 a14:	c422                	sw	s0,8(sp)
 a16:	0800                	addi	s0,sp,16
 a18:	400217b7          	lui	a5,0x40021
 a1c:	4398                	lw	a4,0(a5)
 a1e:	400217b7          	lui	a5,0x40021
 a22:	00176713          	ori	a4,a4,1
 a26:	c398                	sw	a4,0(a5)
 a28:	400217b7          	lui	a5,0x40021
 a2c:	43d4                	lw	a3,4(a5)
 a2e:	400217b7          	lui	a5,0x40021
 a32:	f8ff0737          	lui	a4,0xf8ff0
 a36:	8f75                	and	a4,a4,a3
 a38:	c3d8                	sw	a4,4(a5)
 a3a:	400217b7          	lui	a5,0x40021
 a3e:	4394                	lw	a3,0(a5)
 a40:	400217b7          	lui	a5,0x40021
 a44:	fef70737          	lui	a4,0xfef70
 a48:	177d                	addi	a4,a4,-1
 a4a:	8f75                	and	a4,a4,a3
 a4c:	c398                	sw	a4,0(a5)
 a4e:	400217b7          	lui	a5,0x40021
 a52:	4394                	lw	a3,0(a5)
 a54:	400217b7          	lui	a5,0x40021
 a58:	fffc0737          	lui	a4,0xfffc0
 a5c:	177d                	addi	a4,a4,-1
 a5e:	8f75                	and	a4,a4,a3
 a60:	c398                	sw	a4,0(a5)
 a62:	400217b7          	lui	a5,0x40021
 a66:	43d4                	lw	a3,4(a5)
 a68:	400217b7          	lui	a5,0x40021
 a6c:	ff810737          	lui	a4,0xff810
 a70:	177d                	addi	a4,a4,-1
 a72:	8f75                	and	a4,a4,a3
 a74:	c3d8                	sw	a4,4(a5)
 a76:	400217b7          	lui	a5,0x40021
 a7a:	009f0737          	lui	a4,0x9f0
 a7e:	c798                	sw	a4,8(a5)
 a80:	2031                	jal	a8c <SetSysClock>
 a82:	0001                	nop
 a84:	40b2                	lw	ra,12(sp)
 a86:	4422                	lw	s0,8(sp)
 a88:	0141                	addi	sp,sp,16
 a8a:	8082                	ret

00000a8c <SetSysClock>:
 a8c:	1141                	addi	sp,sp,-16
 a8e:	c606                	sw	ra,12(sp)
 a90:	c422                	sw	s0,8(sp)
 a92:	0800                	addi	s0,sp,16
 a94:	2031                	jal	aa0 <SetSysClockTo96_HSE>
 a96:	0001                	nop
 a98:	40b2                	lw	ra,12(sp)
 a9a:	4422                	lw	s0,8(sp)
 a9c:	0141                	addi	sp,sp,16
 a9e:	8082                	ret

00000aa0 <SetSysClockTo96_HSE>:
 aa0:	1101                	addi	sp,sp,-32
 aa2:	ce22                	sw	s0,28(sp)
 aa4:	1000                	addi	s0,sp,32
 aa6:	fe042623          	sw	zero,-20(s0)
 aaa:	fe042423          	sw	zero,-24(s0)
 aae:	400217b7          	lui	a5,0x40021
 ab2:	4394                	lw	a3,0(a5)
 ab4:	400217b7          	lui	a5,0x40021
 ab8:	6741                	lui	a4,0x10
 aba:	8f55                	or	a4,a4,a3
 abc:	c398                	sw	a4,0(a5)
 abe:	400217b7          	lui	a5,0x40021
 ac2:	4398                	lw	a4,0(a5)
 ac4:	000207b7          	lui	a5,0x20
 ac8:	8ff9                	and	a5,a5,a4
 aca:	fef42423          	sw	a5,-24(s0)
 ace:	fec42783          	lw	a5,-20(s0)
 ad2:	0785                	addi	a5,a5,1
 ad4:	fef42623          	sw	a5,-20(s0)
 ad8:	fe842783          	lw	a5,-24(s0)
 adc:	e791                	bnez	a5,ae8 <SetSysClockTo96_HSE+0x48>
 ade:	fec42703          	lw	a4,-20(s0)
 ae2:	6785                	lui	a5,0x1
 ae4:	fcf71de3          	bne	a4,a5,abe <SetSysClockTo96_HSE+0x1e>
 ae8:	400217b7          	lui	a5,0x40021
 aec:	4398                	lw	a4,0(a5)
 aee:	000207b7          	lui	a5,0x20
 af2:	8ff9                	and	a5,a5,a4
 af4:	c789                	beqz	a5,afe <SetSysClockTo96_HSE+0x5e>
 af6:	4785                	li	a5,1
 af8:	fef42423          	sw	a5,-24(s0)
 afc:	a019                	j	b02 <SetSysClockTo96_HSE+0x62>
 afe:	fe042423          	sw	zero,-24(s0)
 b02:	fe842703          	lw	a4,-24(s0)
 b06:	4785                	li	a5,1
 b08:	0af71263          	bne	a4,a5,bac <SetSysClockTo96_HSE+0x10c>
 b0c:	40021737          	lui	a4,0x40021
 b10:	400217b7          	lui	a5,0x40021
 b14:	4358                	lw	a4,4(a4)
 b16:	c3d8                	sw	a4,4(a5)
 b18:	40021737          	lui	a4,0x40021
 b1c:	400217b7          	lui	a5,0x40021
 b20:	4358                	lw	a4,4(a4)
 b22:	c3d8                	sw	a4,4(a5)
 b24:	400217b7          	lui	a5,0x40021
 b28:	43d8                	lw	a4,4(a5)
 b2a:	400217b7          	lui	a5,0x40021
 b2e:	40076713          	ori	a4,a4,1024
 b32:	c3d8                	sw	a4,4(a5)
 b34:	400217b7          	lui	a5,0x40021
 b38:	43d4                	lw	a3,4(a5)
 b3a:	400217b7          	lui	a5,0x40021
 b3e:	ffc10737          	lui	a4,0xffc10
 b42:	177d                	addi	a4,a4,-1
 b44:	8f75                	and	a4,a4,a3
 b46:	c3d8                	sw	a4,4(a5)
 b48:	400217b7          	lui	a5,0x40021
 b4c:	43d4                	lw	a3,4(a5)
 b4e:	400217b7          	lui	a5,0x40021
 b52:	00290737          	lui	a4,0x290
 b56:	8f55                	or	a4,a4,a3
 b58:	c3d8                	sw	a4,4(a5)
 b5a:	400217b7          	lui	a5,0x40021
 b5e:	4394                	lw	a3,0(a5)
 b60:	400217b7          	lui	a5,0x40021
 b64:	01000737          	lui	a4,0x1000
 b68:	8f55                	or	a4,a4,a3
 b6a:	c398                	sw	a4,0(a5)
 b6c:	0001                	nop
 b6e:	400217b7          	lui	a5,0x40021
 b72:	4398                	lw	a4,0(a5)
 b74:	020007b7          	lui	a5,0x2000
 b78:	8ff9                	and	a5,a5,a4
 b7a:	dbf5                	beqz	a5,b6e <SetSysClockTo96_HSE+0xce>
 b7c:	400217b7          	lui	a5,0x40021
 b80:	43d8                	lw	a4,4(a5)
 b82:	400217b7          	lui	a5,0x40021
 b86:	9b71                	andi	a4,a4,-4
 b88:	c3d8                	sw	a4,4(a5)
 b8a:	400217b7          	lui	a5,0x40021
 b8e:	43d8                	lw	a4,4(a5)
 b90:	400217b7          	lui	a5,0x40021
 b94:	00276713          	ori	a4,a4,2
 b98:	c3d8                	sw	a4,4(a5)
 b9a:	0001                	nop
 b9c:	400217b7          	lui	a5,0x40021
 ba0:	43dc                	lw	a5,4(a5)
 ba2:	00c7f713          	andi	a4,a5,12
 ba6:	47a1                	li	a5,8
 ba8:	fef71ae3          	bne	a4,a5,b9c <SetSysClockTo96_HSE+0xfc>
 bac:	0001                	nop
 bae:	4472                	lw	s0,28(sp)
 bb0:	6105                	addi	sp,sp,32
 bb2:	8082                	ret
 bb4:	0fd0                	addi	a2,sp,980
 bb6:	4049                	c.li	zero,18
