
Test_project_CH32V203C8T6.elf:     file format elf32-littleriscv
Test_project_CH32V203C8T6.elf
architecture: riscv:rv32, flags 0x00000112:
EXEC_P, HAS_SYMS, D_PAGED
start address 0x00000000

Program Header:
    LOAD off    0x00001000 vaddr 0x00000000 paddr 0x00000000 align 2**12
         filesz 0x00006e08 memsz 0x00006e08 flags r-x
    LOAD off    0x00008000 vaddr 0x20000000 paddr 0x00006e08 align 2**12
         filesz 0x00000140 memsz 0x0000084c flags rw-
    LOAD off    0x00008e00 vaddr 0x20004e00 paddr 0x20004e00 align 2**12
         filesz 0x00000000 memsz 0x00000200 flags rw-

Sections:
Idx Name          Size      VMA       LMA       File off  Algn
  0 .init         00000038  00000000  00000000  00001000  2**1
                  CONTENTS, ALLOC, LOAD, READONLY, CODE
  1 .vector       00000108  00000038  00000038  00001038  2**1
                  CONTENTS, ALLOC, LOAD, READONLY, CODE
  2 .text         00006cc8  00000140  00000140  00001140  2**2
                  CONTENTS, ALLOC, LOAD, READONLY, CODE
  3 .fini         00000000  00006e08  00006e08  00008140  2**0
                  CONTENTS, ALLOC, LOAD, CODE
  4 .dalign       00000000  20000000  20000000  00008140  2**0
                  CONTENTS
  5 .dlalign      00000000  00006e08  00006e08  00008140  2**0
                  CONTENTS
  6 .data         00000140  20000000  00006e08  00008000  2**2
                  CONTENTS, ALLOC, LOAD, DATA
  7 .bss          0000070c  20000140  00006f48  00008140  2**2
                  ALLOC
  8 .stack        00000200  20004e00  20004e00  00008e00  2**0
                  ALLOC
  9 .debug_info   00007f38  00000000  00000000  00008140  2**0
                  CONTENTS, READONLY, DEBUGGING
 10 .debug_abbrev 000012d4  00000000  00000000  00010078  2**0
                  CONTENTS, READONLY, DEBUGGING
 11 .debug_aranges 00000420  00000000  00000000  00011350  2**3
                  CONTENTS, READONLY, DEBUGGING
 12 .debug_ranges 000003b0  00000000  00000000  00011770  2**3
                  CONTENTS, READONLY, DEBUGGING
 13 .debug_macro  0000b7e7  00000000  00000000  00011b20  2**0
                  CONTENTS, READONLY, DEBUGGING
 14 .debug_line   00007967  00000000  00000000  0001d307  2**0
                  CONTENTS, READONLY, DEBUGGING
 15 .debug_str    00033d4a  00000000  00000000  00024c6e  2**0
                  CONTENTS, READONLY, DEBUGGING
 16 .comment      00000033  00000000  00000000  000589b8  2**0
                  CONTENTS, READONLY
 17 .debug_frame  0000161c  00000000  00000000  000589ec  2**2
                  CONTENTS, READONLY, DEBUGGING
SYMBOL TABLE:
00000000 l    d  .init	00000000 .init
00000038 l    d  .vector	00000000 .vector
00000140 l    d  .text	00000000 .text
00006e08 l    d  .fini	00000000 .fini
20000000 l    d  .dalign	00000000 .dalign
00006e08 l    d  .dlalign	00000000 .dlalign
20000000 l    d  .data	00000000 .data
20000140 l    d  .bss	00000000 .bss
20004e00 l    d  .stack	00000000 .stack
00000000 l    d  .debug_info	00000000 .debug_info
00000000 l    d  .debug_abbrev	00000000 .debug_abbrev
00000000 l    d  .debug_aranges	00000000 .debug_aranges
00000000 l    d  .debug_ranges	00000000 .debug_ranges
00000000 l    d  .debug_macro	00000000 .debug_macro
00000000 l    d  .debug_line	00000000 .debug_line
00000000 l    d  .debug_str	00000000 .debug_str
00000000 l    d  .comment	00000000 .comment
00000000 l    d  .debug_frame	00000000 .debug_frame
00000000 l    df *ABS*	00000000 ./Core/Startup/startup_ch32v20x_D6.o
00000038 l       .vector	00000000 _vector_base
00000000 l    df *ABS*	00000000 GMG12864_lib.c
00000344 l     F .text	00000046 GMG12864_Send_command
0000038a l     F .text	0000002c GMG12864_Send_data
00000000 l    df *ABS*	00000000 Float_transform.c
00000000 l    df *ABS*	00000000 HDC1080.c
00000000 l    df *ABS*	00000000 SoftwareTimer.c
00000000 l    df *ABS*	00000000 ch32v203xx_it.c
00000000 l    df *ABS*	00000000 ch32v20x_RVMSIS.c
0000203c l     F .text	00000032 NVIC_EnableIRQ
0000206e l     F .text	00000040 NVIC_SetPriority
00002374 l     F .text	000000ae RVMSIS_GPIO_MODE_Set
00002422 l     F .text	000000b8 RVMSIS_GPIO_SPEED_Set
000024da l     F .text	00000096 RVMSIS_GPIO_CNF_Set
00002570 l     F .text	00000178 RVMSIS_GPIO_Reg_Set
00000000 l    df *ABS*	00000000 main.c
00000000 l    df *ABS*	00000000 Buttons.c
00000000 l    df *ABS*	00000000 addsf3.c
00000000 l    df *ABS*	00000000 divsf3.c
00000000 l    df *ABS*	00000000 gesf2.c
00000000 l    df *ABS*	00000000 lesf2.c
00000000 l    df *ABS*	00000000 mulsf3.c
00000000 l    df *ABS*	00000000 subsf3.c
00000000 l    df *ABS*	00000000 fixsfsi.c
00000000 l    df *ABS*	00000000 fixunssfsi.c
00000000 l    df *ABS*	00000000 floatsisf.c
00000000 l    df *ABS*	00000000 floatunsisf.c
00000000 l    df *ABS*	00000000 libgcc2.c
00000000 l    df *ABS*	00000000 sprintf.c
00000000 l    df *ABS*	00000000 strlen.c
00000000 l    df *ABS*	00000000 nano-vfprintf.c
00000000 l    df *ABS*	00000000 nano-vfprintf_i.c
00000000 l    df *ABS*	00000000 memchr.c
00000000 l    df *ABS*	00000000 memcpy.c
00000000 l    df *ABS*	00000000 memmove.c
00000000 l    df *ABS*	00000000 nano-mallocr.c
00000000 l    df *ABS*	00000000 nano-mallocr.c
00000000 l    df *ABS*	00000000 nano-mallocr.c
00000000 l    df *ABS*	00000000 sbrkr.c
00000000 l    df *ABS*	00000000 mlock.c
00000000 l    df *ABS*	00000000 nano-mallocr.c
00000000 l    df *ABS*	00000000 sbrk.c
200001a8 l     O .bss	00000004 heap_end.1518
00000000 l    df *ABS*	00000000 libgcc2.c
00000000 l    df *ABS*	00000000 impure.c
200000cc l     O .data	00000060 impure_data
00000000 l    df *ABS*	00000000 reent.c
000063e4 g     F .text	00000014 _malloc_usable_size_r
00001a8e  w      .text	00000000 EXTI2_IRQHandler
20000131 g     O .data	00000001 GMG12864_height
000044e6 g     F .text	000000c4 Button0_Callback
20000174 g     O .bss	00000001 y_min
20000144 g     O .bss	00000004 integer_number
2000062c g     O .bss	00000064 arr
2000015c g     O .bss	00000004 Delay_counter_ms
20000930 g       .data	00000000 __global_pointer$
000045aa g     F .text	000000cc Button1_Callback
20000168 g     O .bss	00000004 I2C1_Polling_Timer
20000134 g     O .data	00000004 Backlight
00001ab4  w      .text	00000000 TIM1_CC_IRQHandler
00001a72  w      .text	00000000 HardFault_Handler
20000160 g     O .bss	00000004 Timeout_counter_ms
000022b8 g     F .text	0000009a RVMSIS_SysTick_Timer_init
000063e2 g     F .text	00000002 __malloc_unlock
00004d04 g     F .text	000002b2 .hidden __divsf3
20000141 g     O .bss	00000001 array_is_full
00001c30 g     F .text	000000d0 SysTick_Handler
00003cc4 g     F .text	0000006c RVMSIS_FLASH_Page_erase
00003c7c g     F .text	0000002a RVMSIS_FLASH_Unlock
00001a80  w      .text	00000000 PVD_IRQHandler
000061a8 g     F .text	00000046 memmove
00001a70  w      .text	00000000 NMI_Handler
000056e0 g     F .text	00000062 .hidden __fixsfsi
00001a90  w      .text	00000000 EXTI3_IRQHandler
00003e96 g     F .text	000000da RVMSIS_FLASH_Read_data
0000066c g     F .text	000001fc GMG12864_Print_symbol_5x7
00001a7c  w      .text	00000000 SW_handler
20000180 g     O .bss	00000004 TIMER_wait_before_write_flash
20000848 g     O .bss	00000004 errno
20000140 g       .bss	00000000 _sbss
00000200 g       *ABS*	00000000 __stack_size
20000150 g     O .bss	00000004 Temperature
00005358 g     F .text	00000388 .hidden __subsf3
000018dc g     F .text	00000128 Float_transform
0000400e g     F .text	000000e0 Flash_init
00003b96 g     F .text	000000e6 RVMSIS_SPI_Data_Transmit_8BIT
000060f6 g     F .text	000000b2 memcpy
20000198 g     O .bss	00000003 Button2
00005ace g     F .text	00000262 _svfprintf_r
00001a8a  w      .text	00000000 EXTI0_IRQHandler
00001ac0  w      .text	00000000 I2C2_EV_IRQHandler
20000000 g     O .data	000000ca Curves_exp
00000038 g       .init	00000000 _einit
0000503c g     F .text	0000008c .hidden __lesf2
00002844 g     F .text	000001c4 RVMSIS_TIM1_init
20000140 g     O .bss	00000001 cnt
00002b6a g     F .text	00000182 RVMSIS_TIM3_init
00001aa2  w      .text	00000000 ADC1_2_IRQHandler
0000177a g     F .text	00000162 GMG12864_Draw_line
00001a78  w      .text	00000000 Break_Point_Handler
00001ac4  w      .text	00000000 SPI1_IRQHandler
000063b8 g     F .text	00000028 _sbrk_r
00001a82  w      .text	00000000 TAMPER_IRQHandler
200006e4 g     O .bss	00000080 SMA_Filter_Buffer_Temperature
00001b5e g     F .text	00000082 HDC1080_init
000003b6 g     F .text	00000022 GMG12864_Clean_Frame_buffer
0000048e g     F .text	00000142 GMG12864_Draw_pixel
00001a74  w      .text	00000000 Ecall_M_Mode_Handler
000048aa g     F .text	0000005e ButtonsInit
00006360 g     F .text	00000058 _realloc_r
00001a9a  w      .text	00000000 DMA1_Channel4_IRQHandler
200007e4 g     O .bss	00000064 arr1
000063f8 g     F .text	00000020 _sbrk
00006584 g     O .text	000001e6 Font_3x5
00001e5c g     F .text	000000ae USART3_IRQHandler
00001a84  w      .text	00000000 RTC_IRQHandler
2000084c g       .bss	00000000 _ebss
00001aa0  w      .text	00000000 DMA1_Channel7_IRQHandler
000046be g     F .text	0000004c Button3_Callback
00001aa8  w      .text	00000000 CAN1_RX1_IRQHandler
20000690 g     O .bss	0000000a I2C1_rx_buffer
20000132 g     O .data	00000001 y_max
00000868 g     F .text	000001fc GMG12864_Print_symbol_3x5
00004fb6 g     F .text	00000086 .hidden __gtsf2
0000470a g     F .text	000000fe TIM4_IRQHandler
20000142 g     O .bss	00000001 sign_number
200001ac g     O .bss	00000080 tx_buffer
2000016c g     O .bss	00000004 Temperature_SMA
20000164 g     O .bss	00000001 Task1
2000084c g       .bss	00000000 end
00001abc  w      .text	00000000 I2C1_EV_IRQHandler
000059f0 g     F .text	000000de __ssputs_r
00001ad4  w      .text	00000000 USBHD_IRQHandler
200006cc g     O .bss	00000018 husart3
00006a98 g     O .text	00000171 solderingiron
00001a9e  w      .text	00000000 DMA1_Channel6_IRQHandler
0000592c g     F .text	0000006e .hidden __clzsi2
00001ad8  w      .text	00000000 UART4_IRQHandler
2000013c g     O .data	00000001 size_array
000060de g     F .text	00000018 memchr
000061ee g     F .text	000000a4 _free_r
00001f0a g     F .text	00000132 TIM3_IRQHandler
00001a88  w      .text	00000000 RCC_IRQHandler
000026e8 g     F .text	0000015c RVMSIS_GPIO_init
00001ab2  w      .text	00000000 TIM1_TRG_COM_IRQHandler
00001a94  w      .text	00000000 DMA1_Channel1_IRQHandler
00000000 g       .init	00000000 _start
00005798 g     F .text	000000c6 .hidden __floatsisf
00001ace  w      .text	00000000 EXTI15_10_IRQHandler
00002cec g     F .text	0000018e RVMSIS_TIM4_init
20000188 g     O .bss	00000005 Flash_data
20000133 g     O .data	00000001 y_max1
00001ada  w      .text	00000000 DMA1_Channel8_IRQHandler
000010aa g     F .text	0000016a GMG12864_Fill_the_array_Plot
00003f70 g     F .text	0000009e GPIO_Initialization
20000000 g       .dalign	00000000 _data_vma
00000f36 g     F .text	00000174 GMG12864_Value_for_Plot
00001aac  w      .text	00000000 EXTI9_5_IRQHandler
00000a64 g     F .text	000004d2 GMG12864_Decode_UTF8
00002352 g     F .text	00000022 Delay_ms
00003318 g     F .text	0000027a RVMSIS_I2C_Data_Transmit
000005d0 g     F .text	0000009c GMG12864_Update
00004676 g     F .text	00000048 Button2_Callback
000063e0 g     F .text	00000002 __malloc_lock
20000170 g     O .bss	00000004 Humidity_SMA
00001ac6  w      .text	00000000 SPI2_IRQHandler
00000140 g     F .text	000000a8 memset
00004808 g     F .text	000000a2 main
20000194 g     O .bss	00000003 Button1
0000503c g     F .text	0000008c .hidden __ltsf2
000020ae g     F .text	00000070 RVMSIS_Debug_init
00006292 g     F .text	000000ce _malloc_r
20000764 g     O .bss	00000080 SMA_Filter_Buffer_Humidity
00001a9c  w      .text	00000000 DMA1_Channel5_IRQHandler
00001a92  w      .text	00000000 EXTI4_IRQHandler
00001aa6  w      .text	00000000 USB_LP_CAN1_RX0_IRQHandler
000050c8 g     F .text	00000290 .hidden __mulsf3
00003864 g     F .text	00000332 RVMSIS_SPI1_init
20000184 g     O .bss	00000001 write_flash
00001c00 g     F .text	00000030 Software_timer_check
2000014c g     O .bss	00000004 I2C1_tx_buffer
2000022c g     O .bss	00000400 Frame_buffer
00001be0 g     F .text	00000020 Software_timer
00001aa4  w      .text	00000000 USB_HP_CAN1_TX_IRQHandler
0000599a g     F .text	00000044 sprintf
00006ccc g     O .text	00000100 .hidden __clz_tab
00000000 g       .init	00000000 _sinit
200006b4 g     O .bss	00000018 husart2
00001ad6  w      .text	00000000 USBHDWakeUp_IRQHandler
00001214 g     F .text	00000566 GMG12864_Generate_a_Graph
00004fb6 g     F .text	00000086 .hidden __gesf2
00001a98  w      .text	00000000 DMA1_Channel3_IRQHandler
00005d30 g     F .text	0000010c _printf_common
2000017c g     O .bss	00000004 GMG12864_Timer
20000138 g     O .data	00000004 _impure_ptr
20000176 g     O .bss	00000001 array_is_full_1
00001ab0  w      .text	00000000 TIM1_UP_IRQHandler
00005ace g     F .text	00000262 _svfiprintf_r
00001a7e  w      .text	00000000 WWDG_IRQHandler
00004908 g     F .text	00000092 ButtonAction
00001a76  w      .text	00000000 Ecall_U_Mode_Handler
20000179 g     O .bss	00000001 Task2
00001ab6  w      .text	00000000 TIM2_IRQHandler
20005000 g       .stack	00000000 _eusrstack
20000158 g     O .bss	00000004 SysTimer_ms
00001aae  w      .text	00000000 TIM1_BRK_IRQHandler
00001a8c  w      .text	00000000 EXTI1_IRQHandler
20000178 g     O .bss	00000001 Graph_number
20000140 g       .data	00000000 _edata
00003ca6 g     F .text	0000001e RVMSIS_FLASH_Lock
0000676c g     O .text	0000032a Font_5x7
20000130 g     O .data	00000001 GMG12864_width
00001ad0  w      .text	00000000 RTCAlarm_IRQHandler
000001e8 g     F .text	0000015c GMG12864_logo_demonstration
00006e08 g       .dlalign	00000000 _data_lma
000003d8 g     F .text	000000b6 GMG12864_Init
00001dae g     F .text	000000ae USART2_IRQHandler
20000190 g     O .bss	00000003 Button0
0000585e g     F .text	000000ce .hidden __floatunsisf
0000211e g     F .text	0000019a RVMSIS_RCC_SystemClock_144MHz
00001ac2  w      .text	00000000 I2C2_ER_IRQHandler
00002efe g     F .text	0000041a RVMSIS_I2C1_Init
00001a96  w      .text	00000000 DMA1_Channel2_IRQHandler
00002e7a g     F .text	00000084 RVMSIS_I2C_Reset
00002a08 g     F .text	00000162 RVMSIS_TIM1_PWM_CHANNEL1_init
0000599a g     F .text	00000044 siprintf
2000069c g     O .bss	00000018 husart1
00003d30 g     F .text	00000166 RVMSIS_FLASH_Page_write
00001adc  w      .text	00000000 handle_reset
00001aaa  w      .text	00000000 CAN1_SCE_IRQHandler
00005742 g     F .text	00000056 .hidden __fixunssfsi
00001a86  w      .text	00000000 FLASH_IRQHandler
20000177 g     O .bss	00000001 y_min1
00001d00 g     F .text	000000ae USART1_IRQHandler
000059de g     F .text	00000012 strlen
00005e3c g     F .text	000002a2 _printf_i
0000442e g     F .text	000000b8 SMA_FILTER_Get_Value
200001a4 g     O .bss	00000004 __malloc_sbrk_start
20000154 g     O .bss	00000004 Humidity
00001abe  w      .text	00000000 I2C1_ER_IRQHandler
20000148 g     O .bss	00000004 fractional_number
20000175 g     O .bss	00000001 cnt1
200001a0 g     O .bss	00000004 __malloc_free_list
000040ee g     F .text	0000012e Task1_Pooling_HDC1080
2000019c g     O .bss	00000003 Button3
0000499a g     F .text	0000036a .hidden __addsf3
0000421c g     F .text	00000212 Task2_GMG12864_output
00001ad2  w      .text	00000000 USBWakeUp_IRQHandler
00003592 g     F .text	000002d2 RVMSIS_I2C_Data_Receive
00001a04 g     F .text	0000006c Float_print_to_buf



Disassembly of section .init:

00000000 <_sinit>:
   0:	2dd0106f          	j	1adc <handle_reset>
   4:	00000013          	nop
   8:	00000013          	nop
   c:	00000013          	nop
  10:	00000013          	nop
  14:	00000013          	nop
  18:	00000013          	nop
  1c:	00000013          	nop
  20:	00000013          	nop
  24:	00000013          	nop
  28:	00000013          	nop
  2c:	00000013          	nop
  30:	00000013          	nop
  34:	00100073          	ebreak

Disassembly of section .vector:

00000038 <_vector_base>:
	...
  40:	1a70                	addi	a2,sp,316
  42:	0000                	unimp
  44:	1a72                	slli	s4,s4,0x3c
  46:	0000                	unimp
  48:	0000                	unimp
  4a:	0000                	unimp
  4c:	1a74                	addi	a3,sp,316
	...
  56:	0000                	unimp
  58:	1a76                	slli	s4,s4,0x3d
  5a:	0000                	unimp
  5c:	1a78                	addi	a4,sp,316
	...
  66:	0000                	unimp
  68:	1c30                	addi	a2,sp,568
  6a:	0000                	unimp
  6c:	0000                	unimp
  6e:	0000                	unimp
  70:	1a7c                	addi	a5,sp,316
  72:	0000                	unimp
  74:	0000                	unimp
  76:	0000                	unimp
  78:	1a7e                	slli	s4,s4,0x3f
  7a:	0000                	unimp
  7c:	1a80                	addi	s0,sp,368
  7e:	0000                	unimp
  80:	1a82                	slli	s5,s5,0x20
  82:	0000                	unimp
  84:	1a84                	addi	s1,sp,368
  86:	0000                	unimp
  88:	1a86                	slli	s5,s5,0x21
  8a:	0000                	unimp
  8c:	1a88                	addi	a0,sp,368
  8e:	0000                	unimp
  90:	1a8a                	slli	s5,s5,0x22
  92:	0000                	unimp
  94:	1a8c                	addi	a1,sp,368
  96:	0000                	unimp
  98:	1a8e                	slli	s5,s5,0x23
  9a:	0000                	unimp
  9c:	1a90                	addi	a2,sp,368
  9e:	0000                	unimp
  a0:	1a92                	slli	s5,s5,0x24
  a2:	0000                	unimp
  a4:	1a94                	addi	a3,sp,368
  a6:	0000                	unimp
  a8:	1a96                	slli	s5,s5,0x25
  aa:	0000                	unimp
  ac:	1a98                	addi	a4,sp,368
  ae:	0000                	unimp
  b0:	1a9a                	slli	s5,s5,0x26
  b2:	0000                	unimp
  b4:	1a9c                	addi	a5,sp,368
  b6:	0000                	unimp
  b8:	1a9e                	slli	s5,s5,0x27
  ba:	0000                	unimp
  bc:	1aa0                	addi	s0,sp,376
  be:	0000                	unimp
  c0:	1aa2                	slli	s5,s5,0x28
  c2:	0000                	unimp
  c4:	1aa4                	addi	s1,sp,376
  c6:	0000                	unimp
  c8:	1aa6                	slli	s5,s5,0x29
  ca:	0000                	unimp
  cc:	1aa8                	addi	a0,sp,376
  ce:	0000                	unimp
  d0:	1aaa                	slli	s5,s5,0x2a
  d2:	0000                	unimp
  d4:	1aac                	addi	a1,sp,376
  d6:	0000                	unimp
  d8:	1aae                	slli	s5,s5,0x2b
  da:	0000                	unimp
  dc:	1ab0                	addi	a2,sp,376
  de:	0000                	unimp
  e0:	1ab2                	slli	s5,s5,0x2c
  e2:	0000                	unimp
  e4:	1ab4                	addi	a3,sp,376
  e6:	0000                	unimp
  e8:	1ab6                	slli	s5,s5,0x2d
  ea:	0000                	unimp
  ec:	1f0a                	slli	t5,t5,0x22
  ee:	0000                	unimp
  f0:	470a                	lw	a4,128(sp)
  f2:	0000                	unimp
  f4:	1abc                	addi	a5,sp,376
  f6:	0000                	unimp
  f8:	1abe                	slli	s5,s5,0x2f
  fa:	0000                	unimp
  fc:	1ac0                	addi	s0,sp,372
  fe:	0000                	unimp
 100:	1ac2                	slli	s5,s5,0x30
 102:	0000                	unimp
 104:	1ac4                	addi	s1,sp,372
 106:	0000                	unimp
 108:	1ac6                	slli	s5,s5,0x31
 10a:	0000                	unimp
 10c:	1d00                	addi	s0,sp,688
 10e:	0000                	unimp
 110:	1dae                	slli	s11,s11,0x2b
 112:	0000                	unimp
 114:	1e5c                	addi	a5,sp,820
 116:	0000                	unimp
 118:	1ace                	slli	s5,s5,0x33
 11a:	0000                	unimp
 11c:	1ad0                	addi	a2,sp,372
 11e:	0000                	unimp
 120:	1ad2                	slli	s5,s5,0x34
 122:	0000                	unimp
 124:	1ad4                	addi	a3,sp,372
 126:	0000                	unimp
 128:	1ad6                	slli	s5,s5,0x35
 12a:	0000                	unimp
 12c:	1ad8                	addi	a4,sp,372
 12e:	0000                	unimp
 130:	1ada                	slli	s5,s5,0x36
	...

Disassembly of section .text:

00000140 <memset>:
     140:	433d                	li	t1,15
     142:	872a                	mv	a4,a0
     144:	02c37363          	bgeu	t1,a2,16a <memset+0x2a>
     148:	00f77793          	andi	a5,a4,15
     14c:	efbd                	bnez	a5,1ca <memset+0x8a>
     14e:	e5ad                	bnez	a1,1b8 <memset+0x78>
     150:	ff067693          	andi	a3,a2,-16
     154:	8a3d                	andi	a2,a2,15
     156:	96ba                	add	a3,a3,a4
     158:	c30c                	sw	a1,0(a4)
     15a:	c34c                	sw	a1,4(a4)
     15c:	c70c                	sw	a1,8(a4)
     15e:	c74c                	sw	a1,12(a4)
     160:	0741                	addi	a4,a4,16
     162:	fed76be3          	bltu	a4,a3,158 <memset+0x18>
     166:	e211                	bnez	a2,16a <memset+0x2a>
     168:	8082                	ret
     16a:	40c306b3          	sub	a3,t1,a2
     16e:	068a                	slli	a3,a3,0x2
     170:	00000297          	auipc	t0,0x0
     174:	9696                	add	a3,a3,t0
     176:	00a68067          	jr	10(a3)
     17a:	00b70723          	sb	a1,14(a4)
     17e:	00b706a3          	sb	a1,13(a4)
     182:	00b70623          	sb	a1,12(a4)
     186:	00b705a3          	sb	a1,11(a4)
     18a:	00b70523          	sb	a1,10(a4)
     18e:	00b704a3          	sb	a1,9(a4)
     192:	00b70423          	sb	a1,8(a4)
     196:	00b703a3          	sb	a1,7(a4)
     19a:	00b70323          	sb	a1,6(a4)
     19e:	00b702a3          	sb	a1,5(a4)
     1a2:	00b70223          	sb	a1,4(a4)
     1a6:	00b701a3          	sb	a1,3(a4)
     1aa:	00b70123          	sb	a1,2(a4)
     1ae:	00b700a3          	sb	a1,1(a4)
     1b2:	00b70023          	sb	a1,0(a4)
     1b6:	8082                	ret
     1b8:	0ff5f593          	andi	a1,a1,255
     1bc:	00859693          	slli	a3,a1,0x8
     1c0:	8dd5                	or	a1,a1,a3
     1c2:	01059693          	slli	a3,a1,0x10
     1c6:	8dd5                	or	a1,a1,a3
     1c8:	b761                	j	150 <memset+0x10>
     1ca:	00279693          	slli	a3,a5,0x2
     1ce:	00000297          	auipc	t0,0x0
     1d2:	9696                	add	a3,a3,t0
     1d4:	8286                	mv	t0,ra
     1d6:	fa8680e7          	jalr	-88(a3)
     1da:	8096                	mv	ra,t0
     1dc:	17c1                	addi	a5,a5,-16
     1de:	8f1d                	sub	a4,a4,a5
     1e0:	963e                	add	a2,a2,a5
     1e2:	f8c374e3          	bgeu	t1,a2,16a <memset+0x2a>
     1e6:	b7a5                	j	14e <memset+0xe>

000001e8 <GMG12864_logo_demonstration>:
     1e8:	1101                	addi	sp,sp,-32
     1ea:	ce06                	sw	ra,28(sp)
     1ec:	cc22                	sw	s0,24(sp)
     1ee:	1000                	addi	s0,sp,32
     1f0:	22d9                	jal	3b6 <GMG12864_Clean_Frame_buffer>
     1f2:	fe042623          	sw	zero,-20(s0)
     1f6:	a03d                	j	224 <__stack_size+0x24>
     1f8:	fec42783          	lw	a5,-20(s0)
     1fc:	10978693          	addi	a3,a5,265
     200:	679d                	lui	a5,0x7
     202:	a9878713          	addi	a4,a5,-1384 # 6a98 <solderingiron>
     206:	fec42783          	lw	a5,-20(s0)
     20a:	97ba                	add	a5,a5,a4
     20c:	2398                	lbu	a4,0(a5)
     20e:	200007b7          	lui	a5,0x20000
     212:	22c78793          	addi	a5,a5,556 # 2000022c <Frame_buffer>
     216:	97b6                	add	a5,a5,a3
     218:	a398                	sb	a4,0(a5)
     21a:	fec42783          	lw	a5,-20(s0)
     21e:	0785                	addi	a5,a5,1
     220:	fef42623          	sw	a5,-20(s0)
     224:	fec42703          	lw	a4,-20(s0)
     228:	17000793          	li	a5,368
     22c:	fce7d6e3          	bge	a5,a4,1f8 <GMG12864_logo_demonstration+0x10>
     230:	2645                	jal	5d0 <GMG12864_Update>
     232:	6799                	lui	a5,0x6
     234:	41878593          	addi	a1,a5,1048 # 6418 <_sbrk+0x20>
     238:	200007b7          	lui	a5,0x20000
     23c:	1ac78513          	addi	a0,a5,428 # 200001ac <tx_buffer>
     240:	75a050ef          	jal	ra,599a <siprintf>
     244:	200007b7          	lui	a5,0x20000
     248:	1ac78713          	addi	a4,a5,428 # 200001ac <tx_buffer>
     24c:	4681                	li	a3,0
     24e:	4605                	li	a2,1
     250:	02800593          	li	a1,40
     254:	4541                	li	a0,16
     256:	00f000ef          	jal	ra,a64 <GMG12864_Decode_UTF8>
     25a:	6799                	lui	a5,0x6
     25c:	42c78593          	addi	a1,a5,1068 # 642c <_sbrk+0x34>
     260:	200007b7          	lui	a5,0x20000
     264:	1ac78513          	addi	a0,a5,428 # 200001ac <tx_buffer>
     268:	732050ef          	jal	ra,599a <siprintf>
     26c:	200007b7          	lui	a5,0x20000
     270:	1ac78713          	addi	a4,a5,428 # 200001ac <tx_buffer>
     274:	4681                	li	a3,0
     276:	4605                	li	a2,1
     278:	03000593          	li	a1,48
     27c:	4549                	li	a0,18
     27e:	7e6000ef          	jal	ra,a64 <GMG12864_Decode_UTF8>
     282:	1f400513          	li	a0,500
     286:	0cc020ef          	jal	ra,2352 <Delay_ms>
     28a:	2699                	jal	5d0 <GMG12864_Update>
     28c:	6785                	lui	a5,0x1
     28e:	bb878513          	addi	a0,a5,-1096 # bb8 <GMG12864_Decode_UTF8+0x154>
     292:	0c0020ef          	jal	ra,2352 <Delay_ms>
     296:	6799                	lui	a5,0x6
     298:	44078593          	addi	a1,a5,1088 # 6440 <_sbrk+0x48>
     29c:	200007b7          	lui	a5,0x20000
     2a0:	1ac78513          	addi	a0,a5,428 # 200001ac <tx_buffer>
     2a4:	6f6050ef          	jal	ra,599a <siprintf>
     2a8:	200007b7          	lui	a5,0x20000
     2ac:	1ac78713          	addi	a4,a5,428 # 200001ac <tx_buffer>
     2b0:	4681                	li	a3,0
     2b2:	4605                	li	a2,1
     2b4:	03000593          	li	a1,48
     2b8:	4549                	li	a0,18
     2ba:	7aa000ef          	jal	ra,a64 <GMG12864_Decode_UTF8>
     2be:	1f400513          	li	a0,500
     2c2:	090020ef          	jal	ra,2352 <Delay_ms>
     2c6:	2629                	jal	5d0 <GMG12864_Update>
     2c8:	6799                	lui	a5,0x6
     2ca:	44078593          	addi	a1,a5,1088 # 6440 <_sbrk+0x48>
     2ce:	200007b7          	lui	a5,0x20000
     2d2:	1ac78513          	addi	a0,a5,428 # 200001ac <tx_buffer>
     2d6:	6c4050ef          	jal	ra,599a <siprintf>
     2da:	200007b7          	lui	a5,0x20000
     2de:	1ac78713          	addi	a4,a5,428 # 200001ac <tx_buffer>
     2e2:	4681                	li	a3,0
     2e4:	4605                	li	a2,1
     2e6:	02800593          	li	a1,40
     2ea:	4541                	li	a0,16
     2ec:	778000ef          	jal	ra,a64 <GMG12864_Decode_UTF8>
     2f0:	1f400513          	li	a0,500
     2f4:	05e020ef          	jal	ra,2352 <Delay_ms>
     2f8:	2ce1                	jal	5d0 <GMG12864_Update>
     2fa:	fe042423          	sw	zero,-24(s0)
     2fe:	a00d                	j	320 <__stack_size+0x120>
     300:	fe842783          	lw	a5,-24(s0)
     304:	10978713          	addi	a4,a5,265
     308:	200007b7          	lui	a5,0x20000
     30c:	22c78793          	addi	a5,a5,556 # 2000022c <Frame_buffer>
     310:	97ba                	add	a5,a5,a4
     312:	00078023          	sb	zero,0(a5)
     316:	fe842783          	lw	a5,-24(s0)
     31a:	0785                	addi	a5,a5,1
     31c:	fef42423          	sw	a5,-24(s0)
     320:	fe842703          	lw	a4,-24(s0)
     324:	17000793          	li	a5,368
     328:	fce7dce3          	bge	a5,a4,300 <__stack_size+0x100>
     32c:	2455                	jal	5d0 <GMG12864_Update>
     32e:	1f400513          	li	a0,500
     332:	020020ef          	jal	ra,2352 <Delay_ms>
     336:	2041                	jal	3b6 <GMG12864_Clean_Frame_buffer>
     338:	2c61                	jal	5d0 <GMG12864_Update>
     33a:	0001                	nop
     33c:	40f2                	lw	ra,28(sp)
     33e:	4462                	lw	s0,24(sp)
     340:	6105                	addi	sp,sp,32
     342:	8082                	ret

00000344 <GMG12864_Send_command>:
     344:	1101                	addi	sp,sp,-32
     346:	ce06                	sw	ra,28(sp)
     348:	cc22                	sw	s0,24(sp)
     34a:	1000                	addi	s0,sp,32
     34c:	87aa                	mv	a5,a0
     34e:	fef407a3          	sb	a5,-17(s0)
     352:	400117b7          	lui	a5,0x40011
     356:	80078793          	addi	a5,a5,-2048 # 40010800 <_eusrstack+0x2000b800>
     35a:	00040737          	lui	a4,0x40
     35e:	cb98                	sw	a4,16(a5)
     360:	fef40793          	addi	a5,s0,-17
     364:	06400693          	li	a3,100
     368:	4605                	li	a2,1
     36a:	85be                	mv	a1,a5
     36c:	40013537          	lui	a0,0x40013
     370:	027030ef          	jal	ra,3b96 <RVMSIS_SPI_Data_Transmit_8BIT>
     374:	400117b7          	lui	a5,0x40011
     378:	80078793          	addi	a5,a5,-2048 # 40010800 <_eusrstack+0x2000b800>
     37c:	4711                	li	a4,4
     37e:	cb98                	sw	a4,16(a5)
     380:	0001                	nop
     382:	40f2                	lw	ra,28(sp)
     384:	4462                	lw	s0,24(sp)
     386:	6105                	addi	sp,sp,32
     388:	8082                	ret

0000038a <GMG12864_Send_data>:
     38a:	1101                	addi	sp,sp,-32
     38c:	ce06                	sw	ra,28(sp)
     38e:	cc22                	sw	s0,24(sp)
     390:	1000                	addi	s0,sp,32
     392:	87aa                	mv	a5,a0
     394:	fef407a3          	sb	a5,-17(s0)
     398:	fef40793          	addi	a5,s0,-17
     39c:	06400693          	li	a3,100
     3a0:	4605                	li	a2,1
     3a2:	85be                	mv	a1,a5
     3a4:	40013537          	lui	a0,0x40013
     3a8:	7ee030ef          	jal	ra,3b96 <RVMSIS_SPI_Data_Transmit_8BIT>
     3ac:	0001                	nop
     3ae:	40f2                	lw	ra,28(sp)
     3b0:	4462                	lw	s0,24(sp)
     3b2:	6105                	addi	sp,sp,32
     3b4:	8082                	ret

000003b6 <GMG12864_Clean_Frame_buffer>:
     3b6:	1141                	addi	sp,sp,-16
     3b8:	c606                	sw	ra,12(sp)
     3ba:	c422                	sw	s0,8(sp)
     3bc:	0800                	addi	s0,sp,16
     3be:	40000613          	li	a2,1024
     3c2:	4581                	li	a1,0
     3c4:	200007b7          	lui	a5,0x20000
     3c8:	22c78513          	addi	a0,a5,556 # 2000022c <Frame_buffer>
     3cc:	3b95                	jal	140 <memset>
     3ce:	0001                	nop
     3d0:	40b2                	lw	ra,12(sp)
     3d2:	4422                	lw	s0,8(sp)
     3d4:	0141                	addi	sp,sp,16
     3d6:	8082                	ret

000003d8 <GMG12864_Init>:
     3d8:	1141                	addi	sp,sp,-16
     3da:	c606                	sw	ra,12(sp)
     3dc:	c422                	sw	s0,8(sp)
     3de:	0800                	addi	s0,sp,16
     3e0:	400117b7          	lui	a5,0x40011
     3e4:	80078793          	addi	a5,a5,-2048 # 40010800 <_eusrstack+0x2000b800>
     3e8:	00100737          	lui	a4,0x100
     3ec:	cb98                	sw	a4,16(a5)
     3ee:	400117b7          	lui	a5,0x40011
     3f2:	80078793          	addi	a5,a5,-2048 # 40010800 <_eusrstack+0x2000b800>
     3f6:	00080737          	lui	a4,0x80
     3fa:	cb98                	sw	a4,16(a5)
     3fc:	4529                	li	a0,10
     3fe:	755010ef          	jal	ra,2352 <Delay_ms>
     402:	400117b7          	lui	a5,0x40011
     406:	80078793          	addi	a5,a5,-2048 # 40010800 <_eusrstack+0x2000b800>
     40a:	4721                	li	a4,8
     40c:	cb98                	sw	a4,16(a5)
     40e:	4529                	li	a0,10
     410:	743010ef          	jal	ra,2352 <Delay_ms>
     414:	0a200513          	li	a0,162
     418:	3735                	jal	344 <GMG12864_Send_command>
     41a:	4505                	li	a0,1
     41c:	737010ef          	jal	ra,2352 <Delay_ms>
     420:	0a000513          	li	a0,160
     424:	3705                	jal	344 <GMG12864_Send_command>
     426:	0c800513          	li	a0,200
     42a:	3f29                	jal	344 <GMG12864_Send_command>
     42c:	4505                	li	a0,1
     42e:	725010ef          	jal	ra,2352 <Delay_ms>
     432:	02700513          	li	a0,39
     436:	3739                	jal	344 <GMG12864_Send_command>
     438:	4505                	li	a0,1
     43a:	719010ef          	jal	ra,2352 <Delay_ms>
     43e:	02f00513          	li	a0,47
     442:	3709                	jal	344 <GMG12864_Send_command>
     444:	4505                	li	a0,1
     446:	70d010ef          	jal	ra,2352 <Delay_ms>
     44a:	08100513          	li	a0,129
     44e:	3ddd                	jal	344 <GMG12864_Send_command>
     450:	4549                	li	a0,18
     452:	3dcd                	jal	344 <GMG12864_Send_command>
     454:	4505                	li	a0,1
     456:	6fd010ef          	jal	ra,2352 <Delay_ms>
     45a:	04000513          	li	a0,64
     45e:	35dd                	jal	344 <GMG12864_Send_command>
     460:	4505                	li	a0,1
     462:	6f1010ef          	jal	ra,2352 <Delay_ms>
     466:	0af00513          	li	a0,175
     46a:	3de9                	jal	344 <GMG12864_Send_command>
     46c:	0a600513          	li	a0,166
     470:	3dd1                	jal	344 <GMG12864_Send_command>
     472:	4505                	li	a0,1
     474:	6df010ef          	jal	ra,2352 <Delay_ms>
     478:	400117b7          	lui	a5,0x40011
     47c:	80078793          	addi	a5,a5,-2048 # 40010800 <_eusrstack+0x2000b800>
     480:	4741                	li	a4,16
     482:	cb98                	sw	a4,16(a5)
     484:	0001                	nop
     486:	40b2                	lw	ra,12(sp)
     488:	4422                	lw	s0,8(sp)
     48a:	0141                	addi	sp,sp,16
     48c:	8082                	ret

0000048e <GMG12864_Draw_pixel>:
     48e:	7179                	addi	sp,sp,-48
     490:	d622                	sw	s0,44(sp)
     492:	1800                	addi	s0,sp,48
     494:	87aa                	mv	a5,a0
     496:	86ae                	mv	a3,a1
     498:	8732                	mv	a4,a2
     49a:	fcf41f23          	sh	a5,-34(s0)
     49e:	87b6                	mv	a5,a3
     4a0:	fcf41e23          	sh	a5,-36(s0)
     4a4:	87ba                	mv	a5,a4
     4a6:	fcf40da3          	sb	a5,-37(s0)
     4aa:	fde41783          	lh	a5,-34(s0)
     4ae:	20000737          	lui	a4,0x20000
     4b2:	13074703          	lbu	a4,304(a4) # 20000130 <GMG12864_width>
     4b6:	10e7d963          	bge	a5,a4,5c8 <GMG12864_Draw_pixel+0x13a>
     4ba:	fde41783          	lh	a5,-34(s0)
     4be:	1007c563          	bltz	a5,5c8 <GMG12864_Draw_pixel+0x13a>
     4c2:	fdc41783          	lh	a5,-36(s0)
     4c6:	20000737          	lui	a4,0x20000
     4ca:	13174703          	lbu	a4,305(a4) # 20000131 <GMG12864_height>
     4ce:	0ee7dd63          	bge	a5,a4,5c8 <GMG12864_Draw_pixel+0x13a>
     4d2:	fdc41783          	lh	a5,-36(s0)
     4d6:	0e07c963          	bltz	a5,5c8 <GMG12864_Draw_pixel+0x13a>
     4da:	fdc41783          	lh	a5,-36(s0)
     4de:	41f7d713          	srai	a4,a5,0x1f
     4e2:	8b1d                	andi	a4,a4,7
     4e4:	97ba                	add	a5,a5,a4
     4e6:	878d                	srai	a5,a5,0x3
     4e8:	07c2                	slli	a5,a5,0x10
     4ea:	87c1                	srai	a5,a5,0x10
     4ec:	01079713          	slli	a4,a5,0x10
     4f0:	8341                	srli	a4,a4,0x10
     4f2:	200007b7          	lui	a5,0x20000
     4f6:	1307c783          	lbu	a5,304(a5) # 20000130 <GMG12864_width>
     4fa:	07c2                	slli	a5,a5,0x10
     4fc:	83c1                	srli	a5,a5,0x10
     4fe:	02f707b3          	mul	a5,a4,a5
     502:	01079713          	slli	a4,a5,0x10
     506:	8341                	srli	a4,a4,0x10
     508:	fde45783          	lhu	a5,-34(s0)
     50c:	97ba                	add	a5,a5,a4
     50e:	fef41723          	sh	a5,-18(s0)
     512:	fdb44783          	lbu	a5,-37(s0)
     516:	cbb9                	beqz	a5,56c <GMG12864_Draw_pixel+0xde>
     518:	fee45703          	lhu	a4,-18(s0)
     51c:	200007b7          	lui	a5,0x20000
     520:	22c78793          	addi	a5,a5,556 # 2000022c <Frame_buffer>
     524:	97ba                	add	a5,a5,a4
     526:	239c                	lbu	a5,0(a5)
     528:	01879693          	slli	a3,a5,0x18
     52c:	86e1                	srai	a3,a3,0x18
     52e:	fdc41703          	lh	a4,-36(s0)
     532:	41f75793          	srai	a5,a4,0x1f
     536:	83f5                	srli	a5,a5,0x1d
     538:	973e                	add	a4,a4,a5
     53a:	8b1d                	andi	a4,a4,7
     53c:	40f707b3          	sub	a5,a4,a5
     540:	07c2                	slli	a5,a5,0x10
     542:	87c1                	srai	a5,a5,0x10
     544:	873e                	mv	a4,a5
     546:	4785                	li	a5,1
     548:	00e797b3          	sll	a5,a5,a4
     54c:	07e2                	slli	a5,a5,0x18
     54e:	87e1                	srai	a5,a5,0x18
     550:	8fd5                	or	a5,a5,a3
     552:	07e2                	slli	a5,a5,0x18
     554:	87e1                	srai	a5,a5,0x18
     556:	fee45683          	lhu	a3,-18(s0)
     55a:	0ff7f713          	andi	a4,a5,255
     55e:	200007b7          	lui	a5,0x20000
     562:	22c78793          	addi	a5,a5,556 # 2000022c <Frame_buffer>
     566:	97b6                	add	a5,a5,a3
     568:	a398                	sb	a4,0(a5)
     56a:	a085                	j	5ca <GMG12864_Draw_pixel+0x13c>
     56c:	fee45703          	lhu	a4,-18(s0)
     570:	200007b7          	lui	a5,0x20000
     574:	22c78793          	addi	a5,a5,556 # 2000022c <Frame_buffer>
     578:	97ba                	add	a5,a5,a4
     57a:	239c                	lbu	a5,0(a5)
     57c:	01879693          	slli	a3,a5,0x18
     580:	86e1                	srai	a3,a3,0x18
     582:	fdc41703          	lh	a4,-36(s0)
     586:	41f75793          	srai	a5,a4,0x1f
     58a:	83f5                	srli	a5,a5,0x1d
     58c:	973e                	add	a4,a4,a5
     58e:	8b1d                	andi	a4,a4,7
     590:	40f707b3          	sub	a5,a4,a5
     594:	07c2                	slli	a5,a5,0x10
     596:	87c1                	srai	a5,a5,0x10
     598:	873e                	mv	a4,a5
     59a:	4785                	li	a5,1
     59c:	00e797b3          	sll	a5,a5,a4
     5a0:	07e2                	slli	a5,a5,0x18
     5a2:	87e1                	srai	a5,a5,0x18
     5a4:	fff7c793          	not	a5,a5
     5a8:	07e2                	slli	a5,a5,0x18
     5aa:	87e1                	srai	a5,a5,0x18
     5ac:	8ff5                	and	a5,a5,a3
     5ae:	07e2                	slli	a5,a5,0x18
     5b0:	87e1                	srai	a5,a5,0x18
     5b2:	fee45683          	lhu	a3,-18(s0)
     5b6:	0ff7f713          	andi	a4,a5,255
     5ba:	200007b7          	lui	a5,0x20000
     5be:	22c78793          	addi	a5,a5,556 # 2000022c <Frame_buffer>
     5c2:	97b6                	add	a5,a5,a3
     5c4:	a398                	sb	a4,0(a5)
     5c6:	a011                	j	5ca <GMG12864_Draw_pixel+0x13c>
     5c8:	0001                	nop
     5ca:	5432                	lw	s0,44(sp)
     5cc:	6145                	addi	sp,sp,48
     5ce:	8082                	ret

000005d0 <GMG12864_Update>:
     5d0:	1101                	addi	sp,sp,-32
     5d2:	ce06                	sw	ra,28(sp)
     5d4:	cc22                	sw	s0,24(sp)
     5d6:	1000                	addi	s0,sp,32
     5d8:	400117b7          	lui	a5,0x40011
     5dc:	80078793          	addi	a5,a5,-2048 # 40010800 <_eusrstack+0x2000b800>
     5e0:	00100737          	lui	a4,0x100
     5e4:	cb98                	sw	a4,16(a5)
     5e6:	fe0407a3          	sb	zero,-17(s0)
     5ea:	a08d                	j	64c <GMG12864_Update+0x7c>
     5ec:	4541                	li	a0,16
     5ee:	3b99                	jal	344 <GMG12864_Send_command>
     5f0:	4501                	li	a0,0
     5f2:	3b89                	jal	344 <GMG12864_Send_command>
     5f4:	fef40783          	lb	a5,-17(s0)
     5f8:	8b9d                	andi	a5,a5,7
     5fa:	07e2                	slli	a5,a5,0x18
     5fc:	87e1                	srai	a5,a5,0x18
     5fe:	fb07e793          	ori	a5,a5,-80
     602:	07e2                	slli	a5,a5,0x18
     604:	87e1                	srai	a5,a5,0x18
     606:	0ff7f793          	andi	a5,a5,255
     60a:	853e                	mv	a0,a5
     60c:	3b25                	jal	344 <GMG12864_Send_command>
     60e:	fe040723          	sb	zero,-18(s0)
     612:	a025                	j	63a <GMG12864_Update+0x6a>
     614:	fee44703          	lbu	a4,-18(s0)
     618:	fef44783          	lbu	a5,-17(s0)
     61c:	079e                	slli	a5,a5,0x7
     61e:	973e                	add	a4,a4,a5
     620:	200007b7          	lui	a5,0x20000
     624:	22c78793          	addi	a5,a5,556 # 2000022c <Frame_buffer>
     628:	97ba                	add	a5,a5,a4
     62a:	239c                	lbu	a5,0(a5)
     62c:	853e                	mv	a0,a5
     62e:	3bb1                	jal	38a <GMG12864_Send_data>
     630:	fee44783          	lbu	a5,-18(s0)
     634:	0785                	addi	a5,a5,1
     636:	fef40723          	sb	a5,-18(s0)
     63a:	fee40783          	lb	a5,-18(s0)
     63e:	fc07dbe3          	bgez	a5,614 <GMG12864_Update+0x44>
     642:	fef44783          	lbu	a5,-17(s0)
     646:	0785                	addi	a5,a5,1
     648:	fef407a3          	sb	a5,-17(s0)
     64c:	fef44703          	lbu	a4,-17(s0)
     650:	479d                	li	a5,7
     652:	f8e7fde3          	bgeu	a5,a4,5ec <GMG12864_Update+0x1c>
     656:	400117b7          	lui	a5,0x40011
     65a:	80078793          	addi	a5,a5,-2048 # 40010800 <_eusrstack+0x2000b800>
     65e:	4741                	li	a4,16
     660:	cb98                	sw	a4,16(a5)
     662:	0001                	nop
     664:	40f2                	lw	ra,28(sp)
     666:	4462                	lw	s0,24(sp)
     668:	6105                	addi	sp,sp,32
     66a:	8082                	ret

0000066c <GMG12864_Print_symbol_5x7>:
     66c:	7179                	addi	sp,sp,-48
     66e:	d606                	sw	ra,44(sp)
     670:	d422                	sw	s0,40(sp)
     672:	1800                	addi	s0,sp,48
     674:	87aa                	mv	a5,a0
     676:	8736                	mv	a4,a3
     678:	fcf40fa3          	sb	a5,-33(s0)
     67c:	87ae                	mv	a5,a1
     67e:	fcf40f23          	sb	a5,-34(s0)
     682:	87b2                	mv	a5,a2
     684:	fcf41e23          	sh	a5,-36(s0)
     688:	87ba                	mv	a5,a4
     68a:	fcf40da3          	sb	a5,-37(s0)
     68e:	fdf44783          	lbu	a5,-33(s0)
     692:	fef40623          	sb	a5,-20(s0)
     696:	fdf44783          	lbu	a5,-33(s0)
     69a:	0795                	addi	a5,a5,5
     69c:	fef405a3          	sb	a5,-21(s0)
     6a0:	fec44783          	lbu	a5,-20(s0)
     6a4:	fef407a3          	sb	a5,-17(s0)
     6a8:	a26d                	j	852 <GMG12864_Print_symbol_5x7+0x1e6>
     6aa:	fef44703          	lbu	a4,-17(s0)
     6ae:	feb44783          	lbu	a5,-21(s0)
     6b2:	08f71263          	bne	a4,a5,736 <GMG12864_Print_symbol_5x7+0xca>
     6b6:	fe040723          	sb	zero,-18(s0)
     6ba:	a885                	j	72a <GMG12864_Print_symbol_5x7+0xbe>
     6bc:	fdb44783          	lbu	a5,-37(s0)
     6c0:	cb8d                	beqz	a5,6f2 <GMG12864_Print_symbol_5x7+0x86>
     6c2:	fef44783          	lbu	a5,-17(s0)
     6c6:	01079693          	slli	a3,a5,0x10
     6ca:	86c1                	srai	a3,a3,0x10
     6cc:	fde44783          	lbu	a5,-34(s0)
     6d0:	01079713          	slli	a4,a5,0x10
     6d4:	8341                	srli	a4,a4,0x10
     6d6:	fee44783          	lbu	a5,-18(s0)
     6da:	07c2                	slli	a5,a5,0x10
     6dc:	83c1                	srli	a5,a5,0x10
     6de:	97ba                	add	a5,a5,a4
     6e0:	07c2                	slli	a5,a5,0x10
     6e2:	83c1                	srli	a5,a5,0x10
     6e4:	07c2                	slli	a5,a5,0x10
     6e6:	87c1                	srai	a5,a5,0x10
     6e8:	4605                	li	a2,1
     6ea:	85be                	mv	a1,a5
     6ec:	8536                	mv	a0,a3
     6ee:	3345                	jal	48e <GMG12864_Draw_pixel>
     6f0:	a805                	j	720 <GMG12864_Print_symbol_5x7+0xb4>
     6f2:	fef44783          	lbu	a5,-17(s0)
     6f6:	01079693          	slli	a3,a5,0x10
     6fa:	86c1                	srai	a3,a3,0x10
     6fc:	fde44783          	lbu	a5,-34(s0)
     700:	01079713          	slli	a4,a5,0x10
     704:	8341                	srli	a4,a4,0x10
     706:	fee44783          	lbu	a5,-18(s0)
     70a:	07c2                	slli	a5,a5,0x10
     70c:	83c1                	srli	a5,a5,0x10
     70e:	97ba                	add	a5,a5,a4
     710:	07c2                	slli	a5,a5,0x10
     712:	83c1                	srli	a5,a5,0x10
     714:	07c2                	slli	a5,a5,0x10
     716:	87c1                	srai	a5,a5,0x10
     718:	4601                	li	a2,0
     71a:	85be                	mv	a1,a5
     71c:	8536                	mv	a0,a3
     71e:	3b85                	jal	48e <GMG12864_Draw_pixel>
     720:	fee44783          	lbu	a5,-18(s0)
     724:	0785                	addi	a5,a5,1
     726:	fef40723          	sb	a5,-18(s0)
     72a:	fee44703          	lbu	a4,-18(s0)
     72e:	4799                	li	a5,6
     730:	f8e7f6e3          	bgeu	a5,a4,6bc <GMG12864_Print_symbol_5x7+0x50>
     734:	aa11                	j	848 <GMG12864_Print_symbol_5x7+0x1dc>
     736:	fe0406a3          	sb	zero,-19(s0)
     73a:	a211                	j	83e <GMG12864_Print_symbol_5x7+0x1d2>
     73c:	fdc45703          	lhu	a4,-36(s0)
     740:	87ba                	mv	a5,a4
     742:	078a                	slli	a5,a5,0x2
     744:	973e                	add	a4,a4,a5
     746:	fef44783          	lbu	a5,-17(s0)
     74a:	973e                	add	a4,a4,a5
     74c:	fec44783          	lbu	a5,-20(s0)
     750:	8f1d                	sub	a4,a4,a5
     752:	6799                	lui	a5,0x6
     754:	76c78793          	addi	a5,a5,1900 # 676c <Font_5x7>
     758:	97ba                	add	a5,a5,a4
     75a:	239c                	lbu	a5,0(a5)
     75c:	873e                	mv	a4,a5
     75e:	fed44783          	lbu	a5,-19(s0)
     762:	40f757b3          	sra	a5,a4,a5
     766:	8b85                	andi	a5,a5,1
     768:	c7a5                	beqz	a5,7d0 <GMG12864_Print_symbol_5x7+0x164>
     76a:	fdb44783          	lbu	a5,-37(s0)
     76e:	cb8d                	beqz	a5,7a0 <GMG12864_Print_symbol_5x7+0x134>
     770:	fef44783          	lbu	a5,-17(s0)
     774:	01079693          	slli	a3,a5,0x10
     778:	86c1                	srai	a3,a3,0x10
     77a:	fde44783          	lbu	a5,-34(s0)
     77e:	01079713          	slli	a4,a5,0x10
     782:	8341                	srli	a4,a4,0x10
     784:	fed44783          	lbu	a5,-19(s0)
     788:	07c2                	slli	a5,a5,0x10
     78a:	83c1                	srli	a5,a5,0x10
     78c:	97ba                	add	a5,a5,a4
     78e:	07c2                	slli	a5,a5,0x10
     790:	83c1                	srli	a5,a5,0x10
     792:	07c2                	slli	a5,a5,0x10
     794:	87c1                	srai	a5,a5,0x10
     796:	4601                	li	a2,0
     798:	85be                	mv	a1,a5
     79a:	8536                	mv	a0,a3
     79c:	39cd                	jal	48e <GMG12864_Draw_pixel>
     79e:	a859                	j	834 <GMG12864_Print_symbol_5x7+0x1c8>
     7a0:	fef44783          	lbu	a5,-17(s0)
     7a4:	01079693          	slli	a3,a5,0x10
     7a8:	86c1                	srai	a3,a3,0x10
     7aa:	fde44783          	lbu	a5,-34(s0)
     7ae:	01079713          	slli	a4,a5,0x10
     7b2:	8341                	srli	a4,a4,0x10
     7b4:	fed44783          	lbu	a5,-19(s0)
     7b8:	07c2                	slli	a5,a5,0x10
     7ba:	83c1                	srli	a5,a5,0x10
     7bc:	97ba                	add	a5,a5,a4
     7be:	07c2                	slli	a5,a5,0x10
     7c0:	83c1                	srli	a5,a5,0x10
     7c2:	07c2                	slli	a5,a5,0x10
     7c4:	87c1                	srai	a5,a5,0x10
     7c6:	4605                	li	a2,1
     7c8:	85be                	mv	a1,a5
     7ca:	8536                	mv	a0,a3
     7cc:	31c9                	jal	48e <GMG12864_Draw_pixel>
     7ce:	a09d                	j	834 <GMG12864_Print_symbol_5x7+0x1c8>
     7d0:	fdb44783          	lbu	a5,-37(s0)
     7d4:	cb8d                	beqz	a5,806 <GMG12864_Print_symbol_5x7+0x19a>
     7d6:	fef44783          	lbu	a5,-17(s0)
     7da:	01079693          	slli	a3,a5,0x10
     7de:	86c1                	srai	a3,a3,0x10
     7e0:	fde44783          	lbu	a5,-34(s0)
     7e4:	01079713          	slli	a4,a5,0x10
     7e8:	8341                	srli	a4,a4,0x10
     7ea:	fed44783          	lbu	a5,-19(s0)
     7ee:	07c2                	slli	a5,a5,0x10
     7f0:	83c1                	srli	a5,a5,0x10
     7f2:	97ba                	add	a5,a5,a4
     7f4:	07c2                	slli	a5,a5,0x10
     7f6:	83c1                	srli	a5,a5,0x10
     7f8:	07c2                	slli	a5,a5,0x10
     7fa:	87c1                	srai	a5,a5,0x10
     7fc:	4605                	li	a2,1
     7fe:	85be                	mv	a1,a5
     800:	8536                	mv	a0,a3
     802:	3171                	jal	48e <GMG12864_Draw_pixel>
     804:	a805                	j	834 <GMG12864_Print_symbol_5x7+0x1c8>
     806:	fef44783          	lbu	a5,-17(s0)
     80a:	01079693          	slli	a3,a5,0x10
     80e:	86c1                	srai	a3,a3,0x10
     810:	fde44783          	lbu	a5,-34(s0)
     814:	01079713          	slli	a4,a5,0x10
     818:	8341                	srli	a4,a4,0x10
     81a:	fed44783          	lbu	a5,-19(s0)
     81e:	07c2                	slli	a5,a5,0x10
     820:	83c1                	srli	a5,a5,0x10
     822:	97ba                	add	a5,a5,a4
     824:	07c2                	slli	a5,a5,0x10
     826:	83c1                	srli	a5,a5,0x10
     828:	07c2                	slli	a5,a5,0x10
     82a:	87c1                	srai	a5,a5,0x10
     82c:	4601                	li	a2,0
     82e:	85be                	mv	a1,a5
     830:	8536                	mv	a0,a3
     832:	39b1                	jal	48e <GMG12864_Draw_pixel>
     834:	fed44783          	lbu	a5,-19(s0)
     838:	0785                	addi	a5,a5,1
     83a:	fef406a3          	sb	a5,-19(s0)
     83e:	fed44703          	lbu	a4,-19(s0)
     842:	4799                	li	a5,6
     844:	eee7fce3          	bgeu	a5,a4,73c <GMG12864_Print_symbol_5x7+0xd0>
     848:	fef44783          	lbu	a5,-17(s0)
     84c:	0785                	addi	a5,a5,1
     84e:	fef407a3          	sb	a5,-17(s0)
     852:	fef44703          	lbu	a4,-17(s0)
     856:	feb44783          	lbu	a5,-21(s0)
     85a:	e4e7f8e3          	bgeu	a5,a4,6aa <GMG12864_Print_symbol_5x7+0x3e>
     85e:	0001                	nop
     860:	50b2                	lw	ra,44(sp)
     862:	5422                	lw	s0,40(sp)
     864:	6145                	addi	sp,sp,48
     866:	8082                	ret

00000868 <GMG12864_Print_symbol_3x5>:
     868:	7179                	addi	sp,sp,-48
     86a:	d606                	sw	ra,44(sp)
     86c:	d422                	sw	s0,40(sp)
     86e:	1800                	addi	s0,sp,48
     870:	87aa                	mv	a5,a0
     872:	8736                	mv	a4,a3
     874:	fcf40fa3          	sb	a5,-33(s0)
     878:	87ae                	mv	a5,a1
     87a:	fcf40f23          	sb	a5,-34(s0)
     87e:	87b2                	mv	a5,a2
     880:	fcf41e23          	sh	a5,-36(s0)
     884:	87ba                	mv	a5,a4
     886:	fcf40da3          	sb	a5,-37(s0)
     88a:	fdf44783          	lbu	a5,-33(s0)
     88e:	fef40623          	sb	a5,-20(s0)
     892:	fdf44783          	lbu	a5,-33(s0)
     896:	078d                	addi	a5,a5,3
     898:	fef405a3          	sb	a5,-21(s0)
     89c:	fec44783          	lbu	a5,-20(s0)
     8a0:	fef407a3          	sb	a5,-17(s0)
     8a4:	a26d                	j	a4e <GMG12864_Print_symbol_3x5+0x1e6>
     8a6:	fef44703          	lbu	a4,-17(s0)
     8aa:	feb44783          	lbu	a5,-21(s0)
     8ae:	08f71263          	bne	a4,a5,932 <GMG12864_Print_symbol_3x5+0xca>
     8b2:	fe040723          	sb	zero,-18(s0)
     8b6:	a885                	j	926 <GMG12864_Print_symbol_3x5+0xbe>
     8b8:	fdb44783          	lbu	a5,-37(s0)
     8bc:	cb8d                	beqz	a5,8ee <GMG12864_Print_symbol_3x5+0x86>
     8be:	fef44783          	lbu	a5,-17(s0)
     8c2:	01079693          	slli	a3,a5,0x10
     8c6:	86c1                	srai	a3,a3,0x10
     8c8:	fde44783          	lbu	a5,-34(s0)
     8cc:	01079713          	slli	a4,a5,0x10
     8d0:	8341                	srli	a4,a4,0x10
     8d2:	fee44783          	lbu	a5,-18(s0)
     8d6:	07c2                	slli	a5,a5,0x10
     8d8:	83c1                	srli	a5,a5,0x10
     8da:	97ba                	add	a5,a5,a4
     8dc:	07c2                	slli	a5,a5,0x10
     8de:	83c1                	srli	a5,a5,0x10
     8e0:	07c2                	slli	a5,a5,0x10
     8e2:	87c1                	srai	a5,a5,0x10
     8e4:	4605                	li	a2,1
     8e6:	85be                	mv	a1,a5
     8e8:	8536                	mv	a0,a3
     8ea:	3655                	jal	48e <GMG12864_Draw_pixel>
     8ec:	a805                	j	91c <GMG12864_Print_symbol_3x5+0xb4>
     8ee:	fef44783          	lbu	a5,-17(s0)
     8f2:	01079693          	slli	a3,a5,0x10
     8f6:	86c1                	srai	a3,a3,0x10
     8f8:	fde44783          	lbu	a5,-34(s0)
     8fc:	01079713          	slli	a4,a5,0x10
     900:	8341                	srli	a4,a4,0x10
     902:	fee44783          	lbu	a5,-18(s0)
     906:	07c2                	slli	a5,a5,0x10
     908:	83c1                	srli	a5,a5,0x10
     90a:	97ba                	add	a5,a5,a4
     90c:	07c2                	slli	a5,a5,0x10
     90e:	83c1                	srli	a5,a5,0x10
     910:	07c2                	slli	a5,a5,0x10
     912:	87c1                	srai	a5,a5,0x10
     914:	4601                	li	a2,0
     916:	85be                	mv	a1,a5
     918:	8536                	mv	a0,a3
     91a:	3e95                	jal	48e <GMG12864_Draw_pixel>
     91c:	fee44783          	lbu	a5,-18(s0)
     920:	0785                	addi	a5,a5,1
     922:	fef40723          	sb	a5,-18(s0)
     926:	fee44703          	lbu	a4,-18(s0)
     92a:	4791                	li	a5,4
     92c:	f8e7f6e3          	bgeu	a5,a4,8b8 <GMG12864_Print_symbol_3x5+0x50>
     930:	aa11                	j	a44 <GMG12864_Print_symbol_3x5+0x1dc>
     932:	fe0406a3          	sb	zero,-19(s0)
     936:	a211                	j	a3a <GMG12864_Print_symbol_3x5+0x1d2>
     938:	fdc45703          	lhu	a4,-36(s0)
     93c:	87ba                	mv	a5,a4
     93e:	0786                	slli	a5,a5,0x1
     940:	973e                	add	a4,a4,a5
     942:	fef44783          	lbu	a5,-17(s0)
     946:	973e                	add	a4,a4,a5
     948:	fec44783          	lbu	a5,-20(s0)
     94c:	8f1d                	sub	a4,a4,a5
     94e:	6799                	lui	a5,0x6
     950:	58478793          	addi	a5,a5,1412 # 6584 <Font_3x5>
     954:	97ba                	add	a5,a5,a4
     956:	239c                	lbu	a5,0(a5)
     958:	873e                	mv	a4,a5
     95a:	fed44783          	lbu	a5,-19(s0)
     95e:	40f757b3          	sra	a5,a4,a5
     962:	8b85                	andi	a5,a5,1
     964:	c7a5                	beqz	a5,9cc <GMG12864_Print_symbol_3x5+0x164>
     966:	fdb44783          	lbu	a5,-37(s0)
     96a:	cb8d                	beqz	a5,99c <GMG12864_Print_symbol_3x5+0x134>
     96c:	fef44783          	lbu	a5,-17(s0)
     970:	01079693          	slli	a3,a5,0x10
     974:	86c1                	srai	a3,a3,0x10
     976:	fde44783          	lbu	a5,-34(s0)
     97a:	01079713          	slli	a4,a5,0x10
     97e:	8341                	srli	a4,a4,0x10
     980:	fed44783          	lbu	a5,-19(s0)
     984:	07c2                	slli	a5,a5,0x10
     986:	83c1                	srli	a5,a5,0x10
     988:	97ba                	add	a5,a5,a4
     98a:	07c2                	slli	a5,a5,0x10
     98c:	83c1                	srli	a5,a5,0x10
     98e:	07c2                	slli	a5,a5,0x10
     990:	87c1                	srai	a5,a5,0x10
     992:	4601                	li	a2,0
     994:	85be                	mv	a1,a5
     996:	8536                	mv	a0,a3
     998:	3cdd                	jal	48e <GMG12864_Draw_pixel>
     99a:	a859                	j	a30 <GMG12864_Print_symbol_3x5+0x1c8>
     99c:	fef44783          	lbu	a5,-17(s0)
     9a0:	01079693          	slli	a3,a5,0x10
     9a4:	86c1                	srai	a3,a3,0x10
     9a6:	fde44783          	lbu	a5,-34(s0)
     9aa:	01079713          	slli	a4,a5,0x10
     9ae:	8341                	srli	a4,a4,0x10
     9b0:	fed44783          	lbu	a5,-19(s0)
     9b4:	07c2                	slli	a5,a5,0x10
     9b6:	83c1                	srli	a5,a5,0x10
     9b8:	97ba                	add	a5,a5,a4
     9ba:	07c2                	slli	a5,a5,0x10
     9bc:	83c1                	srli	a5,a5,0x10
     9be:	07c2                	slli	a5,a5,0x10
     9c0:	87c1                	srai	a5,a5,0x10
     9c2:	4605                	li	a2,1
     9c4:	85be                	mv	a1,a5
     9c6:	8536                	mv	a0,a3
     9c8:	34d9                	jal	48e <GMG12864_Draw_pixel>
     9ca:	a09d                	j	a30 <GMG12864_Print_symbol_3x5+0x1c8>
     9cc:	fdb44783          	lbu	a5,-37(s0)
     9d0:	cb8d                	beqz	a5,a02 <GMG12864_Print_symbol_3x5+0x19a>
     9d2:	fef44783          	lbu	a5,-17(s0)
     9d6:	01079693          	slli	a3,a5,0x10
     9da:	86c1                	srai	a3,a3,0x10
     9dc:	fde44783          	lbu	a5,-34(s0)
     9e0:	01079713          	slli	a4,a5,0x10
     9e4:	8341                	srli	a4,a4,0x10
     9e6:	fed44783          	lbu	a5,-19(s0)
     9ea:	07c2                	slli	a5,a5,0x10
     9ec:	83c1                	srli	a5,a5,0x10
     9ee:	97ba                	add	a5,a5,a4
     9f0:	07c2                	slli	a5,a5,0x10
     9f2:	83c1                	srli	a5,a5,0x10
     9f4:	07c2                	slli	a5,a5,0x10
     9f6:	87c1                	srai	a5,a5,0x10
     9f8:	4605                	li	a2,1
     9fa:	85be                	mv	a1,a5
     9fc:	8536                	mv	a0,a3
     9fe:	3c41                	jal	48e <GMG12864_Draw_pixel>
     a00:	a805                	j	a30 <GMG12864_Print_symbol_3x5+0x1c8>
     a02:	fef44783          	lbu	a5,-17(s0)
     a06:	01079693          	slli	a3,a5,0x10
     a0a:	86c1                	srai	a3,a3,0x10
     a0c:	fde44783          	lbu	a5,-34(s0)
     a10:	01079713          	slli	a4,a5,0x10
     a14:	8341                	srli	a4,a4,0x10
     a16:	fed44783          	lbu	a5,-19(s0)
     a1a:	07c2                	slli	a5,a5,0x10
     a1c:	83c1                	srli	a5,a5,0x10
     a1e:	97ba                	add	a5,a5,a4
     a20:	07c2                	slli	a5,a5,0x10
     a22:	83c1                	srli	a5,a5,0x10
     a24:	07c2                	slli	a5,a5,0x10
     a26:	87c1                	srai	a5,a5,0x10
     a28:	4601                	li	a2,0
     a2a:	85be                	mv	a1,a5
     a2c:	8536                	mv	a0,a3
     a2e:	3485                	jal	48e <GMG12864_Draw_pixel>
     a30:	fed44783          	lbu	a5,-19(s0)
     a34:	0785                	addi	a5,a5,1
     a36:	fef406a3          	sb	a5,-19(s0)
     a3a:	fed44703          	lbu	a4,-19(s0)
     a3e:	4791                	li	a5,4
     a40:	eee7fce3          	bgeu	a5,a4,938 <GMG12864_Print_symbol_3x5+0xd0>
     a44:	fef44783          	lbu	a5,-17(s0)
     a48:	0785                	addi	a5,a5,1
     a4a:	fef407a3          	sb	a5,-17(s0)
     a4e:	fef44703          	lbu	a4,-17(s0)
     a52:	feb44783          	lbu	a5,-21(s0)
     a56:	e4e7f8e3          	bgeu	a5,a4,8a6 <GMG12864_Print_symbol_3x5+0x3e>
     a5a:	0001                	nop
     a5c:	50b2                	lw	ra,44(sp)
     a5e:	5422                	lw	s0,40(sp)
     a60:	6145                	addi	sp,sp,48
     a62:	8082                	ret

00000a64 <GMG12864_Decode_UTF8>:
     a64:	7179                	addi	sp,sp,-48
     a66:	d606                	sw	ra,44(sp)
     a68:	d422                	sw	s0,40(sp)
     a6a:	1800                	addi	s0,sp,48
     a6c:	87aa                	mv	a5,a0
     a6e:	fce42c23          	sw	a4,-40(s0)
     a72:	fcf40fa3          	sb	a5,-33(s0)
     a76:	87ae                	mv	a5,a1
     a78:	fcf40f23          	sb	a5,-34(s0)
     a7c:	87b2                	mv	a5,a2
     a7e:	fcf40ea3          	sb	a5,-35(s0)
     a82:	87b6                	mv	a5,a3
     a84:	fcf40e23          	sb	a5,-36(s0)
     a88:	fe041323          	sh	zero,-26(s0)
     a8c:	fe0407a3          	sb	zero,-17(s0)
     a90:	fe042423          	sw	zero,-24(s0)
     a94:	a159                	j	f1a <GMG12864_Decode_UTF8+0x4b6>
     a96:	fe842783          	lw	a5,-24(s0)
     a9a:	fd842703          	lw	a4,-40(s0)
     a9e:	97ba                	add	a5,a5,a4
     aa0:	2398                	lbu	a4,0(a5)
     aa2:	0bf00793          	li	a5,191
     aa6:	0ce7e463          	bltu	a5,a4,b6e <GMG12864_Decode_UTF8+0x10a>
     aaa:	fef44783          	lbu	a5,-17(s0)
     aae:	c781                	beqz	a5,ab6 <GMG12864_Decode_UTF8+0x52>
     ab0:	fe0407a3          	sb	zero,-17(s0)
     ab4:	a9b1                	j	f10 <GMG12864_Decode_UTF8+0x4ac>
     ab6:	fe842783          	lw	a5,-24(s0)
     aba:	fd842703          	lw	a4,-40(s0)
     abe:	97ba                	add	a5,a5,a4
     ac0:	239c                	lbu	a5,0(a5)
     ac2:	fef41323          	sh	a5,-26(s0)
     ac6:	fdd44783          	lbu	a5,-35(s0)
     aca:	e7b9                	bnez	a5,b18 <GMG12864_Decode_UTF8+0xb4>
     acc:	fdc44783          	lbu	a5,-36(s0)
     ad0:	c385                	beqz	a5,af0 <GMG12864_Decode_UTF8+0x8c>
     ad2:	fe645783          	lhu	a5,-26(s0)
     ad6:	1781                	addi	a5,a5,-32
     ad8:	01079613          	slli	a2,a5,0x10
     adc:	8241                	srli	a2,a2,0x10
     ade:	fde44703          	lbu	a4,-34(s0)
     ae2:	fdf44783          	lbu	a5,-33(s0)
     ae6:	4685                	li	a3,1
     ae8:	85ba                	mv	a1,a4
     aea:	853e                	mv	a0,a5
     aec:	3bb5                	jal	868 <GMG12864_Print_symbol_3x5>
     aee:	a839                	j	b0c <GMG12864_Decode_UTF8+0xa8>
     af0:	fe645783          	lhu	a5,-26(s0)
     af4:	1781                	addi	a5,a5,-32
     af6:	01079613          	slli	a2,a5,0x10
     afa:	8241                	srli	a2,a2,0x10
     afc:	fde44703          	lbu	a4,-34(s0)
     b00:	fdf44783          	lbu	a5,-33(s0)
     b04:	4681                	li	a3,0
     b06:	85ba                	mv	a1,a4
     b08:	853e                	mv	a0,a5
     b0a:	3bb9                	jal	868 <GMG12864_Print_symbol_3x5>
     b0c:	fdf44783          	lbu	a5,-33(s0)
     b10:	0791                	addi	a5,a5,4
     b12:	fcf40fa3          	sb	a5,-33(s0)
     b16:	aeed                	j	f10 <GMG12864_Decode_UTF8+0x4ac>
     b18:	fdd44703          	lbu	a4,-35(s0)
     b1c:	4785                	li	a5,1
     b1e:	3ef71963          	bne	a4,a5,f10 <GMG12864_Decode_UTF8+0x4ac>
     b22:	fdc44783          	lbu	a5,-36(s0)
     b26:	c385                	beqz	a5,b46 <GMG12864_Decode_UTF8+0xe2>
     b28:	fe645783          	lhu	a5,-26(s0)
     b2c:	1781                	addi	a5,a5,-32
     b2e:	01079613          	slli	a2,a5,0x10
     b32:	8241                	srli	a2,a2,0x10
     b34:	fde44703          	lbu	a4,-34(s0)
     b38:	fdf44783          	lbu	a5,-33(s0)
     b3c:	4685                	li	a3,1
     b3e:	85ba                	mv	a1,a4
     b40:	853e                	mv	a0,a5
     b42:	362d                	jal	66c <GMG12864_Print_symbol_5x7>
     b44:	a839                	j	b62 <GMG12864_Decode_UTF8+0xfe>
     b46:	fe645783          	lhu	a5,-26(s0)
     b4a:	1781                	addi	a5,a5,-32
     b4c:	01079613          	slli	a2,a5,0x10
     b50:	8241                	srli	a2,a2,0x10
     b52:	fde44703          	lbu	a4,-34(s0)
     b56:	fdf44783          	lbu	a5,-33(s0)
     b5a:	4681                	li	a3,0
     b5c:	85ba                	mv	a1,a4
     b5e:	853e                	mv	a0,a5
     b60:	3631                	jal	66c <GMG12864_Print_symbol_5x7>
     b62:	fdf44783          	lbu	a5,-33(s0)
     b66:	0799                	addi	a5,a5,6
     b68:	fcf40fa3          	sb	a5,-33(s0)
     b6c:	a655                	j	f10 <GMG12864_Decode_UTF8+0x4ac>
     b6e:	fe842783          	lw	a5,-24(s0)
     b72:	fd842703          	lw	a4,-40(s0)
     b76:	97ba                	add	a5,a5,a4
     b78:	239c                	lbu	a5,0(a5)
     b7a:	07a2                	slli	a5,a5,0x8
     b7c:	01079713          	slli	a4,a5,0x10
     b80:	8741                	srai	a4,a4,0x10
     b82:	fe842783          	lw	a5,-24(s0)
     b86:	0785                	addi	a5,a5,1
     b88:	fd842683          	lw	a3,-40(s0)
     b8c:	97b6                	add	a5,a5,a3
     b8e:	239c                	lbu	a5,0(a5)
     b90:	07c2                	slli	a5,a5,0x10
     b92:	87c1                	srai	a5,a5,0x10
     b94:	8fd9                	or	a5,a5,a4
     b96:	07c2                	slli	a5,a5,0x10
     b98:	87c1                	srai	a5,a5,0x10
     b9a:	fef41323          	sh	a5,-26(s0)
     b9e:	fe645703          	lhu	a4,-26(s0)
     ba2:	67b5                	lui	a5,0xd
     ba4:	17f78793          	addi	a5,a5,383 # d17f <_data_lma+0x6377>
     ba8:	0ce7e963          	bltu	a5,a4,c7a <GMG12864_Decode_UTF8+0x216>
     bac:	fe645703          	lhu	a4,-26(s0)
     bb0:	67b5                	lui	a5,0xd
     bb2:	08178793          	addi	a5,a5,129 # d081 <_data_lma+0x6279>
     bb6:	0ce7f263          	bgeu	a5,a4,c7a <GMG12864_Decode_UTF8+0x216>
     bba:	fdd44783          	lbu	a5,-35(s0)
     bbe:	efa9                	bnez	a5,c18 <GMG12864_Decode_UTF8+0x1b4>
     bc0:	fdc44783          	lbu	a5,-36(s0)
     bc4:	c39d                	beqz	a5,bea <GMG12864_Decode_UTF8+0x186>
     bc6:	fe645703          	lhu	a4,-26(s0)
     bca:	678d                	lui	a5,0x3
     bcc:	fcf78793          	addi	a5,a5,-49 # 2fcf <RVMSIS_I2C1_Init+0xd1>
     bd0:	97ba                	add	a5,a5,a4
     bd2:	01079613          	slli	a2,a5,0x10
     bd6:	8241                	srli	a2,a2,0x10
     bd8:	fde44703          	lbu	a4,-34(s0)
     bdc:	fdf44783          	lbu	a5,-33(s0)
     be0:	4685                	li	a3,1
     be2:	85ba                	mv	a1,a4
     be4:	853e                	mv	a0,a5
     be6:	3149                	jal	868 <GMG12864_Print_symbol_3x5>
     be8:	a015                	j	c0c <GMG12864_Decode_UTF8+0x1a8>
     bea:	fe645703          	lhu	a4,-26(s0)
     bee:	678d                	lui	a5,0x3
     bf0:	fcf78793          	addi	a5,a5,-49 # 2fcf <RVMSIS_I2C1_Init+0xd1>
     bf4:	97ba                	add	a5,a5,a4
     bf6:	01079613          	slli	a2,a5,0x10
     bfa:	8241                	srli	a2,a2,0x10
     bfc:	fde44703          	lbu	a4,-34(s0)
     c00:	fdf44783          	lbu	a5,-33(s0)
     c04:	4681                	li	a3,0
     c06:	85ba                	mv	a1,a4
     c08:	853e                	mv	a0,a5
     c0a:	39b9                	jal	868 <GMG12864_Print_symbol_3x5>
     c0c:	fdf44783          	lbu	a5,-33(s0)
     c10:	0791                	addi	a5,a5,4
     c12:	fcf40fa3          	sb	a5,-33(s0)
     c16:	accd                	j	f08 <GMG12864_Decode_UTF8+0x4a4>
     c18:	fdd44703          	lbu	a4,-35(s0)
     c1c:	4785                	li	a5,1
     c1e:	2ef71563          	bne	a4,a5,f08 <GMG12864_Decode_UTF8+0x4a4>
     c22:	fdc44783          	lbu	a5,-36(s0)
     c26:	c39d                	beqz	a5,c4c <GMG12864_Decode_UTF8+0x1e8>
     c28:	fe645703          	lhu	a4,-26(s0)
     c2c:	678d                	lui	a5,0x3
     c2e:	fcf78793          	addi	a5,a5,-49 # 2fcf <RVMSIS_I2C1_Init+0xd1>
     c32:	97ba                	add	a5,a5,a4
     c34:	01079613          	slli	a2,a5,0x10
     c38:	8241                	srli	a2,a2,0x10
     c3a:	fde44703          	lbu	a4,-34(s0)
     c3e:	fdf44783          	lbu	a5,-33(s0)
     c42:	4685                	li	a3,1
     c44:	85ba                	mv	a1,a4
     c46:	853e                	mv	a0,a5
     c48:	3415                	jal	66c <GMG12864_Print_symbol_5x7>
     c4a:	a015                	j	c6e <GMG12864_Decode_UTF8+0x20a>
     c4c:	fe645703          	lhu	a4,-26(s0)
     c50:	678d                	lui	a5,0x3
     c52:	fcf78793          	addi	a5,a5,-49 # 2fcf <RVMSIS_I2C1_Init+0xd1>
     c56:	97ba                	add	a5,a5,a4
     c58:	01079613          	slli	a2,a5,0x10
     c5c:	8241                	srli	a2,a2,0x10
     c5e:	fde44703          	lbu	a4,-34(s0)
     c62:	fdf44783          	lbu	a5,-33(s0)
     c66:	4681                	li	a3,0
     c68:	85ba                	mv	a1,a4
     c6a:	853e                	mv	a0,a5
     c6c:	3401                	jal	66c <GMG12864_Print_symbol_5x7>
     c6e:	fdf44783          	lbu	a5,-33(s0)
     c72:	0799                	addi	a5,a5,6
     c74:	fcf40fa3          	sb	a5,-33(s0)
     c78:	ac41                	j	f08 <GMG12864_Decode_UTF8+0x4a4>
     c7a:	fe645703          	lhu	a4,-26(s0)
     c7e:	67b5                	lui	a5,0xd
     c80:	08178793          	addi	a5,a5,129 # d081 <_data_lma+0x6279>
     c84:	08f71663          	bne	a4,a5,d10 <GMG12864_Decode_UTF8+0x2ac>
     c88:	fdd44783          	lbu	a5,-35(s0)
     c8c:	ef9d                	bnez	a5,cca <GMG12864_Decode_UTF8+0x266>
     c8e:	fdc44783          	lbu	a5,-36(s0)
     c92:	cf81                	beqz	a5,caa <GMG12864_Decode_UTF8+0x246>
     c94:	fde44703          	lbu	a4,-34(s0)
     c98:	fdf44783          	lbu	a5,-33(s0)
     c9c:	4685                	li	a3,1
     c9e:	09f00613          	li	a2,159
     ca2:	85ba                	mv	a1,a4
     ca4:	853e                	mv	a0,a5
     ca6:	36c9                	jal	868 <GMG12864_Print_symbol_3x5>
     ca8:	a819                	j	cbe <GMG12864_Decode_UTF8+0x25a>
     caa:	fde44703          	lbu	a4,-34(s0)
     cae:	fdf44783          	lbu	a5,-33(s0)
     cb2:	4681                	li	a3,0
     cb4:	09f00613          	li	a2,159
     cb8:	85ba                	mv	a1,a4
     cba:	853e                	mv	a0,a5
     cbc:	3675                	jal	868 <GMG12864_Print_symbol_3x5>
     cbe:	fdf44783          	lbu	a5,-33(s0)
     cc2:	0791                	addi	a5,a5,4
     cc4:	fcf40fa3          	sb	a5,-33(s0)
     cc8:	a489                	j	f0a <GMG12864_Decode_UTF8+0x4a6>
     cca:	fdd44703          	lbu	a4,-35(s0)
     cce:	4785                	li	a5,1
     cd0:	22f71d63          	bne	a4,a5,f0a <GMG12864_Decode_UTF8+0x4a6>
     cd4:	fdc44783          	lbu	a5,-36(s0)
     cd8:	cf81                	beqz	a5,cf0 <GMG12864_Decode_UTF8+0x28c>
     cda:	fde44703          	lbu	a4,-34(s0)
     cde:	fdf44783          	lbu	a5,-33(s0)
     ce2:	4685                	li	a3,1
     ce4:	09f00613          	li	a2,159
     ce8:	85ba                	mv	a1,a4
     cea:	853e                	mv	a0,a5
     cec:	3241                	jal	66c <GMG12864_Print_symbol_5x7>
     cee:	a819                	j	d04 <GMG12864_Decode_UTF8+0x2a0>
     cf0:	fde44703          	lbu	a4,-34(s0)
     cf4:	fdf44783          	lbu	a5,-33(s0)
     cf8:	4681                	li	a3,0
     cfa:	09f00613          	li	a2,159
     cfe:	85ba                	mv	a1,a4
     d00:	853e                	mv	a0,a5
     d02:	32ad                	jal	66c <GMG12864_Print_symbol_5x7>
     d04:	fdf44783          	lbu	a5,-33(s0)
     d08:	0799                	addi	a5,a5,6
     d0a:	fcf40fa3          	sb	a5,-33(s0)
     d0e:	aaf5                	j	f0a <GMG12864_Decode_UTF8+0x4a6>
     d10:	fe645703          	lhu	a4,-26(s0)
     d14:	67b5                	lui	a5,0xd
     d16:	19178793          	addi	a5,a5,401 # d191 <_data_lma+0x6389>
     d1a:	08f71863          	bne	a4,a5,daa <GMG12864_Decode_UTF8+0x346>
     d1e:	fdd44783          	lbu	a5,-35(s0)
     d22:	ef9d                	bnez	a5,d60 <GMG12864_Decode_UTF8+0x2fc>
     d24:	fdc44783          	lbu	a5,-36(s0)
     d28:	cf81                	beqz	a5,d40 <GMG12864_Decode_UTF8+0x2dc>
     d2a:	fde44703          	lbu	a4,-34(s0)
     d2e:	fdf44783          	lbu	a5,-33(s0)
     d32:	4685                	li	a3,1
     d34:	0a000613          	li	a2,160
     d38:	85ba                	mv	a1,a4
     d3a:	853e                	mv	a0,a5
     d3c:	3635                	jal	868 <GMG12864_Print_symbol_3x5>
     d3e:	a819                	j	d54 <GMG12864_Decode_UTF8+0x2f0>
     d40:	fde44703          	lbu	a4,-34(s0)
     d44:	fdf44783          	lbu	a5,-33(s0)
     d48:	4681                	li	a3,0
     d4a:	0a000613          	li	a2,160
     d4e:	85ba                	mv	a1,a4
     d50:	853e                	mv	a0,a5
     d52:	3e19                	jal	868 <GMG12864_Print_symbol_3x5>
     d54:	fdf44783          	lbu	a5,-33(s0)
     d58:	0791                	addi	a5,a5,4
     d5a:	fcf40fa3          	sb	a5,-33(s0)
     d5e:	a275                	j	f0a <GMG12864_Decode_UTF8+0x4a6>
     d60:	fdd44703          	lbu	a4,-35(s0)
     d64:	4785                	li	a5,1
     d66:	1af71263          	bne	a4,a5,f0a <GMG12864_Decode_UTF8+0x4a6>
     d6a:	fdc44783          	lbu	a5,-36(s0)
     d6e:	cf89                	beqz	a5,d88 <GMG12864_Decode_UTF8+0x324>
     d70:	fde44703          	lbu	a4,-34(s0)
     d74:	fdf44783          	lbu	a5,-33(s0)
     d78:	4685                	li	a3,1
     d7a:	0a000613          	li	a2,160
     d7e:	85ba                	mv	a1,a4
     d80:	853e                	mv	a0,a5
     d82:	8ebff0ef          	jal	ra,66c <GMG12864_Print_symbol_5x7>
     d86:	a821                	j	d9e <GMG12864_Decode_UTF8+0x33a>
     d88:	fde44703          	lbu	a4,-34(s0)
     d8c:	fdf44783          	lbu	a5,-33(s0)
     d90:	4681                	li	a3,0
     d92:	0a000613          	li	a2,160
     d96:	85ba                	mv	a1,a4
     d98:	853e                	mv	a0,a5
     d9a:	8d3ff0ef          	jal	ra,66c <GMG12864_Print_symbol_5x7>
     d9e:	fdf44783          	lbu	a5,-33(s0)
     da2:	0799                	addi	a5,a5,6
     da4:	fcf40fa3          	sb	a5,-33(s0)
     da8:	a28d                	j	f0a <GMG12864_Decode_UTF8+0x4a6>
     daa:	fe645703          	lhu	a4,-26(s0)
     dae:	67b1                	lui	a5,0xc
     db0:	2b078793          	addi	a5,a5,688 # c2b0 <_data_lma+0x54a8>
     db4:	08f71863          	bne	a4,a5,e44 <GMG12864_Decode_UTF8+0x3e0>
     db8:	fdd44783          	lbu	a5,-35(s0)
     dbc:	ef9d                	bnez	a5,dfa <GMG12864_Decode_UTF8+0x396>
     dbe:	fdc44783          	lbu	a5,-36(s0)
     dc2:	cf81                	beqz	a5,dda <GMG12864_Decode_UTF8+0x376>
     dc4:	fde44703          	lbu	a4,-34(s0)
     dc8:	fdf44783          	lbu	a5,-33(s0)
     dcc:	4685                	li	a3,1
     dce:	0a100613          	li	a2,161
     dd2:	85ba                	mv	a1,a4
     dd4:	853e                	mv	a0,a5
     dd6:	3c49                	jal	868 <GMG12864_Print_symbol_3x5>
     dd8:	a819                	j	dee <GMG12864_Decode_UTF8+0x38a>
     dda:	fde44703          	lbu	a4,-34(s0)
     dde:	fdf44783          	lbu	a5,-33(s0)
     de2:	4681                	li	a3,0
     de4:	0a100613          	li	a2,161
     de8:	85ba                	mv	a1,a4
     dea:	853e                	mv	a0,a5
     dec:	3cb5                	jal	868 <GMG12864_Print_symbol_3x5>
     dee:	fdf44783          	lbu	a5,-33(s0)
     df2:	0791                	addi	a5,a5,4
     df4:	fcf40fa3          	sb	a5,-33(s0)
     df8:	aa09                	j	f0a <GMG12864_Decode_UTF8+0x4a6>
     dfa:	fdd44703          	lbu	a4,-35(s0)
     dfe:	4785                	li	a5,1
     e00:	10f71563          	bne	a4,a5,f0a <GMG12864_Decode_UTF8+0x4a6>
     e04:	fdc44783          	lbu	a5,-36(s0)
     e08:	cf89                	beqz	a5,e22 <GMG12864_Decode_UTF8+0x3be>
     e0a:	fde44703          	lbu	a4,-34(s0)
     e0e:	fdf44783          	lbu	a5,-33(s0)
     e12:	4685                	li	a3,1
     e14:	0a100613          	li	a2,161
     e18:	85ba                	mv	a1,a4
     e1a:	853e                	mv	a0,a5
     e1c:	851ff0ef          	jal	ra,66c <GMG12864_Print_symbol_5x7>
     e20:	a821                	j	e38 <GMG12864_Decode_UTF8+0x3d4>
     e22:	fde44703          	lbu	a4,-34(s0)
     e26:	fdf44783          	lbu	a5,-33(s0)
     e2a:	4681                	li	a3,0
     e2c:	0a100613          	li	a2,161
     e30:	85ba                	mv	a1,a4
     e32:	853e                	mv	a0,a5
     e34:	839ff0ef          	jal	ra,66c <GMG12864_Print_symbol_5x7>
     e38:	fdf44783          	lbu	a5,-33(s0)
     e3c:	0799                	addi	a5,a5,6
     e3e:	fcf40fa3          	sb	a5,-33(s0)
     e42:	a0e1                	j	f0a <GMG12864_Decode_UTF8+0x4a6>
     e44:	fdd44783          	lbu	a5,-35(s0)
     e48:	efa9                	bnez	a5,ea2 <GMG12864_Decode_UTF8+0x43e>
     e4a:	fdc44783          	lbu	a5,-36(s0)
     e4e:	c39d                	beqz	a5,e74 <GMG12864_Decode_UTF8+0x410>
     e50:	fe645703          	lhu	a4,-26(s0)
     e54:	678d                	lui	a5,0x3
     e56:	f0f78793          	addi	a5,a5,-241 # 2f0f <RVMSIS_I2C1_Init+0x11>
     e5a:	97ba                	add	a5,a5,a4
     e5c:	01079613          	slli	a2,a5,0x10
     e60:	8241                	srli	a2,a2,0x10
     e62:	fde44703          	lbu	a4,-34(s0)
     e66:	fdf44783          	lbu	a5,-33(s0)
     e6a:	4685                	li	a3,1
     e6c:	85ba                	mv	a1,a4
     e6e:	853e                	mv	a0,a5
     e70:	3ae5                	jal	868 <GMG12864_Print_symbol_3x5>
     e72:	a015                	j	e96 <GMG12864_Decode_UTF8+0x432>
     e74:	fe645703          	lhu	a4,-26(s0)
     e78:	678d                	lui	a5,0x3
     e7a:	f0f78793          	addi	a5,a5,-241 # 2f0f <RVMSIS_I2C1_Init+0x11>
     e7e:	97ba                	add	a5,a5,a4
     e80:	01079613          	slli	a2,a5,0x10
     e84:	8241                	srli	a2,a2,0x10
     e86:	fde44703          	lbu	a4,-34(s0)
     e8a:	fdf44783          	lbu	a5,-33(s0)
     e8e:	4681                	li	a3,0
     e90:	85ba                	mv	a1,a4
     e92:	853e                	mv	a0,a5
     e94:	3ad1                	jal	868 <GMG12864_Print_symbol_3x5>
     e96:	fdf44783          	lbu	a5,-33(s0)
     e9a:	0791                	addi	a5,a5,4
     e9c:	fcf40fa3          	sb	a5,-33(s0)
     ea0:	a0ad                	j	f0a <GMG12864_Decode_UTF8+0x4a6>
     ea2:	fdd44703          	lbu	a4,-35(s0)
     ea6:	4785                	li	a5,1
     ea8:	06f71163          	bne	a4,a5,f0a <GMG12864_Decode_UTF8+0x4a6>
     eac:	fdc44783          	lbu	a5,-36(s0)
     eb0:	c785                	beqz	a5,ed8 <GMG12864_Decode_UTF8+0x474>
     eb2:	fe645703          	lhu	a4,-26(s0)
     eb6:	678d                	lui	a5,0x3
     eb8:	f0f78793          	addi	a5,a5,-241 # 2f0f <RVMSIS_I2C1_Init+0x11>
     ebc:	97ba                	add	a5,a5,a4
     ebe:	01079613          	slli	a2,a5,0x10
     ec2:	8241                	srli	a2,a2,0x10
     ec4:	fde44703          	lbu	a4,-34(s0)
     ec8:	fdf44783          	lbu	a5,-33(s0)
     ecc:	4685                	li	a3,1
     ece:	85ba                	mv	a1,a4
     ed0:	853e                	mv	a0,a5
     ed2:	f9aff0ef          	jal	ra,66c <GMG12864_Print_symbol_5x7>
     ed6:	a01d                	j	efc <GMG12864_Decode_UTF8+0x498>
     ed8:	fe645703          	lhu	a4,-26(s0)
     edc:	678d                	lui	a5,0x3
     ede:	f0f78793          	addi	a5,a5,-241 # 2f0f <RVMSIS_I2C1_Init+0x11>
     ee2:	97ba                	add	a5,a5,a4
     ee4:	01079613          	slli	a2,a5,0x10
     ee8:	8241                	srli	a2,a2,0x10
     eea:	fde44703          	lbu	a4,-34(s0)
     eee:	fdf44783          	lbu	a5,-33(s0)
     ef2:	4681                	li	a3,0
     ef4:	85ba                	mv	a1,a4
     ef6:	853e                	mv	a0,a5
     ef8:	f74ff0ef          	jal	ra,66c <GMG12864_Print_symbol_5x7>
     efc:	fdf44783          	lbu	a5,-33(s0)
     f00:	0799                	addi	a5,a5,6
     f02:	fcf40fa3          	sb	a5,-33(s0)
     f06:	a011                	j	f0a <GMG12864_Decode_UTF8+0x4a6>
     f08:	0001                	nop
     f0a:	4785                	li	a5,1
     f0c:	fef407a3          	sb	a5,-17(s0)
     f10:	fe842783          	lw	a5,-24(s0)
     f14:	0785                	addi	a5,a5,1
     f16:	fef42423          	sw	a5,-24(s0)
     f1a:	fd842503          	lw	a0,-40(s0)
     f1e:	2c1040ef          	jal	ra,59de <strlen>
     f22:	872a                	mv	a4,a0
     f24:	fe842783          	lw	a5,-24(s0)
     f28:	b6e7e7e3          	bltu	a5,a4,a96 <GMG12864_Decode_UTF8+0x32>
     f2c:	0001                	nop
     f2e:	50b2                	lw	ra,44(sp)
     f30:	5422                	lw	s0,40(sp)
     f32:	6145                	addi	sp,sp,48
     f34:	8082                	ret

00000f36 <GMG12864_Value_for_Plot>:
     f36:	7139                	addi	sp,sp,-64
     f38:	de06                	sw	ra,60(sp)
     f3a:	dc22                	sw	s0,56(sp)
     f3c:	da26                	sw	s1,52(sp)
     f3e:	0080                	addi	s0,sp,64
     f40:	fca42623          	sw	a0,-52(s0)
     f44:	fcb42423          	sw	a1,-56(s0)
     f48:	fcc42223          	sw	a2,-60(s0)
     f4c:	fc042a23          	sw	zero,-44(s0)
     f50:	fc042c23          	sw	zero,-40(s0)
     f54:	fc042e23          	sw	zero,-36(s0)
     f58:	fe042023          	sw	zero,-32(s0)
     f5c:	fe042223          	sw	zero,-28(s0)
     f60:	fe0407a3          	sb	zero,-17(s0)
     f64:	fc842703          	lw	a4,-56(s0)
     f68:	fcc42783          	lw	a5,-52(s0)
     f6c:	0ae7d063          	bge	a5,a4,100c <GMG12864_Value_for_Plot+0xd6>
     f70:	fcc42503          	lw	a0,-52(s0)
     f74:	025040ef          	jal	ra,5798 <__floatsisf>
     f78:	87aa                	mv	a5,a0
     f7a:	85be                	mv	a1,a5
     f7c:	fc442503          	lw	a0,-60(s0)
     f80:	036040ef          	jal	ra,4fb6 <__gesf2>
     f84:	87aa                	mv	a5,a0
     f86:	0807c363          	bltz	a5,100c <GMG12864_Value_for_Plot+0xd6>
     f8a:	fc842503          	lw	a0,-56(s0)
     f8e:	00b040ef          	jal	ra,5798 <__floatsisf>
     f92:	87aa                	mv	a5,a0
     f94:	85be                	mv	a1,a5
     f96:	fc442503          	lw	a0,-60(s0)
     f9a:	0a2040ef          	jal	ra,503c <__lesf2>
     f9e:	87aa                	mv	a5,a0
     fa0:	06f04663          	bgtz	a5,100c <GMG12864_Value_for_Plot+0xd6>
     fa4:	fc842503          	lw	a0,-56(s0)
     fa8:	7f0040ef          	jal	ra,5798 <__floatsisf>
     fac:	87aa                	mv	a5,a0
     fae:	fc442583          	lw	a1,-60(s0)
     fb2:	853e                	mv	a0,a5
     fb4:	3a4040ef          	jal	ra,5358 <__subsf3>
     fb8:	87aa                	mv	a5,a0
     fba:	84be                	mv	s1,a5
     fbc:	fc842703          	lw	a4,-56(s0)
     fc0:	fcc42783          	lw	a5,-52(s0)
     fc4:	40f707b3          	sub	a5,a4,a5
     fc8:	853e                	mv	a0,a5
     fca:	7ce040ef          	jal	ra,5798 <__floatsisf>
     fce:	872a                	mv	a4,a0
     fd0:	6799                	lui	a5,0x6
     fd2:	85ba                	mv	a1,a4
     fd4:	4987a503          	lw	a0,1176(a5) # 6498 <_sbrk+0xa0>
     fd8:	52d030ef          	jal	ra,4d04 <__divsf3>
     fdc:	87aa                	mv	a5,a0
     fde:	85be                	mv	a1,a5
     fe0:	8526                	mv	a0,s1
     fe2:	0e6040ef          	jal	ra,50c8 <__mulsf3>
     fe6:	87aa                	mv	a5,a0
     fe8:	873e                	mv	a4,a5
     fea:	6799                	lui	a5,0x6
     fec:	85ba                	mv	a1,a4
     fee:	4987a503          	lw	a0,1176(a5) # 6498 <_sbrk+0xa0>
     ff2:	366040ef          	jal	ra,5358 <__subsf3>
     ff6:	87aa                	mv	a5,a0
     ff8:	fef42423          	sw	a5,-24(s0)
     ffc:	fe842503          	lw	a0,-24(s0)
    1000:	742040ef          	jal	ra,5742 <__fixunssfsi>
    1004:	87aa                	mv	a5,a0
    1006:	fef407a3          	sb	a5,-17(s0)
    100a:	a841                	j	109a <GMG12864_Value_for_Plot+0x164>
    100c:	fc842503          	lw	a0,-56(s0)
    1010:	788040ef          	jal	ra,5798 <__floatsisf>
    1014:	87aa                	mv	a5,a0
    1016:	85be                	mv	a1,a5
    1018:	fc442503          	lw	a0,-60(s0)
    101c:	79b030ef          	jal	ra,4fb6 <__gesf2>
    1020:	87aa                	mv	a5,a0
    1022:	02f05a63          	blez	a5,1056 <GMG12864_Value_for_Plot+0x120>
    1026:	03200793          	li	a5,50
    102a:	fef407a3          	sb	a5,-17(s0)
    102e:	fd440713          	addi	a4,s0,-44
    1032:	6799                	lui	a5,0x6
    1034:	45478593          	addi	a1,a5,1108 # 6454 <_sbrk+0x5c>
    1038:	853a                	mv	a0,a4
    103a:	161040ef          	jal	ra,599a <siprintf>
    103e:	fd440793          	addi	a5,s0,-44
    1042:	873e                	mv	a4,a5
    1044:	4681                	li	a3,0
    1046:	4605                	li	a2,1
    1048:	45e9                	li	a1,26
    104a:	02500513          	li	a0,37
    104e:	3c19                	jal	a64 <GMG12864_Decode_UTF8>
    1050:	d80ff0ef          	jal	ra,5d0 <GMG12864_Update>
    1054:	a099                	j	109a <GMG12864_Value_for_Plot+0x164>
    1056:	fcc42503          	lw	a0,-52(s0)
    105a:	73e040ef          	jal	ra,5798 <__floatsisf>
    105e:	87aa                	mv	a5,a0
    1060:	85be                	mv	a1,a5
    1062:	fc442503          	lw	a0,-60(s0)
    1066:	7d7030ef          	jal	ra,503c <__lesf2>
    106a:	87aa                	mv	a5,a0
    106c:	0207d763          	bgez	a5,109a <GMG12864_Value_for_Plot+0x164>
    1070:	fe0407a3          	sb	zero,-17(s0)
    1074:	fd440713          	addi	a4,s0,-44
    1078:	6799                	lui	a5,0x6
    107a:	45478593          	addi	a1,a5,1108 # 6454 <_sbrk+0x5c>
    107e:	853a                	mv	a0,a4
    1080:	11b040ef          	jal	ra,599a <siprintf>
    1084:	fd440793          	addi	a5,s0,-44
    1088:	873e                	mv	a4,a5
    108a:	4681                	li	a3,0
    108c:	4605                	li	a2,1
    108e:	45e9                	li	a1,26
    1090:	02500513          	li	a0,37
    1094:	3ac1                	jal	a64 <GMG12864_Decode_UTF8>
    1096:	d3aff0ef          	jal	ra,5d0 <GMG12864_Update>
    109a:	fef44783          	lbu	a5,-17(s0)
    109e:	853e                	mv	a0,a5
    10a0:	50f2                	lw	ra,60(sp)
    10a2:	5462                	lw	s0,56(sp)
    10a4:	54d2                	lw	s1,52(sp)
    10a6:	6121                	addi	sp,sp,64
    10a8:	8082                	ret

000010aa <GMG12864_Fill_the_array_Plot>:
    10aa:	7179                	addi	sp,sp,-48
    10ac:	d622                	sw	s0,44(sp)
    10ae:	1800                	addi	s0,sp,48
    10b0:	fca42e23          	sw	a0,-36(s0)
    10b4:	fcb42c23          	sw	a1,-40(s0)
    10b8:	87b2                	mv	a5,a2
    10ba:	fcd42823          	sw	a3,-48(s0)
    10be:	fcf40ba3          	sb	a5,-41(s0)
    10c2:	87ba                	mv	a5,a4
    10c4:	fcf40b23          	sb	a5,-42(s0)
    10c8:	fdc42783          	lw	a5,-36(s0)
    10cc:	239c                	lbu	a5,0(a5)
    10ce:	e791                	bnez	a5,10da <GMG12864_Fill_the_array_Plot+0x30>
    10d0:	fd842783          	lw	a5,-40(s0)
    10d4:	fd644703          	lbu	a4,-42(s0)
    10d8:	a398                	sb	a4,0(a5)
    10da:	fdc42783          	lw	a5,-36(s0)
    10de:	239c                	lbu	a5,0(a5)
    10e0:	cff9                	beqz	a5,11be <GMG12864_Fill_the_array_Plot+0x114>
    10e2:	fdc42783          	lw	a5,-36(s0)
    10e6:	239c                	lbu	a5,0(a5)
    10e8:	fd744703          	lbu	a4,-41(s0)
    10ec:	06e7fb63          	bgeu	a5,a4,1162 <GMG12864_Fill_the_array_Plot+0xb8>
    10f0:	fe042623          	sw	zero,-20(s0)
    10f4:	a8b1                	j	1150 <GMG12864_Fill_the_array_Plot+0xa6>
    10f6:	fdc42783          	lw	a5,-36(s0)
    10fa:	239c                	lbu	a5,0(a5)
    10fc:	873e                	mv	a4,a5
    10fe:	fec42783          	lw	a5,-20(s0)
    1102:	00e79863          	bne	a5,a4,1112 <GMG12864_Fill_the_array_Plot+0x68>
    1106:	fd842783          	lw	a5,-40(s0)
    110a:	fd644703          	lbu	a4,-42(s0)
    110e:	a398                	sb	a4,0(a5)
    1110:	a81d                	j	1146 <GMG12864_Fill_the_array_Plot+0x9c>
    1112:	fdc42783          	lw	a5,-36(s0)
    1116:	239c                	lbu	a5,0(a5)
    1118:	873e                	mv	a4,a5
    111a:	fec42783          	lw	a5,-20(s0)
    111e:	40f707b3          	sub	a5,a4,a5
    1122:	17fd                	addi	a5,a5,-1
    1124:	fd842703          	lw	a4,-40(s0)
    1128:	973e                	add	a4,a4,a5
    112a:	fdc42783          	lw	a5,-36(s0)
    112e:	239c                	lbu	a5,0(a5)
    1130:	86be                	mv	a3,a5
    1132:	fec42783          	lw	a5,-20(s0)
    1136:	40f687b3          	sub	a5,a3,a5
    113a:	86be                	mv	a3,a5
    113c:	fd842783          	lw	a5,-40(s0)
    1140:	97b6                	add	a5,a5,a3
    1142:	2318                	lbu	a4,0(a4)
    1144:	a398                	sb	a4,0(a5)
    1146:	fec42783          	lw	a5,-20(s0)
    114a:	0785                	addi	a5,a5,1
    114c:	fef42623          	sw	a5,-20(s0)
    1150:	fdc42783          	lw	a5,-36(s0)
    1154:	239c                	lbu	a5,0(a5)
    1156:	873e                	mv	a4,a5
    1158:	fec42783          	lw	a5,-20(s0)
    115c:	f8f75de3          	bge	a4,a5,10f6 <GMG12864_Fill_the_array_Plot+0x4c>
    1160:	a8b9                	j	11be <GMG12864_Fill_the_array_Plot+0x114>
    1162:	fdc42783          	lw	a5,-36(s0)
    1166:	239c                	lbu	a5,0(a5)
    1168:	fd744703          	lbu	a4,-41(s0)
    116c:	04e7e963          	bltu	a5,a4,11be <GMG12864_Fill_the_array_Plot+0x114>
    1170:	fd744783          	lbu	a5,-41(s0)
    1174:	17fd                	addi	a5,a5,-1
    1176:	fef42423          	sw	a5,-24(s0)
    117a:	a835                	j	11b6 <GMG12864_Fill_the_array_Plot+0x10c>
    117c:	fe842783          	lw	a5,-24(s0)
    1180:	17fd                	addi	a5,a5,-1
    1182:	fd842703          	lw	a4,-40(s0)
    1186:	973e                	add	a4,a4,a5
    1188:	fe842783          	lw	a5,-24(s0)
    118c:	fd842683          	lw	a3,-40(s0)
    1190:	97b6                	add	a5,a5,a3
    1192:	2318                	lbu	a4,0(a4)
    1194:	a398                	sb	a4,0(a5)
    1196:	fe842783          	lw	a5,-24(s0)
    119a:	eb89                	bnez	a5,11ac <GMG12864_Fill_the_array_Plot+0x102>
    119c:	fe842783          	lw	a5,-24(s0)
    11a0:	fd842703          	lw	a4,-40(s0)
    11a4:	97ba                	add	a5,a5,a4
    11a6:	fd644703          	lbu	a4,-42(s0)
    11aa:	a398                	sb	a4,0(a5)
    11ac:	fe842783          	lw	a5,-24(s0)
    11b0:	17fd                	addi	a5,a5,-1
    11b2:	fef42423          	sw	a5,-24(s0)
    11b6:	fe842783          	lw	a5,-24(s0)
    11ba:	fc07d1e3          	bgez	a5,117c <GMG12864_Fill_the_array_Plot+0xd2>
    11be:	fdc42783          	lw	a5,-36(s0)
    11c2:	239c                	lbu	a5,0(a5)
    11c4:	0785                	addi	a5,a5,1
    11c6:	0ff7f713          	andi	a4,a5,255
    11ca:	fdc42783          	lw	a5,-36(s0)
    11ce:	a398                	sb	a4,0(a5)
    11d0:	fdc42783          	lw	a5,-36(s0)
    11d4:	2398                	lbu	a4,0(a5)
    11d6:	0fa00793          	li	a5,250
    11da:	00f71763          	bne	a4,a5,11e8 <GMG12864_Fill_the_array_Plot+0x13e>
    11de:	fdc42783          	lw	a5,-36(s0)
    11e2:	f8000713          	li	a4,-128
    11e6:	a398                	sb	a4,0(a5)
    11e8:	fdc42783          	lw	a5,-36(s0)
    11ec:	239c                	lbu	a5,0(a5)
    11ee:	fd744703          	lbu	a4,-41(s0)
    11f2:	00f76d63          	bltu	a4,a5,120c <GMG12864_Fill_the_array_Plot+0x162>
    11f6:	fdc42783          	lw	a5,-36(s0)
    11fa:	239c                	lbu	a5,0(a5)
    11fc:	fd744703          	lbu	a4,-41(s0)
    1200:	00f71663          	bne	a4,a5,120c <GMG12864_Fill_the_array_Plot+0x162>
    1204:	fd042783          	lw	a5,-48(s0)
    1208:	4705                	li	a4,1
    120a:	a398                	sb	a4,0(a5)
    120c:	0001                	nop
    120e:	5432                	lw	s0,44(sp)
    1210:	6145                	addi	sp,sp,48
    1212:	8082                	ret

00001214 <GMG12864_Generate_a_Graph>:
    1214:	711d                	addi	sp,sp,-96
    1216:	ce86                	sw	ra,92(sp)
    1218:	cca2                	sw	s0,88(sp)
    121a:	1080                	addi	s0,sp,96
    121c:	faa42e23          	sw	a0,-68(s0)
    1220:	fab42c23          	sw	a1,-72(s0)
    1224:	fad42823          	sw	a3,-80(s0)
    1228:	fae42623          	sw	a4,-84(s0)
    122c:	faf42423          	sw	a5,-88(s0)
    1230:	86c2                	mv	a3,a6
    1232:	8746                	mv	a4,a7
    1234:	87b2                	mv	a5,a2
    1236:	faf40ba3          	sb	a5,-73(s0)
    123a:	87b6                	mv	a5,a3
    123c:	faf40b23          	sb	a5,-74(s0)
    1240:	87ba                	mv	a5,a4
    1242:	faf40aa3          	sb	a5,-75(s0)
    1246:	fac42783          	lw	a5,-84(s0)
    124a:	fef42623          	sw	a5,-20(s0)
    124e:	fa842783          	lw	a5,-88(s0)
    1252:	fef42423          	sw	a5,-24(s0)
    1256:	fac42783          	lw	a5,-84(s0)
    125a:	0007d863          	bgez	a5,126a <GMG12864_Generate_a_Graph+0x56>
    125e:	fec42783          	lw	a5,-20(s0)
    1262:	40f007b3          	neg	a5,a5
    1266:	fef42623          	sw	a5,-20(s0)
    126a:	fa842783          	lw	a5,-88(s0)
    126e:	0007d863          	bgez	a5,127e <GMG12864_Generate_a_Graph+0x6a>
    1272:	fe842783          	lw	a5,-24(s0)
    1276:	40f007b3          	neg	a5,a5
    127a:	fef42423          	sw	a5,-24(s0)
    127e:	fec42703          	lw	a4,-20(s0)
    1282:	fe842783          	lw	a5,-24(s0)
    1286:	973e                	add	a4,a4,a5
    1288:	4795                	li	a5,5
    128a:	02f747b3          	div	a5,a4,a5
    128e:	fcf42a23          	sw	a5,-44(s0)
    1292:	fc042023          	sw	zero,-64(s0)
    1296:	fc042223          	sw	zero,-60(s0)
    129a:	fc042423          	sw	zero,-56(s0)
    129e:	fc042623          	sw	zero,-52(s0)
    12a2:	fc042823          	sw	zero,-48(s0)
    12a6:	910ff0ef          	jal	ra,3b6 <GMG12864_Clean_Frame_buffer>
    12aa:	fc040713          	addi	a4,s0,-64
    12ae:	fac42603          	lw	a2,-84(s0)
    12b2:	6799                	lui	a5,0x6
    12b4:	46478593          	addi	a1,a5,1124 # 6464 <_sbrk+0x6c>
    12b8:	853a                	mv	a0,a4
    12ba:	6e0040ef          	jal	ra,599a <siprintf>
    12be:	fc040793          	addi	a5,s0,-64
    12c2:	873e                	mv	a4,a5
    12c4:	4681                	li	a3,0
    12c6:	4601                	li	a2,0
    12c8:	03000593          	li	a1,48
    12cc:	4521                	li	a0,8
    12ce:	f96ff0ef          	jal	ra,a64 <GMG12864_Decode_UTF8>
    12d2:	fac42703          	lw	a4,-84(s0)
    12d6:	fd442783          	lw	a5,-44(s0)
    12da:	97ba                	add	a5,a5,a4
    12dc:	fc040713          	addi	a4,s0,-64
    12e0:	863e                	mv	a2,a5
    12e2:	6799                	lui	a5,0x6
    12e4:	46478593          	addi	a1,a5,1124 # 6464 <_sbrk+0x6c>
    12e8:	853a                	mv	a0,a4
    12ea:	6b0040ef          	jal	ra,599a <siprintf>
    12ee:	fc040793          	addi	a5,s0,-64
    12f2:	873e                	mv	a4,a5
    12f4:	4681                	li	a3,0
    12f6:	4601                	li	a2,0
    12f8:	02600593          	li	a1,38
    12fc:	4521                	li	a0,8
    12fe:	f66ff0ef          	jal	ra,a64 <GMG12864_Decode_UTF8>
    1302:	fd442783          	lw	a5,-44(s0)
    1306:	00179713          	slli	a4,a5,0x1
    130a:	fac42783          	lw	a5,-84(s0)
    130e:	97ba                	add	a5,a5,a4
    1310:	fc040713          	addi	a4,s0,-64
    1314:	863e                	mv	a2,a5
    1316:	6799                	lui	a5,0x6
    1318:	46478593          	addi	a1,a5,1124 # 6464 <_sbrk+0x6c>
    131c:	853a                	mv	a0,a4
    131e:	67c040ef          	jal	ra,599a <siprintf>
    1322:	fc040793          	addi	a5,s0,-64
    1326:	873e                	mv	a4,a5
    1328:	4681                	li	a3,0
    132a:	4601                	li	a2,0
    132c:	45f1                	li	a1,28
    132e:	4521                	li	a0,8
    1330:	f34ff0ef          	jal	ra,a64 <GMG12864_Decode_UTF8>
    1334:	fd442703          	lw	a4,-44(s0)
    1338:	87ba                	mv	a5,a4
    133a:	0786                	slli	a5,a5,0x1
    133c:	973e                	add	a4,a4,a5
    133e:	fac42783          	lw	a5,-84(s0)
    1342:	97ba                	add	a5,a5,a4
    1344:	fc040713          	addi	a4,s0,-64
    1348:	863e                	mv	a2,a5
    134a:	6799                	lui	a5,0x6
    134c:	46478593          	addi	a1,a5,1124 # 6464 <_sbrk+0x6c>
    1350:	853a                	mv	a0,a4
    1352:	648040ef          	jal	ra,599a <siprintf>
    1356:	fc040793          	addi	a5,s0,-64
    135a:	873e                	mv	a4,a5
    135c:	4681                	li	a3,0
    135e:	4601                	li	a2,0
    1360:	45c9                	li	a1,18
    1362:	4521                	li	a0,8
    1364:	f00ff0ef          	jal	ra,a64 <GMG12864_Decode_UTF8>
    1368:	fd442783          	lw	a5,-44(s0)
    136c:	00279713          	slli	a4,a5,0x2
    1370:	fac42783          	lw	a5,-84(s0)
    1374:	97ba                	add	a5,a5,a4
    1376:	fc040713          	addi	a4,s0,-64
    137a:	863e                	mv	a2,a5
    137c:	6799                	lui	a5,0x6
    137e:	46478593          	addi	a1,a5,1124 # 6464 <_sbrk+0x6c>
    1382:	853a                	mv	a0,a4
    1384:	616040ef          	jal	ra,599a <siprintf>
    1388:	fc040793          	addi	a5,s0,-64
    138c:	873e                	mv	a4,a5
    138e:	4681                	li	a3,0
    1390:	4601                	li	a2,0
    1392:	45a1                	li	a1,8
    1394:	4521                	li	a0,8
    1396:	eceff0ef          	jal	ra,a64 <GMG12864_Decode_UTF8>
    139a:	fc040713          	addi	a4,s0,-64
    139e:	fa842603          	lw	a2,-88(s0)
    13a2:	6799                	lui	a5,0x6
    13a4:	46478593          	addi	a1,a5,1124 # 6464 <_sbrk+0x6c>
    13a8:	853a                	mv	a0,a4
    13aa:	5f0040ef          	jal	ra,599a <siprintf>
    13ae:	fc040793          	addi	a5,s0,-64
    13b2:	873e                	mv	a4,a5
    13b4:	4681                	li	a3,0
    13b6:	4601                	li	a2,0
    13b8:	4581                	li	a1,0
    13ba:	4521                	li	a0,8
    13bc:	ea8ff0ef          	jal	ra,a64 <GMG12864_Decode_UTF8>
    13c0:	fb544783          	lbu	a5,-75(s0)
    13c4:	ef89                	bnez	a5,13de <GMG12864_Generate_a_Graph+0x1ca>
    13c6:	fb644783          	lbu	a5,-74(s0)
    13ca:	fc040713          	addi	a4,s0,-64
    13ce:	863e                	mv	a2,a5
    13d0:	6799                	lui	a5,0x6
    13d2:	46c78593          	addi	a1,a5,1132 # 646c <_sbrk+0x74>
    13d6:	853a                	mv	a0,a4
    13d8:	5c2040ef          	jal	ra,599a <siprintf>
    13dc:	a091                	j	1420 <GMG12864_Generate_a_Graph+0x20c>
    13de:	fb544703          	lbu	a4,-75(s0)
    13e2:	4785                	li	a5,1
    13e4:	00f71e63          	bne	a4,a5,1400 <GMG12864_Generate_a_Graph+0x1ec>
    13e8:	fb644783          	lbu	a5,-74(s0)
    13ec:	fc040713          	addi	a4,s0,-64
    13f0:	863e                	mv	a2,a5
    13f2:	6799                	lui	a5,0x6
    13f4:	47878593          	addi	a1,a5,1144 # 6478 <_sbrk+0x80>
    13f8:	853a                	mv	a0,a4
    13fa:	5a0040ef          	jal	ra,599a <siprintf>
    13fe:	a00d                	j	1420 <GMG12864_Generate_a_Graph+0x20c>
    1400:	fb544703          	lbu	a4,-75(s0)
    1404:	4789                	li	a5,2
    1406:	00f71d63          	bne	a4,a5,1420 <GMG12864_Generate_a_Graph+0x20c>
    140a:	fb644783          	lbu	a5,-74(s0)
    140e:	fc040713          	addi	a4,s0,-64
    1412:	863e                	mv	a2,a5
    1414:	6799                	lui	a5,0x6
    1416:	48878593          	addi	a1,a5,1160 # 6488 <_sbrk+0x90>
    141a:	853a                	mv	a0,a4
    141c:	57e040ef          	jal	ra,599a <siprintf>
    1420:	fc040793          	addi	a5,s0,-64
    1424:	873e                	mv	a4,a5
    1426:	4681                	li	a3,0
    1428:	4605                	li	a2,1
    142a:	03900593          	li	a1,57
    142e:	05000513          	li	a0,80
    1432:	e32ff0ef          	jal	ra,a64 <GMG12864_Decode_UTF8>
    1436:	4705                	li	a4,1
    1438:	03200693          	li	a3,50
    143c:	07f00613          	li	a2,127
    1440:	03200593          	li	a1,50
    1444:	456d                	li	a0,27
    1446:	2e15                	jal	177a <GMG12864_Draw_line>
    1448:	47ed                	li	a5,27
    144a:	fef403a3          	sb	a5,-25(s0)
    144e:	a00d                	j	1470 <GMG12864_Generate_a_Graph+0x25c>
    1450:	fe744603          	lbu	a2,-25(s0)
    1454:	fe744783          	lbu	a5,-25(s0)
    1458:	4705                	li	a4,1
    145a:	03400693          	li	a3,52
    145e:	03300593          	li	a1,51
    1462:	853e                	mv	a0,a5
    1464:	2e19                	jal	177a <GMG12864_Draw_line>
    1466:	fe744783          	lbu	a5,-25(s0)
    146a:	07a9                	addi	a5,a5,10
    146c:	fef403a3          	sb	a5,-25(s0)
    1470:	fe744703          	lbu	a4,-25(s0)
    1474:	04d00793          	li	a5,77
    1478:	fce7fce3          	bgeu	a5,a4,1450 <GMG12864_Generate_a_Graph+0x23c>
    147c:	05700793          	li	a5,87
    1480:	fef40323          	sb	a5,-26(s0)
    1484:	a005                	j	14a4 <GMG12864_Generate_a_Graph+0x290>
    1486:	fe644783          	lbu	a5,-26(s0)
    148a:	07c2                	slli	a5,a5,0x10
    148c:	87c1                	srai	a5,a5,0x10
    148e:	4605                	li	a2,1
    1490:	03300593          	li	a1,51
    1494:	853e                	mv	a0,a5
    1496:	ff9fe0ef          	jal	ra,48e <GMG12864_Draw_pixel>
    149a:	fe644783          	lbu	a5,-26(s0)
    149e:	07a9                	addi	a5,a5,10
    14a0:	fef40323          	sb	a5,-26(s0)
    14a4:	fe640783          	lb	a5,-26(s0)
    14a8:	fc07dfe3          	bgez	a5,1486 <GMG12864_Generate_a_Graph+0x272>
    14ac:	4705                	li	a4,1
    14ae:	03200693          	li	a3,50
    14b2:	466d                	li	a2,27
    14b4:	4581                	li	a1,0
    14b6:	456d                	li	a0,27
    14b8:	24c9                	jal	177a <GMG12864_Draw_line>
    14ba:	fe0402a3          	sb	zero,-27(s0)
    14be:	a839                	j	14dc <GMG12864_Generate_a_Graph+0x2c8>
    14c0:	fe544683          	lbu	a3,-27(s0)
    14c4:	fe544783          	lbu	a5,-27(s0)
    14c8:	4705                	li	a4,1
    14ca:	466d                	li	a2,27
    14cc:	85be                	mv	a1,a5
    14ce:	4565                	li	a0,25
    14d0:	246d                	jal	177a <GMG12864_Draw_line>
    14d2:	fe544783          	lbu	a5,-27(s0)
    14d6:	07a9                	addi	a5,a5,10
    14d8:	fef402a3          	sb	a5,-27(s0)
    14dc:	fe544703          	lbu	a4,-27(s0)
    14e0:	03200793          	li	a5,50
    14e4:	fce7fee3          	bgeu	a5,a4,14c0 <GMG12864_Generate_a_Graph+0x2ac>
    14e8:	4705                	li	a4,1
    14ea:	03700693          	li	a3,55
    14ee:	05700613          	li	a2,87
    14f2:	03500593          	li	a1,53
    14f6:	05700513          	li	a0,87
    14fa:	2441                	jal	177a <GMG12864_Draw_line>
    14fc:	4705                	li	a4,1
    14fe:	03700693          	li	a3,55
    1502:	06100613          	li	a2,97
    1506:	03500593          	li	a1,53
    150a:	06100513          	li	a0,97
    150e:	24b5                	jal	177a <GMG12864_Draw_line>
    1510:	4705                	li	a4,1
    1512:	03600693          	li	a3,54
    1516:	06600613          	li	a2,102
    151a:	03600593          	li	a1,54
    151e:	05200513          	li	a0,82
    1522:	2ca1                	jal	177a <GMG12864_Draw_line>
    1524:	4705                	li	a4,1
    1526:	03800693          	li	a3,56
    152a:	05400613          	li	a2,84
    152e:	03400593          	li	a1,52
    1532:	05400513          	li	a0,84
    1536:	2491                	jal	177a <GMG12864_Draw_line>
    1538:	4705                	li	a4,1
    153a:	03700693          	li	a3,55
    153e:	05500613          	li	a2,85
    1542:	03500593          	li	a1,53
    1546:	05500513          	li	a0,85
    154a:	2c05                	jal	177a <GMG12864_Draw_line>
    154c:	4705                	li	a4,1
    154e:	03700693          	li	a3,55
    1552:	06300613          	li	a2,99
    1556:	03500593          	li	a1,53
    155a:	06300513          	li	a0,99
    155e:	2c31                	jal	177a <GMG12864_Draw_line>
    1560:	4705                	li	a4,1
    1562:	03800693          	li	a3,56
    1566:	06400613          	li	a2,100
    156a:	03400593          	li	a1,52
    156e:	06400513          	li	a0,100
    1572:	2421                	jal	177a <GMG12864_Draw_line>
    1574:	4705                	li	a4,1
    1576:	03900693          	li	a3,57
    157a:	07f00613          	li	a2,127
    157e:	03500593          	li	a1,53
    1582:	07f00513          	li	a0,127
    1586:	2ad5                	jal	177a <GMG12864_Draw_line>
    1588:	4705                	li	a4,1
    158a:	03700693          	li	a3,55
    158e:	07f00613          	li	a2,127
    1592:	03700593          	li	a1,55
    1596:	07a00513          	li	a0,122
    159a:	22c5                	jal	177a <GMG12864_Draw_line>
    159c:	4705                	li	a4,1
    159e:	03900693          	li	a3,57
    15a2:	07c00613          	li	a2,124
    15a6:	03500593          	li	a1,53
    15aa:	07c00513          	li	a0,124
    15ae:	22f1                	jal	177a <GMG12864_Draw_line>
    15b0:	4705                	li	a4,1
    15b2:	03800693          	li	a3,56
    15b6:	07d00613          	li	a2,125
    15ba:	03600593          	li	a1,54
    15be:	07d00513          	li	a0,125
    15c2:	2a65                	jal	177a <GMG12864_Draw_line>
    15c4:	201c                	lbu	a5,0(s0)
    15c6:	c3cd                	beqz	a5,1668 <GMG12864_Generate_a_Graph+0x454>
    15c8:	fe040223          	sb	zero,-28(s0)
    15cc:	a081                	j	160c <GMG12864_Generate_a_Graph+0x3f8>
    15ce:	47ed                	li	a5,27
    15d0:	fef401a3          	sb	a5,-29(s0)
    15d4:	a01d                	j	15fa <GMG12864_Generate_a_Graph+0x3e6>
    15d6:	fe344783          	lbu	a5,-29(s0)
    15da:	07c2                	slli	a5,a5,0x10
    15dc:	87c1                	srai	a5,a5,0x10
    15de:	fe444703          	lbu	a4,-28(s0)
    15e2:	0742                	slli	a4,a4,0x10
    15e4:	8741                	srai	a4,a4,0x10
    15e6:	4605                	li	a2,1
    15e8:	85ba                	mv	a1,a4
    15ea:	853e                	mv	a0,a5
    15ec:	ea3fe0ef          	jal	ra,48e <GMG12864_Draw_pixel>
    15f0:	fe344783          	lbu	a5,-29(s0)
    15f4:	0789                	addi	a5,a5,2
    15f6:	fef401a3          	sb	a5,-29(s0)
    15fa:	fe340783          	lb	a5,-29(s0)
    15fe:	fc07dce3          	bgez	a5,15d6 <GMG12864_Generate_a_Graph+0x3c2>
    1602:	fe444783          	lbu	a5,-28(s0)
    1606:	07a9                	addi	a5,a5,10
    1608:	fef40223          	sb	a5,-28(s0)
    160c:	fe444703          	lbu	a4,-28(s0)
    1610:	02800793          	li	a5,40
    1614:	fae7fde3          	bgeu	a5,a4,15ce <GMG12864_Generate_a_Graph+0x3ba>
    1618:	47ed                	li	a5,27
    161a:	fef40123          	sb	a5,-30(s0)
    161e:	a089                	j	1660 <GMG12864_Generate_a_Graph+0x44c>
    1620:	fe0400a3          	sb	zero,-31(s0)
    1624:	a01d                	j	164a <GMG12864_Generate_a_Graph+0x436>
    1626:	fe244783          	lbu	a5,-30(s0)
    162a:	07c2                	slli	a5,a5,0x10
    162c:	87c1                	srai	a5,a5,0x10
    162e:	fe144703          	lbu	a4,-31(s0)
    1632:	0742                	slli	a4,a4,0x10
    1634:	8741                	srai	a4,a4,0x10
    1636:	4605                	li	a2,1
    1638:	85ba                	mv	a1,a4
    163a:	853e                	mv	a0,a5
    163c:	e53fe0ef          	jal	ra,48e <GMG12864_Draw_pixel>
    1640:	fe144783          	lbu	a5,-31(s0)
    1644:	0789                	addi	a5,a5,2
    1646:	fef400a3          	sb	a5,-31(s0)
    164a:	fe144703          	lbu	a4,-31(s0)
    164e:	03200793          	li	a5,50
    1652:	fce7fae3          	bgeu	a5,a4,1626 <GMG12864_Generate_a_Graph+0x412>
    1656:	fe244783          	lbu	a5,-30(s0)
    165a:	07a9                	addi	a5,a5,10
    165c:	fef40123          	sb	a5,-30(s0)
    1660:	fe240783          	lb	a5,-30(s0)
    1664:	fa07dee3          	bgez	a5,1620 <GMG12864_Generate_a_Graph+0x40c>
    1668:	fb042783          	lw	a5,-80(s0)
    166c:	239c                	lbu	a5,0(a5)
    166e:	c3c9                	beqz	a5,16f0 <GMG12864_Generate_a_Graph+0x4dc>
    1670:	fc042e23          	sw	zero,-36(s0)
    1674:	a0b5                	j	16e0 <GMG12864_Generate_a_Graph+0x4cc>
    1676:	fdc42783          	lw	a5,-36(s0)
    167a:	0ff7f793          	andi	a5,a5,255
    167e:	07e00713          	li	a4,126
    1682:	40f707b3          	sub	a5,a4,a5
    1686:	0ff7f513          	andi	a0,a5,255
    168a:	fdc42783          	lw	a5,-36(s0)
    168e:	0785                	addi	a5,a5,1
    1690:	fb842703          	lw	a4,-72(s0)
    1694:	97ba                	add	a5,a5,a4
    1696:	239c                	lbu	a5,0(a5)
    1698:	03200713          	li	a4,50
    169c:	40f707b3          	sub	a5,a4,a5
    16a0:	0ff7f593          	andi	a1,a5,255
    16a4:	fdc42783          	lw	a5,-36(s0)
    16a8:	0ff7f793          	andi	a5,a5,255
    16ac:	07f00713          	li	a4,127
    16b0:	40f707b3          	sub	a5,a4,a5
    16b4:	0ff7f613          	andi	a2,a5,255
    16b8:	fdc42783          	lw	a5,-36(s0)
    16bc:	fb842703          	lw	a4,-72(s0)
    16c0:	97ba                	add	a5,a5,a4
    16c2:	239c                	lbu	a5,0(a5)
    16c4:	03200713          	li	a4,50
    16c8:	40f707b3          	sub	a5,a4,a5
    16cc:	0ff7f793          	andi	a5,a5,255
    16d0:	4705                	li	a4,1
    16d2:	86be                	mv	a3,a5
    16d4:	205d                	jal	177a <GMG12864_Draw_line>
    16d6:	fdc42783          	lw	a5,-36(s0)
    16da:	0785                	addi	a5,a5,1
    16dc:	fcf42e23          	sw	a5,-36(s0)
    16e0:	fb744783          	lbu	a5,-73(s0)
    16e4:	17fd                	addi	a5,a5,-1
    16e6:	fdc42703          	lw	a4,-36(s0)
    16ea:	f8f746e3          	blt	a4,a5,1676 <GMG12864_Generate_a_Graph+0x462>
    16ee:	a049                	j	1770 <GMG12864_Generate_a_Graph+0x55c>
    16f0:	fc042c23          	sw	zero,-40(s0)
    16f4:	a0b5                	j	1760 <GMG12864_Generate_a_Graph+0x54c>
    16f6:	fd842783          	lw	a5,-40(s0)
    16fa:	0ff7f793          	andi	a5,a5,255
    16fe:	07e00713          	li	a4,126
    1702:	40f707b3          	sub	a5,a4,a5
    1706:	0ff7f513          	andi	a0,a5,255
    170a:	fd842783          	lw	a5,-40(s0)
    170e:	0785                	addi	a5,a5,1
    1710:	fb842703          	lw	a4,-72(s0)
    1714:	97ba                	add	a5,a5,a4
    1716:	239c                	lbu	a5,0(a5)
    1718:	03200713          	li	a4,50
    171c:	40f707b3          	sub	a5,a4,a5
    1720:	0ff7f593          	andi	a1,a5,255
    1724:	fd842783          	lw	a5,-40(s0)
    1728:	0ff7f793          	andi	a5,a5,255
    172c:	07f00713          	li	a4,127
    1730:	40f707b3          	sub	a5,a4,a5
    1734:	0ff7f613          	andi	a2,a5,255
    1738:	fd842783          	lw	a5,-40(s0)
    173c:	fb842703          	lw	a4,-72(s0)
    1740:	97ba                	add	a5,a5,a4
    1742:	239c                	lbu	a5,0(a5)
    1744:	03200713          	li	a4,50
    1748:	40f707b3          	sub	a5,a4,a5
    174c:	0ff7f793          	andi	a5,a5,255
    1750:	4705                	li	a4,1
    1752:	86be                	mv	a3,a5
    1754:	201d                	jal	177a <GMG12864_Draw_line>
    1756:	fd842783          	lw	a5,-40(s0)
    175a:	0785                	addi	a5,a5,1
    175c:	fcf42c23          	sw	a5,-40(s0)
    1760:	fbc42783          	lw	a5,-68(s0)
    1764:	239c                	lbu	a5,0(a5)
    1766:	873e                	mv	a4,a5
    1768:	fd842783          	lw	a5,-40(s0)
    176c:	f8e7c5e3          	blt	a5,a4,16f6 <GMG12864_Generate_a_Graph+0x4e2>
    1770:	0001                	nop
    1772:	40f6                	lw	ra,92(sp)
    1774:	4466                	lw	s0,88(sp)
    1776:	6125                	addi	sp,sp,96
    1778:	8082                	ret

0000177a <GMG12864_Draw_line>:
    177a:	7139                	addi	sp,sp,-64
    177c:	de06                	sw	ra,60(sp)
    177e:	dc22                	sw	s0,56(sp)
    1780:	0080                	addi	s0,sp,64
    1782:	87aa                	mv	a5,a0
    1784:	fcf407a3          	sb	a5,-49(s0)
    1788:	87ae                	mv	a5,a1
    178a:	fcf40723          	sb	a5,-50(s0)
    178e:	87b2                	mv	a5,a2
    1790:	fcf406a3          	sb	a5,-51(s0)
    1794:	87b6                	mv	a5,a3
    1796:	fcf40623          	sb	a5,-52(s0)
    179a:	87ba                	mv	a5,a4
    179c:	fcf405a3          	sb	a5,-53(s0)
    17a0:	fcd44703          	lbu	a4,-51(s0)
    17a4:	fcf44783          	lbu	a5,-49(s0)
    17a8:	00f76963          	bltu	a4,a5,17ba <GMG12864_Draw_line+0x40>
    17ac:	fcd44703          	lbu	a4,-51(s0)
    17b0:	fcf44783          	lbu	a5,-49(s0)
    17b4:	40f707b3          	sub	a5,a4,a5
    17b8:	a039                	j	17c6 <GMG12864_Draw_line+0x4c>
    17ba:	fcf44703          	lbu	a4,-49(s0)
    17be:	fcd44783          	lbu	a5,-51(s0)
    17c2:	40f707b3          	sub	a5,a4,a5
    17c6:	fef42423          	sw	a5,-24(s0)
    17ca:	fcc44703          	lbu	a4,-52(s0)
    17ce:	fce44783          	lbu	a5,-50(s0)
    17d2:	00f76963          	bltu	a4,a5,17e4 <GMG12864_Draw_line+0x6a>
    17d6:	fcc44703          	lbu	a4,-52(s0)
    17da:	fce44783          	lbu	a5,-50(s0)
    17de:	40f707b3          	sub	a5,a4,a5
    17e2:	a039                	j	17f0 <GMG12864_Draw_line+0x76>
    17e4:	fce44703          	lbu	a4,-50(s0)
    17e8:	fcc44783          	lbu	a5,-52(s0)
    17ec:	40f707b3          	sub	a5,a4,a5
    17f0:	fef42223          	sw	a5,-28(s0)
    17f4:	fcf44703          	lbu	a4,-49(s0)
    17f8:	fcd44783          	lbu	a5,-51(s0)
    17fc:	00f77463          	bgeu	a4,a5,1804 <GMG12864_Draw_line+0x8a>
    1800:	4785                	li	a5,1
    1802:	a011                	j	1806 <GMG12864_Draw_line+0x8c>
    1804:	57fd                	li	a5,-1
    1806:	fef42023          	sw	a5,-32(s0)
    180a:	fce44703          	lbu	a4,-50(s0)
    180e:	fcc44783          	lbu	a5,-52(s0)
    1812:	00f77463          	bgeu	a4,a5,181a <GMG12864_Draw_line+0xa0>
    1816:	4785                	li	a5,1
    1818:	a011                	j	181c <GMG12864_Draw_line+0xa2>
    181a:	57fd                	li	a5,-1
    181c:	fcf42e23          	sw	a5,-36(s0)
    1820:	fe842703          	lw	a4,-24(s0)
    1824:	fe442783          	lw	a5,-28(s0)
    1828:	40f707b3          	sub	a5,a4,a5
    182c:	fef42623          	sw	a5,-20(s0)
    1830:	fcf44783          	lbu	a5,-49(s0)
    1834:	07c2                	slli	a5,a5,0x10
    1836:	87c1                	srai	a5,a5,0x10
    1838:	fce44703          	lbu	a4,-50(s0)
    183c:	0742                	slli	a4,a4,0x10
    183e:	8741                	srai	a4,a4,0x10
    1840:	fcb44683          	lbu	a3,-53(s0)
    1844:	8636                	mv	a2,a3
    1846:	85ba                	mv	a1,a4
    1848:	853e                	mv	a0,a5
    184a:	c45fe0ef          	jal	ra,48e <GMG12864_Draw_pixel>
    184e:	fcf44703          	lbu	a4,-49(s0)
    1852:	fcd44783          	lbu	a5,-51(s0)
    1856:	00f71863          	bne	a4,a5,1866 <GMG12864_Draw_line+0xec>
    185a:	fce44703          	lbu	a4,-50(s0)
    185e:	fcc44783          	lbu	a5,-52(s0)
    1862:	06f70763          	beq	a4,a5,18d0 <GMG12864_Draw_line+0x156>
    1866:	fec42783          	lw	a5,-20(s0)
    186a:	0786                	slli	a5,a5,0x1
    186c:	fcf42c23          	sw	a5,-40(s0)
    1870:	fe442783          	lw	a5,-28(s0)
    1874:	40f007b3          	neg	a5,a5
    1878:	fd842703          	lw	a4,-40(s0)
    187c:	02e7d363          	bge	a5,a4,18a2 <GMG12864_Draw_line+0x128>
    1880:	fec42703          	lw	a4,-20(s0)
    1884:	fe442783          	lw	a5,-28(s0)
    1888:	40f707b3          	sub	a5,a4,a5
    188c:	fef42623          	sw	a5,-20(s0)
    1890:	fe042783          	lw	a5,-32(s0)
    1894:	0ff7f713          	andi	a4,a5,255
    1898:	fcf44783          	lbu	a5,-49(s0)
    189c:	97ba                	add	a5,a5,a4
    189e:	fcf407a3          	sb	a5,-49(s0)
    18a2:	fd842703          	lw	a4,-40(s0)
    18a6:	fe842783          	lw	a5,-24(s0)
    18aa:	f8f753e3          	bge	a4,a5,1830 <GMG12864_Draw_line+0xb6>
    18ae:	fec42703          	lw	a4,-20(s0)
    18b2:	fe842783          	lw	a5,-24(s0)
    18b6:	97ba                	add	a5,a5,a4
    18b8:	fef42623          	sw	a5,-20(s0)
    18bc:	fdc42783          	lw	a5,-36(s0)
    18c0:	0ff7f713          	andi	a4,a5,255
    18c4:	fce44783          	lbu	a5,-50(s0)
    18c8:	97ba                	add	a5,a5,a4
    18ca:	fcf40723          	sb	a5,-50(s0)
    18ce:	b78d                	j	1830 <GMG12864_Draw_line+0xb6>
    18d0:	0001                	nop
    18d2:	0001                	nop
    18d4:	50f2                	lw	ra,60(sp)
    18d6:	5462                	lw	s0,56(sp)
    18d8:	6121                	addi	sp,sp,64
    18da:	8082                	ret

000018dc <Float_transform>:
    18dc:	7139                	addi	sp,sp,-64
    18de:	de06                	sw	ra,60(sp)
    18e0:	dc22                	sw	s0,56(sp)
    18e2:	da26                	sw	s1,52(sp)
    18e4:	0080                	addi	s0,sp,64
    18e6:	fca42e23          	sw	a0,-36(s0)
    18ea:	87ae                	mv	a5,a1
    18ec:	fcc42a23          	sw	a2,-44(s0)
    18f0:	fcd42823          	sw	a3,-48(s0)
    18f4:	fce42623          	sw	a4,-52(s0)
    18f8:	fcf40da3          	sb	a5,-37(s0)
    18fc:	fd442783          	lw	a5,-44(s0)
    1900:	00078023          	sb	zero,0(a5)
    1904:	6799                	lui	a5,0x6
    1906:	49c7a783          	lw	a5,1180(a5) # 649c <_sbrk+0xa4>
    190a:	fef42223          	sw	a5,-28(s0)
    190e:	4785                	li	a5,1
    1910:	fef42623          	sw	a5,-20(s0)
    1914:	fdc40793          	addi	a5,s0,-36
    1918:	439c                	lw	a5,0(a5)
    191a:	0207d163          	bgez	a5,193c <Float_transform+0x60>
    191e:	fdc40793          	addi	a5,s0,-36
    1922:	4394                	lw	a3,0(a5)
    1924:	fdc40793          	addi	a5,s0,-36
    1928:	80000737          	lui	a4,0x80000
    192c:	fff74713          	not	a4,a4
    1930:	8f75                	and	a4,a4,a3
    1932:	c398                	sw	a4,0(a5)
    1934:	fd442783          	lw	a5,-44(s0)
    1938:	4705                	li	a4,1
    193a:	a398                	sb	a4,0(a5)
    193c:	fe0405a3          	sb	zero,-21(s0)
    1940:	a831                	j	195c <Float_transform+0x80>
    1942:	fec42703          	lw	a4,-20(s0)
    1946:	87ba                	mv	a5,a4
    1948:	078a                	slli	a5,a5,0x2
    194a:	97ba                	add	a5,a5,a4
    194c:	0786                	slli	a5,a5,0x1
    194e:	fef42623          	sw	a5,-20(s0)
    1952:	feb44783          	lbu	a5,-21(s0)
    1956:	0785                	addi	a5,a5,1
    1958:	fef405a3          	sb	a5,-21(s0)
    195c:	feb44703          	lbu	a4,-21(s0)
    1960:	fdb44783          	lbu	a5,-37(s0)
    1964:	fcf76fe3          	bltu	a4,a5,1942 <Float_transform+0x66>
    1968:	fec42503          	lw	a0,-20(s0)
    196c:	6f3030ef          	jal	ra,585e <__floatunsisf>
    1970:	87aa                	mv	a5,a0
    1972:	85be                	mv	a1,a5
    1974:	fe442503          	lw	a0,-28(s0)
    1978:	38c030ef          	jal	ra,4d04 <__divsf3>
    197c:	87aa                	mv	a5,a0
    197e:	fef42223          	sw	a5,-28(s0)
    1982:	fdc42783          	lw	a5,-36(s0)
    1986:	fe442583          	lw	a1,-28(s0)
    198a:	853e                	mv	a0,a5
    198c:	00e030ef          	jal	ra,499a <__addsf3>
    1990:	87aa                	mv	a5,a0
    1992:	853e                	mv	a0,a5
    1994:	54d030ef          	jal	ra,56e0 <__fixsfsi>
    1998:	872a                	mv	a4,a0
    199a:	fd042783          	lw	a5,-48(s0)
    199e:	c398                	sw	a4,0(a5)
    19a0:	fdc42783          	lw	a5,-36(s0)
    19a4:	fe442583          	lw	a1,-28(s0)
    19a8:	853e                	mv	a0,a5
    19aa:	7f1020ef          	jal	ra,499a <__addsf3>
    19ae:	87aa                	mv	a5,a0
    19b0:	84be                	mv	s1,a5
    19b2:	fec42503          	lw	a0,-20(s0)
    19b6:	6a9030ef          	jal	ra,585e <__floatunsisf>
    19ba:	87aa                	mv	a5,a0
    19bc:	85be                	mv	a1,a5
    19be:	8526                	mv	a0,s1
    19c0:	708030ef          	jal	ra,50c8 <__mulsf3>
    19c4:	87aa                	mv	a5,a0
    19c6:	84be                	mv	s1,a5
    19c8:	fd042783          	lw	a5,-48(s0)
    19cc:	439c                	lw	a5,0(a5)
    19ce:	873e                	mv	a4,a5
    19d0:	fec42783          	lw	a5,-20(s0)
    19d4:	02f707b3          	mul	a5,a4,a5
    19d8:	853e                	mv	a0,a5
    19da:	685030ef          	jal	ra,585e <__floatunsisf>
    19de:	87aa                	mv	a5,a0
    19e0:	85be                	mv	a1,a5
    19e2:	8526                	mv	a0,s1
    19e4:	175030ef          	jal	ra,5358 <__subsf3>
    19e8:	87aa                	mv	a5,a0
    19ea:	853e                	mv	a0,a5
    19ec:	557030ef          	jal	ra,5742 <__fixunssfsi>
    19f0:	872a                	mv	a4,a0
    19f2:	fcc42783          	lw	a5,-52(s0)
    19f6:	c398                	sw	a4,0(a5)
    19f8:	0001                	nop
    19fa:	50f2                	lw	ra,60(sp)
    19fc:	5462                	lw	s0,56(sp)
    19fe:	54d2                	lw	s1,52(sp)
    1a00:	6121                	addi	sp,sp,64
    1a02:	8082                	ret

00001a04 <Float_print_to_buf>:
    1a04:	7179                	addi	sp,sp,-48
    1a06:	d606                	sw	ra,44(sp)
    1a08:	d422                	sw	s0,40(sp)
    1a0a:	1800                	addi	s0,sp,48
    1a0c:	fea42623          	sw	a0,-20(s0)
    1a10:	feb42423          	sw	a1,-24(s0)
    1a14:	fec42223          	sw	a2,-28(s0)
    1a18:	fed42023          	sw	a3,-32(s0)
    1a1c:	fce42e23          	sw	a4,-36(s0)
    1a20:	fe442783          	lw	a5,-28(s0)
    1a24:	239c                	lbu	a5,0(a5)
    1a26:	e385                	bnez	a5,1a46 <Float_print_to_buf+0x42>
    1a28:	fe042783          	lw	a5,-32(s0)
    1a2c:	4398                	lw	a4,0(a5)
    1a2e:	fdc42783          	lw	a5,-36(s0)
    1a32:	439c                	lw	a5,0(a5)
    1a34:	86be                	mv	a3,a5
    1a36:	863a                	mv	a2,a4
    1a38:	fe842583          	lw	a1,-24(s0)
    1a3c:	fec42503          	lw	a0,-20(s0)
    1a40:	75b030ef          	jal	ra,599a <siprintf>
    1a44:	a00d                	j	1a66 <Float_print_to_buf+0x62>
    1a46:	fe042783          	lw	a5,-32(s0)
    1a4a:	439c                	lw	a5,0(a5)
    1a4c:	40f00733          	neg	a4,a5
    1a50:	fdc42783          	lw	a5,-36(s0)
    1a54:	439c                	lw	a5,0(a5)
    1a56:	86be                	mv	a3,a5
    1a58:	863a                	mv	a2,a4
    1a5a:	fe842583          	lw	a1,-24(s0)
    1a5e:	fec42503          	lw	a0,-20(s0)
    1a62:	739030ef          	jal	ra,599a <siprintf>
    1a66:	0001                	nop
    1a68:	50b2                	lw	ra,44(sp)
    1a6a:	5422                	lw	s0,40(sp)
    1a6c:	6145                	addi	sp,sp,48
    1a6e:	8082                	ret

00001a70 <NMI_Handler>:
    1a70:	a001                	j	1a70 <NMI_Handler>

00001a72 <HardFault_Handler>:
    1a72:	a001                	j	1a72 <HardFault_Handler>

00001a74 <Ecall_M_Mode_Handler>:
    1a74:	a001                	j	1a74 <Ecall_M_Mode_Handler>

00001a76 <Ecall_U_Mode_Handler>:
    1a76:	a001                	j	1a76 <Ecall_U_Mode_Handler>

00001a78 <Break_Point_Handler>:
    1a78:	a001                	j	1a78 <Break_Point_Handler>
    1a7a:	a001                	j	1a7a <Break_Point_Handler+0x2>

00001a7c <SW_handler>:
    1a7c:	a001                	j	1a7c <SW_handler>

00001a7e <WWDG_IRQHandler>:
    1a7e:	a001                	j	1a7e <WWDG_IRQHandler>

00001a80 <PVD_IRQHandler>:
    1a80:	a001                	j	1a80 <PVD_IRQHandler>

00001a82 <TAMPER_IRQHandler>:
    1a82:	a001                	j	1a82 <TAMPER_IRQHandler>

00001a84 <RTC_IRQHandler>:
    1a84:	a001                	j	1a84 <RTC_IRQHandler>

00001a86 <FLASH_IRQHandler>:
    1a86:	a001                	j	1a86 <FLASH_IRQHandler>

00001a88 <RCC_IRQHandler>:
    1a88:	a001                	j	1a88 <RCC_IRQHandler>

00001a8a <EXTI0_IRQHandler>:
    1a8a:	a001                	j	1a8a <EXTI0_IRQHandler>

00001a8c <EXTI1_IRQHandler>:
    1a8c:	a001                	j	1a8c <EXTI1_IRQHandler>

00001a8e <EXTI2_IRQHandler>:
    1a8e:	a001                	j	1a8e <EXTI2_IRQHandler>

00001a90 <EXTI3_IRQHandler>:
    1a90:	a001                	j	1a90 <EXTI3_IRQHandler>

00001a92 <EXTI4_IRQHandler>:
    1a92:	a001                	j	1a92 <EXTI4_IRQHandler>

00001a94 <DMA1_Channel1_IRQHandler>:
    1a94:	a001                	j	1a94 <DMA1_Channel1_IRQHandler>

00001a96 <DMA1_Channel2_IRQHandler>:
    1a96:	a001                	j	1a96 <DMA1_Channel2_IRQHandler>

00001a98 <DMA1_Channel3_IRQHandler>:
    1a98:	a001                	j	1a98 <DMA1_Channel3_IRQHandler>

00001a9a <DMA1_Channel4_IRQHandler>:
    1a9a:	a001                	j	1a9a <DMA1_Channel4_IRQHandler>

00001a9c <DMA1_Channel5_IRQHandler>:
    1a9c:	a001                	j	1a9c <DMA1_Channel5_IRQHandler>

00001a9e <DMA1_Channel6_IRQHandler>:
    1a9e:	a001                	j	1a9e <DMA1_Channel6_IRQHandler>

00001aa0 <DMA1_Channel7_IRQHandler>:
    1aa0:	a001                	j	1aa0 <DMA1_Channel7_IRQHandler>

00001aa2 <ADC1_2_IRQHandler>:
    1aa2:	a001                	j	1aa2 <ADC1_2_IRQHandler>

00001aa4 <USB_HP_CAN1_TX_IRQHandler>:
    1aa4:	a001                	j	1aa4 <USB_HP_CAN1_TX_IRQHandler>

00001aa6 <USB_LP_CAN1_RX0_IRQHandler>:
    1aa6:	a001                	j	1aa6 <USB_LP_CAN1_RX0_IRQHandler>

00001aa8 <CAN1_RX1_IRQHandler>:
    1aa8:	a001                	j	1aa8 <CAN1_RX1_IRQHandler>

00001aaa <CAN1_SCE_IRQHandler>:
    1aaa:	a001                	j	1aaa <CAN1_SCE_IRQHandler>

00001aac <EXTI9_5_IRQHandler>:
    1aac:	a001                	j	1aac <EXTI9_5_IRQHandler>

00001aae <TIM1_BRK_IRQHandler>:
    1aae:	a001                	j	1aae <TIM1_BRK_IRQHandler>

00001ab0 <TIM1_UP_IRQHandler>:
    1ab0:	a001                	j	1ab0 <TIM1_UP_IRQHandler>

00001ab2 <TIM1_TRG_COM_IRQHandler>:
    1ab2:	a001                	j	1ab2 <TIM1_TRG_COM_IRQHandler>

00001ab4 <TIM1_CC_IRQHandler>:
    1ab4:	a001                	j	1ab4 <TIM1_CC_IRQHandler>

00001ab6 <TIM2_IRQHandler>:
    1ab6:	a001                	j	1ab6 <TIM2_IRQHandler>
    1ab8:	a001                	j	1ab8 <TIM2_IRQHandler+0x2>
    1aba:	a001                	j	1aba <TIM2_IRQHandler+0x4>

00001abc <I2C1_EV_IRQHandler>:
    1abc:	a001                	j	1abc <I2C1_EV_IRQHandler>

00001abe <I2C1_ER_IRQHandler>:
    1abe:	a001                	j	1abe <I2C1_ER_IRQHandler>

00001ac0 <I2C2_EV_IRQHandler>:
    1ac0:	a001                	j	1ac0 <I2C2_EV_IRQHandler>

00001ac2 <I2C2_ER_IRQHandler>:
    1ac2:	a001                	j	1ac2 <I2C2_ER_IRQHandler>

00001ac4 <SPI1_IRQHandler>:
    1ac4:	a001                	j	1ac4 <SPI1_IRQHandler>

00001ac6 <SPI2_IRQHandler>:
    1ac6:	a001                	j	1ac6 <SPI2_IRQHandler>
    1ac8:	a001                	j	1ac8 <SPI2_IRQHandler+0x2>
    1aca:	a001                	j	1aca <SPI2_IRQHandler+0x4>
    1acc:	a001                	j	1acc <SPI2_IRQHandler+0x6>

00001ace <EXTI15_10_IRQHandler>:
    1ace:	a001                	j	1ace <EXTI15_10_IRQHandler>

00001ad0 <RTCAlarm_IRQHandler>:
    1ad0:	a001                	j	1ad0 <RTCAlarm_IRQHandler>

00001ad2 <USBWakeUp_IRQHandler>:
    1ad2:	a001                	j	1ad2 <USBWakeUp_IRQHandler>

00001ad4 <USBHD_IRQHandler>:
    1ad4:	a001                	j	1ad4 <USBHD_IRQHandler>

00001ad6 <USBHDWakeUp_IRQHandler>:
    1ad6:	a001                	j	1ad6 <USBHDWakeUp_IRQHandler>

00001ad8 <UART4_IRQHandler>:
    1ad8:	a001                	j	1ad8 <UART4_IRQHandler>

00001ada <DMA1_Channel8_IRQHandler>:
    1ada:	a001                	j	1ada <DMA1_Channel8_IRQHandler>

00001adc <handle_reset>:
    1adc:	1ffff197          	auipc	gp,0x1ffff
    1ae0:	e5418193          	addi	gp,gp,-428 # 20000930 <__global_pointer$>
    1ae4:	20003117          	auipc	sp,0x20003
    1ae8:	51c10113          	addi	sp,sp,1308 # 20005000 <_eusrstack>
    1aec:	00005517          	auipc	a0,0x5
    1af0:	31c50513          	addi	a0,a0,796 # 6e08 <_data_lma>
    1af4:	1fffe597          	auipc	a1,0x1fffe
    1af8:	50c58593          	addi	a1,a1,1292 # 20000000 <_data_vma>
    1afc:	81018613          	addi	a2,gp,-2032 # 20000140 <_edata>
    1b00:	00c5fa63          	bgeu	a1,a2,1b14 <handle_reset+0x38>
    1b04:	00052283          	lw	t0,0(a0)
    1b08:	0055a023          	sw	t0,0(a1)
    1b0c:	0511                	addi	a0,a0,4
    1b0e:	0591                	addi	a1,a1,4
    1b10:	fec5eae3          	bltu	a1,a2,1b04 <handle_reset+0x28>
    1b14:	81018513          	addi	a0,gp,-2032 # 20000140 <_edata>
    1b18:	f1c18593          	addi	a1,gp,-228 # 2000084c <_ebss>
    1b1c:	00b57763          	bgeu	a0,a1,1b2a <handle_reset+0x4e>
    1b20:	00052023          	sw	zero,0(a0)
    1b24:	0511                	addi	a0,a0,4
    1b26:	feb56de3          	bltu	a0,a1,1b20 <handle_reset+0x44>
    1b2a:	42fd                	li	t0,31
    1b2c:	bc029073          	csrw	0xbc0,t0
    1b30:	428d                	li	t0,3
    1b32:	80429073          	csrw	0x804,t0
    1b36:	08800293          	li	t0,136
    1b3a:	3002a073          	csrs	mstatus,t0
    1b3e:	ffffe297          	auipc	t0,0xffffe
    1b42:	4fa28293          	addi	t0,t0,1274 # 38 <_einit>
    1b46:	0032e293          	ori	t0,t0,3
    1b4a:	30529073          	csrw	mtvec,t0
    1b4e:	00003297          	auipc	t0,0x3
    1b52:	cba28293          	addi	t0,t0,-838 # 4808 <main>
    1b56:	34129073          	csrw	mepc,t0
    1b5a:	30200073          	mret

00001b5e <HDC1080_init>:
    1b5e:	1141                	addi	sp,sp,-16
    1b60:	c606                	sw	ra,12(sp)
    1b62:	c422                	sw	s0,8(sp)
    1b64:	0800                	addi	s0,sp,16
    1b66:	4709                	li	a4,2
    1b68:	80e18e23          	sb	a4,-2020(gp) # 2000014c <I2C1_tx_buffer>
    1b6c:	81c18793          	addi	a5,gp,-2020 # 2000014c <I2C1_tx_buffer>
    1b70:	4741                	li	a4,16
    1b72:	b398                	sb	a4,1(a5)
    1b74:	81c18793          	addi	a5,gp,-2020 # 2000014c <I2C1_tx_buffer>
    1b78:	00078123          	sb	zero,2(a5)
    1b7c:	06400713          	li	a4,100
    1b80:	468d                	li	a3,3
    1b82:	81c18613          	addi	a2,gp,-2020 # 2000014c <I2C1_tx_buffer>
    1b86:	04000593          	li	a1,64
    1b8a:	400057b7          	lui	a5,0x40005
    1b8e:	40078513          	addi	a0,a5,1024 # 40005400 <_eusrstack+0x20000400>
    1b92:	786010ef          	jal	ra,3318 <RVMSIS_I2C_Data_Transmit>
    1b96:	4551                	li	a0,20
    1b98:	7ba000ef          	jal	ra,2352 <Delay_ms>
    1b9c:	06400713          	li	a4,100
    1ba0:	4685                	li	a3,1
    1ba2:	81c18613          	addi	a2,gp,-2020 # 2000014c <I2C1_tx_buffer>
    1ba6:	04000593          	li	a1,64
    1baa:	400057b7          	lui	a5,0x40005
    1bae:	40078513          	addi	a0,a5,1024 # 40005400 <_eusrstack+0x20000400>
    1bb2:	766010ef          	jal	ra,3318 <RVMSIS_I2C_Data_Transmit>
    1bb6:	4551                	li	a0,20
    1bb8:	79a000ef          	jal	ra,2352 <Delay_ms>
    1bbc:	06400713          	li	a4,100
    1bc0:	4689                	li	a3,2
    1bc2:	d6018613          	addi	a2,gp,-672 # 20000690 <I2C1_rx_buffer>
    1bc6:	04000593          	li	a1,64
    1bca:	400057b7          	lui	a5,0x40005
    1bce:	40078513          	addi	a0,a5,1024 # 40005400 <_eusrstack+0x20000400>
    1bd2:	1c1010ef          	jal	ra,3592 <RVMSIS_I2C_Data_Receive>
    1bd6:	0001                	nop
    1bd8:	40b2                	lw	ra,12(sp)
    1bda:	4422                	lw	s0,8(sp)
    1bdc:	0141                	addi	sp,sp,16
    1bde:	8082                	ret

00001be0 <Software_timer>:
    1be0:	1101                	addi	sp,sp,-32
    1be2:	ce22                	sw	s0,28(sp)
    1be4:	1000                	addi	s0,sp,32
    1be6:	fea42623          	sw	a0,-20(s0)
    1bea:	feb42423          	sw	a1,-24(s0)
    1bee:	fec42783          	lw	a5,-20(s0)
    1bf2:	fe842703          	lw	a4,-24(s0)
    1bf6:	c398                	sw	a4,0(a5)
    1bf8:	0001                	nop
    1bfa:	4472                	lw	s0,28(sp)
    1bfc:	6105                	addi	sp,sp,32
    1bfe:	8082                	ret

00001c00 <Software_timer_check>:
    1c00:	1101                	addi	sp,sp,-32
    1c02:	ce22                	sw	s0,28(sp)
    1c04:	1000                	addi	s0,sp,32
    1c06:	fea42623          	sw	a0,-20(s0)
    1c0a:	fec42783          	lw	a5,-20(s0)
    1c0e:	439c                	lw	a5,0(a5)
    1c10:	cb99                	beqz	a5,1c26 <Software_timer_check+0x26>
    1c12:	fec42783          	lw	a5,-20(s0)
    1c16:	439c                	lw	a5,0(a5)
    1c18:	fff78713          	addi	a4,a5,-1
    1c1c:	fec42783          	lw	a5,-20(s0)
    1c20:	c398                	sw	a4,0(a5)
    1c22:	4785                	li	a5,1
    1c24:	a011                	j	1c28 <Software_timer_check+0x28>
    1c26:	4781                	li	a5,0
    1c28:	853e                	mv	a0,a5
    1c2a:	4472                	lw	s0,28(sp)
    1c2c:	6105                	addi	sp,sp,32
    1c2e:	8082                	ret

00001c30 <SysTick_Handler>:
    1c30:	715d                	addi	sp,sp,-80
    1c32:	c686                	sw	ra,76(sp)
    1c34:	c496                	sw	t0,72(sp)
    1c36:	c29a                	sw	t1,68(sp)
    1c38:	c09e                	sw	t2,64(sp)
    1c3a:	de22                	sw	s0,60(sp)
    1c3c:	dc2a                	sw	a0,56(sp)
    1c3e:	da2e                	sw	a1,52(sp)
    1c40:	d832                	sw	a2,48(sp)
    1c42:	d636                	sw	a3,44(sp)
    1c44:	d43a                	sw	a4,40(sp)
    1c46:	d23e                	sw	a5,36(sp)
    1c48:	d042                	sw	a6,32(sp)
    1c4a:	ce46                	sw	a7,28(sp)
    1c4c:	cc72                	sw	t3,24(sp)
    1c4e:	ca76                	sw	t4,20(sp)
    1c50:	c87a                	sw	t5,16(sp)
    1c52:	c67e                	sw	t6,12(sp)
    1c54:	0880                	addi	s0,sp,80
    1c56:	e000f7b7          	lui	a5,0xe000f
    1c5a:	43d8                	lw	a4,4(a5)
    1c5c:	e000f7b7          	lui	a5,0xe000f
    1c60:	9b79                	andi	a4,a4,-2
    1c62:	c3d8                	sw	a4,4(a5)
    1c64:	8281a783          	lw	a5,-2008(gp) # 20000158 <SysTimer_ms>
    1c68:	00178713          	addi	a4,a5,1 # e000f001 <_eusrstack+0xc000a001>
    1c6c:	82e1a423          	sw	a4,-2008(gp) # 20000158 <SysTimer_ms>
    1c70:	82c1a783          	lw	a5,-2004(gp) # 2000015c <Delay_counter_ms>
    1c74:	c799                	beqz	a5,1c82 <SysTick_Handler+0x52>
    1c76:	82c1a783          	lw	a5,-2004(gp) # 2000015c <Delay_counter_ms>
    1c7a:	fff78713          	addi	a4,a5,-1
    1c7e:	82e1a623          	sw	a4,-2004(gp) # 2000015c <Delay_counter_ms>
    1c82:	8301a783          	lw	a5,-2000(gp) # 20000160 <Timeout_counter_ms>
    1c86:	c799                	beqz	a5,1c94 <SysTick_Handler+0x64>
    1c88:	8301a783          	lw	a5,-2000(gp) # 20000160 <Timeout_counter_ms>
    1c8c:	fff78713          	addi	a4,a5,-1
    1c90:	82e1a823          	sw	a4,-2000(gp) # 20000160 <Timeout_counter_ms>
    1c94:	83818513          	addi	a0,gp,-1992 # 20000168 <I2C1_Polling_Timer>
    1c98:	37a5                	jal	1c00 <Software_timer_check>
    1c9a:	87aa                	mv	a5,a0
    1c9c:	0017c793          	xori	a5,a5,1
    1ca0:	0ff7f793          	andi	a5,a5,255
    1ca4:	c781                	beqz	a5,1cac <SysTick_Handler+0x7c>
    1ca6:	4705                	li	a4,1
    1ca8:	82e18a23          	sb	a4,-1996(gp) # 20000164 <Task1>
    1cac:	84c18513          	addi	a0,gp,-1972 # 2000017c <GMG12864_Timer>
    1cb0:	3f81                	jal	1c00 <Software_timer_check>
    1cb2:	87aa                	mv	a5,a0
    1cb4:	0017c793          	xori	a5,a5,1
    1cb8:	0ff7f793          	andi	a5,a5,255
    1cbc:	c781                	beqz	a5,1cc4 <SysTick_Handler+0x94>
    1cbe:	4705                	li	a4,1
    1cc0:	84e184a3          	sb	a4,-1975(gp) # 20000179 <Task2>
    1cc4:	8501a783          	lw	a5,-1968(gp) # 20000180 <TIMER_wait_before_write_flash>
    1cc8:	c799                	beqz	a5,1cd6 <SysTick_Handler+0xa6>
    1cca:	8501a783          	lw	a5,-1968(gp) # 20000180 <TIMER_wait_before_write_flash>
    1cce:	fff78713          	addi	a4,a5,-1
    1cd2:	84e1a823          	sw	a4,-1968(gp) # 20000180 <TIMER_wait_before_write_flash>
    1cd6:	0001                	nop
    1cd8:	40b6                	lw	ra,76(sp)
    1cda:	42a6                	lw	t0,72(sp)
    1cdc:	4316                	lw	t1,68(sp)
    1cde:	4386                	lw	t2,64(sp)
    1ce0:	5472                	lw	s0,60(sp)
    1ce2:	5562                	lw	a0,56(sp)
    1ce4:	55d2                	lw	a1,52(sp)
    1ce6:	5642                	lw	a2,48(sp)
    1ce8:	56b2                	lw	a3,44(sp)
    1cea:	5722                	lw	a4,40(sp)
    1cec:	5792                	lw	a5,36(sp)
    1cee:	5802                	lw	a6,32(sp)
    1cf0:	48f2                	lw	a7,28(sp)
    1cf2:	4e62                	lw	t3,24(sp)
    1cf4:	4ed2                	lw	t4,20(sp)
    1cf6:	4f42                	lw	t5,16(sp)
    1cf8:	4fb2                	lw	t6,12(sp)
    1cfa:	6161                	addi	sp,sp,80
    1cfc:	30200073          	mret

00001d00 <USART1_IRQHandler>:
    1d00:	1141                	addi	sp,sp,-16
    1d02:	c622                	sw	s0,12(sp)
    1d04:	c436                	sw	a3,8(sp)
    1d06:	c23a                	sw	a4,4(sp)
    1d08:	c03e                	sw	a5,0(sp)
    1d0a:	0800                	addi	s0,sp,16
    1d0c:	400147b7          	lui	a5,0x40014
    1d10:	80078793          	addi	a5,a5,-2048 # 40013800 <_eusrstack+0x2000e800>
    1d14:	239e                	lhu	a5,0(a5)
    1d16:	07c2                	slli	a5,a5,0x10
    1d18:	83c1                	srli	a5,a5,0x10
    1d1a:	0207f793          	andi	a5,a5,32
    1d1e:	cba1                	beqz	a5,1d6e <USART1_IRQHandler+0x6e>
    1d20:	d6c18793          	addi	a5,gp,-660 # 2000069c <husart1>
    1d24:	2bda                	lhu	a4,20(a5)
    1d26:	47cd                	li	a5,19
    1d28:	02e7ef63          	bltu	a5,a4,1d66 <USART1_IRQHandler+0x66>
    1d2c:	400147b7          	lui	a5,0x40014
    1d30:	80078793          	addi	a5,a5,-2048 # 40013800 <_eusrstack+0x2000e800>
    1d34:	23de                	lhu	a5,4(a5)
    1d36:	01079713          	slli	a4,a5,0x10
    1d3a:	8341                	srli	a4,a4,0x10
    1d3c:	d6c18793          	addi	a5,gp,-660 # 2000069c <husart1>
    1d40:	2bde                	lhu	a5,20(a5)
    1d42:	86be                	mv	a3,a5
    1d44:	0ff77713          	andi	a4,a4,255
    1d48:	d6c18793          	addi	a5,gp,-660 # 2000069c <husart1>
    1d4c:	97b6                	add	a5,a5,a3
    1d4e:	a398                	sb	a4,0(a5)
    1d50:	d6c18793          	addi	a5,gp,-660 # 2000069c <husart1>
    1d54:	2bde                	lhu	a5,20(a5)
    1d56:	0785                	addi	a5,a5,1
    1d58:	01079713          	slli	a4,a5,0x10
    1d5c:	8341                	srli	a4,a4,0x10
    1d5e:	d6c18793          	addi	a5,gp,-660 # 2000069c <husart1>
    1d62:	abda                	sh	a4,20(a5)
    1d64:	a029                	j	1d6e <USART1_IRQHandler+0x6e>
    1d66:	d6c18793          	addi	a5,gp,-660 # 2000069c <husart1>
    1d6a:	00079a23          	sh	zero,20(a5)
    1d6e:	400147b7          	lui	a5,0x40014
    1d72:	80078793          	addi	a5,a5,-2048 # 40013800 <_eusrstack+0x2000e800>
    1d76:	239e                	lhu	a5,0(a5)
    1d78:	07c2                	slli	a5,a5,0x10
    1d7a:	83c1                	srli	a5,a5,0x10
    1d7c:	8bc1                	andi	a5,a5,16
    1d7e:	c385                	beqz	a5,1d9e <USART1_IRQHandler+0x9e>
    1d80:	400147b7          	lui	a5,0x40014
    1d84:	80078793          	addi	a5,a5,-2048 # 40013800 <_eusrstack+0x2000e800>
    1d88:	23de                	lhu	a5,4(a5)
    1d8a:	d6c18793          	addi	a5,gp,-660 # 2000069c <husart1>
    1d8e:	2bda                	lhu	a4,20(a5)
    1d90:	d6c18793          	addi	a5,gp,-660 # 2000069c <husart1>
    1d94:	abfa                	sh	a4,22(a5)
    1d96:	d6c18793          	addi	a5,gp,-660 # 2000069c <husart1>
    1d9a:	00079a23          	sh	zero,20(a5)
    1d9e:	0001                	nop
    1da0:	4432                	lw	s0,12(sp)
    1da2:	46a2                	lw	a3,8(sp)
    1da4:	4712                	lw	a4,4(sp)
    1da6:	4782                	lw	a5,0(sp)
    1da8:	0141                	addi	sp,sp,16
    1daa:	30200073          	mret

00001dae <USART2_IRQHandler>:
    1dae:	1141                	addi	sp,sp,-16
    1db0:	c622                	sw	s0,12(sp)
    1db2:	c436                	sw	a3,8(sp)
    1db4:	c23a                	sw	a4,4(sp)
    1db6:	c03e                	sw	a5,0(sp)
    1db8:	0800                	addi	s0,sp,16
    1dba:	400047b7          	lui	a5,0x40004
    1dbe:	40078793          	addi	a5,a5,1024 # 40004400 <_eusrstack+0x1ffff400>
    1dc2:	239e                	lhu	a5,0(a5)
    1dc4:	07c2                	slli	a5,a5,0x10
    1dc6:	83c1                	srli	a5,a5,0x10
    1dc8:	0207f793          	andi	a5,a5,32
    1dcc:	cba1                	beqz	a5,1e1c <USART2_IRQHandler+0x6e>
    1dce:	d8418793          	addi	a5,gp,-636 # 200006b4 <husart2>
    1dd2:	2bda                	lhu	a4,20(a5)
    1dd4:	47cd                	li	a5,19
    1dd6:	02e7ef63          	bltu	a5,a4,1e14 <USART2_IRQHandler+0x66>
    1dda:	400047b7          	lui	a5,0x40004
    1dde:	40078793          	addi	a5,a5,1024 # 40004400 <_eusrstack+0x1ffff400>
    1de2:	23de                	lhu	a5,4(a5)
    1de4:	01079713          	slli	a4,a5,0x10
    1de8:	8341                	srli	a4,a4,0x10
    1dea:	d8418793          	addi	a5,gp,-636 # 200006b4 <husart2>
    1dee:	2bde                	lhu	a5,20(a5)
    1df0:	86be                	mv	a3,a5
    1df2:	0ff77713          	andi	a4,a4,255
    1df6:	d8418793          	addi	a5,gp,-636 # 200006b4 <husart2>
    1dfa:	97b6                	add	a5,a5,a3
    1dfc:	a398                	sb	a4,0(a5)
    1dfe:	d8418793          	addi	a5,gp,-636 # 200006b4 <husart2>
    1e02:	2bde                	lhu	a5,20(a5)
    1e04:	0785                	addi	a5,a5,1
    1e06:	01079713          	slli	a4,a5,0x10
    1e0a:	8341                	srli	a4,a4,0x10
    1e0c:	d8418793          	addi	a5,gp,-636 # 200006b4 <husart2>
    1e10:	abda                	sh	a4,20(a5)
    1e12:	a029                	j	1e1c <USART2_IRQHandler+0x6e>
    1e14:	d8418793          	addi	a5,gp,-636 # 200006b4 <husart2>
    1e18:	00079a23          	sh	zero,20(a5)
    1e1c:	400047b7          	lui	a5,0x40004
    1e20:	40078793          	addi	a5,a5,1024 # 40004400 <_eusrstack+0x1ffff400>
    1e24:	239e                	lhu	a5,0(a5)
    1e26:	07c2                	slli	a5,a5,0x10
    1e28:	83c1                	srli	a5,a5,0x10
    1e2a:	8bc1                	andi	a5,a5,16
    1e2c:	c385                	beqz	a5,1e4c <USART2_IRQHandler+0x9e>
    1e2e:	400047b7          	lui	a5,0x40004
    1e32:	40078793          	addi	a5,a5,1024 # 40004400 <_eusrstack+0x1ffff400>
    1e36:	23de                	lhu	a5,4(a5)
    1e38:	d8418793          	addi	a5,gp,-636 # 200006b4 <husart2>
    1e3c:	2bda                	lhu	a4,20(a5)
    1e3e:	d8418793          	addi	a5,gp,-636 # 200006b4 <husart2>
    1e42:	abfa                	sh	a4,22(a5)
    1e44:	d8418793          	addi	a5,gp,-636 # 200006b4 <husart2>
    1e48:	00079a23          	sh	zero,20(a5)
    1e4c:	0001                	nop
    1e4e:	4432                	lw	s0,12(sp)
    1e50:	46a2                	lw	a3,8(sp)
    1e52:	4712                	lw	a4,4(sp)
    1e54:	4782                	lw	a5,0(sp)
    1e56:	0141                	addi	sp,sp,16
    1e58:	30200073          	mret

00001e5c <USART3_IRQHandler>:
    1e5c:	1141                	addi	sp,sp,-16
    1e5e:	c622                	sw	s0,12(sp)
    1e60:	c436                	sw	a3,8(sp)
    1e62:	c23a                	sw	a4,4(sp)
    1e64:	c03e                	sw	a5,0(sp)
    1e66:	0800                	addi	s0,sp,16
    1e68:	400057b7          	lui	a5,0x40005
    1e6c:	80078793          	addi	a5,a5,-2048 # 40004800 <_eusrstack+0x1ffff800>
    1e70:	239e                	lhu	a5,0(a5)
    1e72:	07c2                	slli	a5,a5,0x10
    1e74:	83c1                	srli	a5,a5,0x10
    1e76:	0207f793          	andi	a5,a5,32
    1e7a:	cba1                	beqz	a5,1eca <USART3_IRQHandler+0x6e>
    1e7c:	d9c18793          	addi	a5,gp,-612 # 200006cc <husart3>
    1e80:	2bda                	lhu	a4,20(a5)
    1e82:	47cd                	li	a5,19
    1e84:	02e7ef63          	bltu	a5,a4,1ec2 <USART3_IRQHandler+0x66>
    1e88:	400057b7          	lui	a5,0x40005
    1e8c:	80078793          	addi	a5,a5,-2048 # 40004800 <_eusrstack+0x1ffff800>
    1e90:	23de                	lhu	a5,4(a5)
    1e92:	01079713          	slli	a4,a5,0x10
    1e96:	8341                	srli	a4,a4,0x10
    1e98:	d9c18793          	addi	a5,gp,-612 # 200006cc <husart3>
    1e9c:	2bde                	lhu	a5,20(a5)
    1e9e:	86be                	mv	a3,a5
    1ea0:	0ff77713          	andi	a4,a4,255
    1ea4:	d9c18793          	addi	a5,gp,-612 # 200006cc <husart3>
    1ea8:	97b6                	add	a5,a5,a3
    1eaa:	a398                	sb	a4,0(a5)
    1eac:	d9c18793          	addi	a5,gp,-612 # 200006cc <husart3>
    1eb0:	2bde                	lhu	a5,20(a5)
    1eb2:	0785                	addi	a5,a5,1
    1eb4:	01079713          	slli	a4,a5,0x10
    1eb8:	8341                	srli	a4,a4,0x10
    1eba:	d9c18793          	addi	a5,gp,-612 # 200006cc <husart3>
    1ebe:	abda                	sh	a4,20(a5)
    1ec0:	a029                	j	1eca <USART3_IRQHandler+0x6e>
    1ec2:	d9c18793          	addi	a5,gp,-612 # 200006cc <husart3>
    1ec6:	00079a23          	sh	zero,20(a5)
    1eca:	400057b7          	lui	a5,0x40005
    1ece:	80078793          	addi	a5,a5,-2048 # 40004800 <_eusrstack+0x1ffff800>
    1ed2:	239e                	lhu	a5,0(a5)
    1ed4:	07c2                	slli	a5,a5,0x10
    1ed6:	83c1                	srli	a5,a5,0x10
    1ed8:	8bc1                	andi	a5,a5,16
    1eda:	c385                	beqz	a5,1efa <USART3_IRQHandler+0x9e>
    1edc:	400057b7          	lui	a5,0x40005
    1ee0:	80078793          	addi	a5,a5,-2048 # 40004800 <_eusrstack+0x1ffff800>
    1ee4:	23de                	lhu	a5,4(a5)
    1ee6:	d9c18793          	addi	a5,gp,-612 # 200006cc <husart3>
    1eea:	2bda                	lhu	a4,20(a5)
    1eec:	d9c18793          	addi	a5,gp,-612 # 200006cc <husart3>
    1ef0:	abfa                	sh	a4,22(a5)
    1ef2:	d9c18793          	addi	a5,gp,-612 # 200006cc <husart3>
    1ef6:	00079a23          	sh	zero,20(a5)
    1efa:	0001                	nop
    1efc:	4432                	lw	s0,12(sp)
    1efe:	46a2                	lw	a3,8(sp)
    1f00:	4712                	lw	a4,4(sp)
    1f02:	4782                	lw	a5,0(sp)
    1f04:	0141                	addi	sp,sp,16
    1f06:	30200073          	mret

00001f0a <TIM3_IRQHandler>:
    1f0a:	715d                	addi	sp,sp,-80
    1f0c:	c686                	sw	ra,76(sp)
    1f0e:	c496                	sw	t0,72(sp)
    1f10:	c29a                	sw	t1,68(sp)
    1f12:	c09e                	sw	t2,64(sp)
    1f14:	de22                	sw	s0,60(sp)
    1f16:	dc2a                	sw	a0,56(sp)
    1f18:	da2e                	sw	a1,52(sp)
    1f1a:	d832                	sw	a2,48(sp)
    1f1c:	d636                	sw	a3,44(sp)
    1f1e:	d43a                	sw	a4,40(sp)
    1f20:	d23e                	sw	a5,36(sp)
    1f22:	d042                	sw	a6,32(sp)
    1f24:	ce46                	sw	a7,28(sp)
    1f26:	cc72                	sw	t3,24(sp)
    1f28:	ca76                	sw	t4,20(sp)
    1f2a:	c87a                	sw	t5,16(sp)
    1f2c:	c67e                	sw	t6,12(sp)
    1f2e:	0880                	addi	s0,sp,80
    1f30:	400007b7          	lui	a5,0x40000
    1f34:	40078793          	addi	a5,a5,1024 # 40000400 <_eusrstack+0x1fffb400>
    1f38:	2b9e                	lhu	a5,16(a5)
    1f3a:	07c2                	slli	a5,a5,0x10
    1f3c:	83c1                	srli	a5,a5,0x10
    1f3e:	8b85                	andi	a5,a5,1
    1f40:	c38d                	beqz	a5,1f62 <TIM3_IRQHandler+0x58>
    1f42:	400007b7          	lui	a5,0x40000
    1f46:	40078793          	addi	a5,a5,1024 # 40000400 <_eusrstack+0x1fffb400>
    1f4a:	2b9e                	lhu	a5,16(a5)
    1f4c:	01079713          	slli	a4,a5,0x10
    1f50:	8341                	srli	a4,a4,0x10
    1f52:	400007b7          	lui	a5,0x40000
    1f56:	40078793          	addi	a5,a5,1024 # 40000400 <_eusrstack+0x1fffb400>
    1f5a:	9b79                	andi	a4,a4,-2
    1f5c:	0742                	slli	a4,a4,0x10
    1f5e:	8341                	srli	a4,a4,0x10
    1f60:	ab9a                	sh	a4,16(a5)
    1f62:	400117b7          	lui	a5,0x40011
    1f66:	80078793          	addi	a5,a5,-2048 # 40010800 <_eusrstack+0x2000b800>
    1f6a:	479c                	lw	a5,8(a5)
    1f6c:	8b85                	andi	a5,a5,1
    1f6e:	00f037b3          	snez	a5,a5
    1f72:	0ff7f693          	andi	a3,a5,255
    1f76:	000047b7          	lui	a5,0x4
    1f7a:	4e678713          	addi	a4,a5,1254 # 44e6 <Button0_Callback>
    1f7e:	86218613          	addi	a2,gp,-1950 # 20000192 <Button0+0x2>
    1f82:	86118593          	addi	a1,gp,-1951 # 20000191 <Button0+0x1>
    1f86:	86018513          	addi	a0,gp,-1952 # 20000190 <Button0>
    1f8a:	17f020ef          	jal	ra,4908 <ButtonAction>
    1f8e:	400117b7          	lui	a5,0x40011
    1f92:	80078793          	addi	a5,a5,-2048 # 40010800 <_eusrstack+0x2000b800>
    1f96:	479c                	lw	a5,8(a5)
    1f98:	8b89                	andi	a5,a5,2
    1f9a:	00f037b3          	snez	a5,a5
    1f9e:	0ff7f693          	andi	a3,a5,255
    1fa2:	000047b7          	lui	a5,0x4
    1fa6:	5aa78713          	addi	a4,a5,1450 # 45aa <Button1_Callback>
    1faa:	86618613          	addi	a2,gp,-1946 # 20000196 <Button1+0x2>
    1fae:	86518593          	addi	a1,gp,-1947 # 20000195 <Button1+0x1>
    1fb2:	86418513          	addi	a0,gp,-1948 # 20000194 <Button1>
    1fb6:	153020ef          	jal	ra,4908 <ButtonAction>
    1fba:	400117b7          	lui	a5,0x40011
    1fbe:	c0078793          	addi	a5,a5,-1024 # 40010c00 <_eusrstack+0x2000bc00>
    1fc2:	479c                	lw	a5,8(a5)
    1fc4:	8b85                	andi	a5,a5,1
    1fc6:	00f037b3          	snez	a5,a5
    1fca:	0ff7f693          	andi	a3,a5,255
    1fce:	000047b7          	lui	a5,0x4
    1fd2:	67678713          	addi	a4,a5,1654 # 4676 <Button2_Callback>
    1fd6:	86a18613          	addi	a2,gp,-1942 # 2000019a <Button2+0x2>
    1fda:	86918593          	addi	a1,gp,-1943 # 20000199 <Button2+0x1>
    1fde:	86818513          	addi	a0,gp,-1944 # 20000198 <Button2>
    1fe2:	127020ef          	jal	ra,4908 <ButtonAction>
    1fe6:	400117b7          	lui	a5,0x40011
    1fea:	c0078793          	addi	a5,a5,-1024 # 40010c00 <_eusrstack+0x2000bc00>
    1fee:	479c                	lw	a5,8(a5)
    1ff0:	8b89                	andi	a5,a5,2
    1ff2:	00f037b3          	snez	a5,a5
    1ff6:	0ff7f693          	andi	a3,a5,255
    1ffa:	000047b7          	lui	a5,0x4
    1ffe:	6be78713          	addi	a4,a5,1726 # 46be <Button3_Callback>
    2002:	86e18613          	addi	a2,gp,-1938 # 2000019e <Button3+0x2>
    2006:	86d18593          	addi	a1,gp,-1939 # 2000019d <Button3+0x1>
    200a:	86c18513          	addi	a0,gp,-1940 # 2000019c <Button3>
    200e:	0fb020ef          	jal	ra,4908 <ButtonAction>
    2012:	0001                	nop
    2014:	40b6                	lw	ra,76(sp)
    2016:	42a6                	lw	t0,72(sp)
    2018:	4316                	lw	t1,68(sp)
    201a:	4386                	lw	t2,64(sp)
    201c:	5472                	lw	s0,60(sp)
    201e:	5562                	lw	a0,56(sp)
    2020:	55d2                	lw	a1,52(sp)
    2022:	5642                	lw	a2,48(sp)
    2024:	56b2                	lw	a3,44(sp)
    2026:	5722                	lw	a4,40(sp)
    2028:	5792                	lw	a5,36(sp)
    202a:	5802                	lw	a6,32(sp)
    202c:	48f2                	lw	a7,28(sp)
    202e:	4e62                	lw	t3,24(sp)
    2030:	4ed2                	lw	t4,20(sp)
    2032:	4f42                	lw	t5,16(sp)
    2034:	4fb2                	lw	t6,12(sp)
    2036:	6161                	addi	sp,sp,80
    2038:	30200073          	mret

0000203c <NVIC_EnableIRQ>:
    203c:	1101                	addi	sp,sp,-32
    203e:	ce22                	sw	s0,28(sp)
    2040:	1000                	addi	s0,sp,32
    2042:	fea42623          	sw	a0,-20(s0)
    2046:	fec42783          	lw	a5,-20(s0)
    204a:	8bfd                	andi	a5,a5,31
    204c:	4705                	li	a4,1
    204e:	00f716b3          	sll	a3,a4,a5
    2052:	e000e737          	lui	a4,0xe000e
    2056:	fec42783          	lw	a5,-20(s0)
    205a:	8395                	srli	a5,a5,0x5
    205c:	04078793          	addi	a5,a5,64
    2060:	078a                	slli	a5,a5,0x2
    2062:	97ba                	add	a5,a5,a4
    2064:	c394                	sw	a3,0(a5)
    2066:	0001                	nop
    2068:	4472                	lw	s0,28(sp)
    206a:	6105                	addi	sp,sp,32
    206c:	8082                	ret

0000206e <NVIC_SetPriority>:
    206e:	1101                	addi	sp,sp,-32
    2070:	ce22                	sw	s0,28(sp)
    2072:	1000                	addi	s0,sp,32
    2074:	fea42623          	sw	a0,-20(s0)
    2078:	87ae                	mv	a5,a1
    207a:	fef405a3          	sb	a5,-21(s0)
    207e:	feb44703          	lbu	a4,-21(s0)
    2082:	479d                	li	a5,7
    2084:	00e7f563          	bgeu	a5,a4,208e <NVIC_SetPriority+0x20>
    2088:	479d                	li	a5,7
    208a:	fef405a3          	sb	a5,-21(s0)
    208e:	e000e6b7          	lui	a3,0xe000e
    2092:	feb44783          	lbu	a5,-21(s0)
    2096:	0796                	slli	a5,a5,0x5
    2098:	0ff7f713          	andi	a4,a5,255
    209c:	fec42783          	lw	a5,-20(s0)
    20a0:	97b6                	add	a5,a5,a3
    20a2:	40e78023          	sb	a4,1024(a5)
    20a6:	0001                	nop
    20a8:	4472                	lw	s0,28(sp)
    20aa:	6105                	addi	sp,sp,32
    20ac:	8082                	ret

000020ae <RVMSIS_Debug_init>:
    20ae:	1141                	addi	sp,sp,-16
    20b0:	c622                	sw	s0,12(sp)
    20b2:	0800                	addi	s0,sp,16
    20b4:	400217b7          	lui	a5,0x40021
    20b8:	4f98                	lw	a4,24(a5)
    20ba:	400217b7          	lui	a5,0x40021
    20be:	00476713          	ori	a4,a4,4
    20c2:	cf98                	sw	a4,24(a5)
    20c4:	400217b7          	lui	a5,0x40021
    20c8:	4f98                	lw	a4,24(a5)
    20ca:	400217b7          	lui	a5,0x40021
    20ce:	00176713          	ori	a4,a4,1
    20d2:	cf98                	sw	a4,24(a5)
    20d4:	400107b7          	lui	a5,0x40010
    20d8:	43d4                	lw	a3,4(a5)
    20da:	400107b7          	lui	a5,0x40010
    20de:	f9000737          	lui	a4,0xf9000
    20e2:	177d                	addi	a4,a4,-1
    20e4:	8f75                	and	a4,a4,a3
    20e6:	c3d8                	sw	a4,4(a5)
    20e8:	400117b7          	lui	a5,0x40011
    20ec:	80078793          	addi	a5,a5,-2048 # 40010800 <_eusrstack+0x2000b800>
    20f0:	6759                	lui	a4,0x16
    20f2:	cf98                	sw	a4,24(a5)
    20f4:	400117b7          	lui	a5,0x40011
    20f8:	80078793          	addi	a5,a5,-2048 # 40010800 <_eusrstack+0x2000b800>
    20fc:	6719                	lui	a4,0x6
    20fe:	cf98                	sw	a4,24(a5)
    2100:	400117b7          	lui	a5,0x40011
    2104:	80078793          	addi	a5,a5,-2048 # 40010800 <_eusrstack+0x2000b800>
    2108:	6759                	lui	a4,0x16
    210a:	cf98                	sw	a4,24(a5)
    210c:	400117b7          	lui	a5,0x40011
    2110:	80078793          	addi	a5,a5,-2048 # 40010800 <_eusrstack+0x2000b800>
    2114:	4f9c                	lw	a5,24(a5)
    2116:	0001                	nop
    2118:	4432                	lw	s0,12(sp)
    211a:	0141                	addi	sp,sp,16
    211c:	8082                	ret

0000211e <RVMSIS_RCC_SystemClock_144MHz>:
    211e:	1141                	addi	sp,sp,-16
    2120:	c622                	sw	s0,12(sp)
    2122:	0800                	addi	s0,sp,16
    2124:	400217b7          	lui	a5,0x40021
    2128:	4398                	lw	a4,0(a5)
    212a:	400217b7          	lui	a5,0x40021
    212e:	00176713          	ori	a4,a4,1
    2132:	c398                	sw	a4,0(a5)
    2134:	0001                	nop
    2136:	400217b7          	lui	a5,0x40021
    213a:	439c                	lw	a5,0(a5)
    213c:	8b89                	andi	a5,a5,2
    213e:	dfe5                	beqz	a5,2136 <RVMSIS_RCC_SystemClock_144MHz+0x18>
    2140:	400217b7          	lui	a5,0x40021
    2144:	4394                	lw	a3,0(a5)
    2146:	400217b7          	lui	a5,0x40021
    214a:	fffc0737          	lui	a4,0xfffc0
    214e:	177d                	addi	a4,a4,-1
    2150:	8f75                	and	a4,a4,a3
    2152:	c398                	sw	a4,0(a5)
    2154:	400217b7          	lui	a5,0x40021
    2158:	4394                	lw	a3,0(a5)
    215a:	400217b7          	lui	a5,0x40021
    215e:	6741                	lui	a4,0x10
    2160:	8f55                	or	a4,a4,a3
    2162:	c398                	sw	a4,0(a5)
    2164:	0001                	nop
    2166:	400217b7          	lui	a5,0x40021
    216a:	4398                	lw	a4,0(a5)
    216c:	000207b7          	lui	a5,0x20
    2170:	8ff9                	and	a5,a5,a4
    2172:	dbf5                	beqz	a5,2166 <RVMSIS_RCC_SystemClock_144MHz+0x48>
    2174:	400217b7          	lui	a5,0x40021
    2178:	4394                	lw	a3,0(a5)
    217a:	400217b7          	lui	a5,0x40021
    217e:	00080737          	lui	a4,0x80
    2182:	8f55                	or	a4,a4,a3
    2184:	c398                	sw	a4,0(a5)
    2186:	400217b7          	lui	a5,0x40021
    218a:	43dc                	lw	a5,4(a5)
    218c:	ffc7f713          	andi	a4,a5,-4
    2190:	400217b7          	lui	a5,0x40021
    2194:	00176713          	ori	a4,a4,1
    2198:	c3d8                	sw	a4,4(a5)
    219a:	400217b7          	lui	a5,0x40021
    219e:	4394                	lw	a3,0(a5)
    21a0:	400217b7          	lui	a5,0x40021
    21a4:	ff000737          	lui	a4,0xff000
    21a8:	177d                	addi	a4,a4,-1
    21aa:	8f75                	and	a4,a4,a3
    21ac:	c398                	sw	a4,0(a5)
    21ae:	400217b7          	lui	a5,0x40021
    21b2:	43dc                	lw	a5,4(a5)
    21b4:	f0f7f713          	andi	a4,a5,-241
    21b8:	400217b7          	lui	a5,0x40021
    21bc:	08076713          	ori	a4,a4,128
    21c0:	c3d8                	sw	a4,4(a5)
    21c2:	400227b7          	lui	a5,0x40022
    21c6:	4b94                	lw	a3,16(a5)
    21c8:	400227b7          	lui	a5,0x40022
    21cc:	fe000737          	lui	a4,0xfe000
    21d0:	177d                	addi	a4,a4,-1
    21d2:	8f75                	and	a4,a4,a3
    21d4:	cb98                	sw	a4,16(a5)
    21d6:	400217b7          	lui	a5,0x40021
    21da:	43dc                	lw	a5,4(a5)
    21dc:	8ff7f713          	andi	a4,a5,-1793
    21e0:	400217b7          	lui	a5,0x40021
    21e4:	40076713          	ori	a4,a4,1024
    21e8:	c3d8                	sw	a4,4(a5)
    21ea:	400217b7          	lui	a5,0x40021
    21ee:	43d4                	lw	a3,4(a5)
    21f0:	400217b7          	lui	a5,0x40021
    21f4:	7771                	lui	a4,0xffffc
    21f6:	7ff70713          	addi	a4,a4,2047 # ffffc7ff <_eusrstack+0xdfff77ff>
    21fa:	8f75                	and	a4,a4,a3
    21fc:	c3d8                	sw	a4,4(a5)
    21fe:	400217b7          	lui	a5,0x40021
    2202:	43d8                	lw	a4,4(a5)
    2204:	77d1                	lui	a5,0xffff4
    2206:	17fd                	addi	a5,a5,-1
    2208:	00f776b3          	and	a3,a4,a5
    220c:	400217b7          	lui	a5,0x40021
    2210:	6721                	lui	a4,0x8
    2212:	8f55                	or	a4,a4,a3
    2214:	c3d8                	sw	a4,4(a5)
    2216:	400217b7          	lui	a5,0x40021
    221a:	43d4                	lw	a3,4(a5)
    221c:	400217b7          	lui	a5,0x40021
    2220:	7701                	lui	a4,0xfffe0
    2222:	177d                	addi	a4,a4,-1
    2224:	8f75                	and	a4,a4,a3
    2226:	c3d8                	sw	a4,4(a5)
    2228:	400217b7          	lui	a5,0x40021
    222c:	43d4                	lw	a3,4(a5)
    222e:	400217b7          	lui	a5,0x40021
    2232:	6741                	lui	a4,0x10
    2234:	8f55                	or	a4,a4,a3
    2236:	c3d8                	sw	a4,4(a5)
    2238:	400217b7          	lui	a5,0x40021
    223c:	43d4                	lw	a3,4(a5)
    223e:	400217b7          	lui	a5,0x40021
    2242:	003c0737          	lui	a4,0x3c0
    2246:	8f55                	or	a4,a4,a3
    2248:	c3d8                	sw	a4,4(a5)
    224a:	400217b7          	lui	a5,0x40021
    224e:	43d8                	lw	a4,4(a5)
    2250:	ff4007b7          	lui	a5,0xff400
    2254:	17fd                	addi	a5,a5,-1
    2256:	00f776b3          	and	a3,a4,a5
    225a:	400217b7          	lui	a5,0x40021
    225e:	00800737          	lui	a4,0x800
    2262:	8f55                	or	a4,a4,a3
    2264:	c3d8                	sw	a4,4(a5)
    2266:	400217b7          	lui	a5,0x40021
    226a:	43d4                	lw	a3,4(a5)
    226c:	400217b7          	lui	a5,0x40021
    2270:	f9000737          	lui	a4,0xf9000
    2274:	177d                	addi	a4,a4,-1
    2276:	8f75                	and	a4,a4,a3
    2278:	c3d8                	sw	a4,4(a5)
    227a:	400217b7          	lui	a5,0x40021
    227e:	4394                	lw	a3,0(a5)
    2280:	400217b7          	lui	a5,0x40021
    2284:	01000737          	lui	a4,0x1000
    2288:	8f55                	or	a4,a4,a3
    228a:	c398                	sw	a4,0(a5)
    228c:	400217b7          	lui	a5,0x40021
    2290:	43dc                	lw	a5,4(a5)
    2292:	ffc7f713          	andi	a4,a5,-4
    2296:	400217b7          	lui	a5,0x40021
    229a:	00276713          	ori	a4,a4,2
    229e:	c3d8                	sw	a4,4(a5)
    22a0:	0001                	nop
    22a2:	400217b7          	lui	a5,0x40021
    22a6:	4398                	lw	a4,0(a5)
    22a8:	020007b7          	lui	a5,0x2000
    22ac:	8ff9                	and	a5,a5,a4
    22ae:	dbf5                	beqz	a5,22a2 <RVMSIS_RCC_SystemClock_144MHz+0x184>
    22b0:	0001                	nop
    22b2:	4432                	lw	s0,12(sp)
    22b4:	0141                	addi	sp,sp,16
    22b6:	8082                	ret

000022b8 <RVMSIS_SysTick_Timer_init>:
    22b8:	1141                	addi	sp,sp,-16
    22ba:	c606                	sw	ra,12(sp)
    22bc:	c422                	sw	s0,8(sp)
    22be:	0800                	addi	s0,sp,16
    22c0:	e000f7b7          	lui	a5,0xe000f
    22c4:	4398                	lw	a4,0(a5)
    22c6:	e000f7b7          	lui	a5,0xe000f
    22ca:	9b79                	andi	a4,a4,-2
    22cc:	c398                	sw	a4,0(a5)
    22ce:	e000f7b7          	lui	a5,0xe000f
    22d2:	4398                	lw	a4,0(a5)
    22d4:	e000f7b7          	lui	a5,0xe000f
    22d8:	00276713          	ori	a4,a4,2
    22dc:	c398                	sw	a4,0(a5)
    22de:	e000f7b7          	lui	a5,0xe000f
    22e2:	4398                	lw	a4,0(a5)
    22e4:	e000f7b7          	lui	a5,0xe000f
    22e8:	9b6d                	andi	a4,a4,-5
    22ea:	c398                	sw	a4,0(a5)
    22ec:	e000f7b7          	lui	a5,0xe000f
    22f0:	4398                	lw	a4,0(a5)
    22f2:	e000f7b7          	lui	a5,0xe000f
    22f6:	00876713          	ori	a4,a4,8
    22fa:	c398                	sw	a4,0(a5)
    22fc:	e000f7b7          	lui	a5,0xe000f
    2300:	4398                	lw	a4,0(a5)
    2302:	e000f7b7          	lui	a5,0xe000f
    2306:	01076713          	ori	a4,a4,16
    230a:	c398                	sw	a4,0(a5)
    230c:	e000f7b7          	lui	a5,0xe000f
    2310:	4398                	lw	a4,0(a5)
    2312:	e000f7b7          	lui	a5,0xe000f
    2316:	02076713          	ori	a4,a4,32
    231a:	c398                	sw	a4,0(a5)
    231c:	e000f737          	lui	a4,0xe000f
    2320:	6789                	lui	a5,0x2
    2322:	32778793          	addi	a5,a5,807 # 2327 <RVMSIS_SysTick_Timer_init+0x6f>
    2326:	4801                	li	a6,0
    2328:	cb1c                	sw	a5,16(a4)
    232a:	01072a23          	sw	a6,20(a4) # e000f014 <_eusrstack+0xc000a014>
    232e:	4531                	li	a0,12
    2330:	3331                	jal	203c <NVIC_EnableIRQ>
    2332:	459d                	li	a1,7
    2334:	4531                	li	a0,12
    2336:	3b25                	jal	206e <NVIC_SetPriority>
    2338:	e000f7b7          	lui	a5,0xe000f
    233c:	4398                	lw	a4,0(a5)
    233e:	e000f7b7          	lui	a5,0xe000f
    2342:	00176713          	ori	a4,a4,1
    2346:	c398                	sw	a4,0(a5)
    2348:	0001                	nop
    234a:	40b2                	lw	ra,12(sp)
    234c:	4422                	lw	s0,8(sp)
    234e:	0141                	addi	sp,sp,16
    2350:	8082                	ret

00002352 <Delay_ms>:
    2352:	1101                	addi	sp,sp,-32
    2354:	ce22                	sw	s0,28(sp)
    2356:	1000                	addi	s0,sp,32
    2358:	fea42623          	sw	a0,-20(s0)
    235c:	fec42703          	lw	a4,-20(s0)
    2360:	82e1a623          	sw	a4,-2004(gp) # 2000015c <Delay_counter_ms>
    2364:	0001                	nop
    2366:	82c1a783          	lw	a5,-2004(gp) # 2000015c <Delay_counter_ms>
    236a:	fff5                	bnez	a5,2366 <Delay_ms+0x14>
    236c:	0001                	nop
    236e:	4472                	lw	s0,28(sp)
    2370:	6105                	addi	sp,sp,32
    2372:	8082                	ret

00002374 <RVMSIS_GPIO_MODE_Set>:
    2374:	7179                	addi	sp,sp,-48
    2376:	d622                	sw	s0,44(sp)
    2378:	1800                	addi	s0,sp,48
    237a:	fca42e23          	sw	a0,-36(s0)
    237e:	87ae                	mv	a5,a1
    2380:	8736                	mv	a4,a3
    2382:	fcf40da3          	sb	a5,-37(s0)
    2386:	87b2                	mv	a5,a2
    2388:	fcf40d23          	sb	a5,-38(s0)
    238c:	87ba                	mv	a5,a4
    238e:	fcf40ca3          	sb	a5,-39(s0)
    2392:	fe0407a3          	sb	zero,-17(s0)
    2396:	fda44783          	lbu	a5,-38(s0)
    239a:	c789                	beqz	a5,23a4 <RVMSIS_GPIO_MODE_Set+0x30>
    239c:	4705                	li	a4,1
    239e:	02e78e63          	beq	a5,a4,23da <RVMSIS_GPIO_MODE_Set+0x66>
    23a2:	a8a5                	j	241a <RVMSIS_GPIO_MODE_Set+0xa6>
    23a4:	fdb44783          	lbu	a5,-37(s0)
    23a8:	078a                	slli	a5,a5,0x2
    23aa:	fef407a3          	sb	a5,-17(s0)
    23ae:	fdc42783          	lw	a5,-36(s0)
    23b2:	4398                	lw	a4,0(a5)
    23b4:	fef44783          	lbu	a5,-17(s0)
    23b8:	468d                	li	a3,3
    23ba:	00f697b3          	sll	a5,a3,a5
    23be:	fff7c793          	not	a5,a5
    23c2:	8ff9                	and	a5,a5,a4
    23c4:	fd944683          	lbu	a3,-39(s0)
    23c8:	fef44703          	lbu	a4,-17(s0)
    23cc:	00e69733          	sll	a4,a3,a4
    23d0:	8f5d                	or	a4,a4,a5
    23d2:	fdc42783          	lw	a5,-36(s0)
    23d6:	c398                	sw	a4,0(a5)
    23d8:	a089                	j	241a <RVMSIS_GPIO_MODE_Set+0xa6>
    23da:	fdb44783          	lbu	a5,-37(s0)
    23de:	17e1                	addi	a5,a5,-8
    23e0:	fcf40da3          	sb	a5,-37(s0)
    23e4:	fdb44783          	lbu	a5,-37(s0)
    23e8:	078a                	slli	a5,a5,0x2
    23ea:	fef407a3          	sb	a5,-17(s0)
    23ee:	fdc42783          	lw	a5,-36(s0)
    23f2:	43d8                	lw	a4,4(a5)
    23f4:	fef44783          	lbu	a5,-17(s0)
    23f8:	468d                	li	a3,3
    23fa:	00f697b3          	sll	a5,a3,a5
    23fe:	fff7c793          	not	a5,a5
    2402:	8ff9                	and	a5,a5,a4
    2404:	fd944683          	lbu	a3,-39(s0)
    2408:	fef44703          	lbu	a4,-17(s0)
    240c:	00e69733          	sll	a4,a3,a4
    2410:	8f5d                	or	a4,a4,a5
    2412:	fdc42783          	lw	a5,-36(s0)
    2416:	c3d8                	sw	a4,4(a5)
    2418:	0001                	nop
    241a:	0001                	nop
    241c:	5432                	lw	s0,44(sp)
    241e:	6145                	addi	sp,sp,48
    2420:	8082                	ret

00002422 <RVMSIS_GPIO_SPEED_Set>:
    2422:	7179                	addi	sp,sp,-48
    2424:	d606                	sw	ra,44(sp)
    2426:	d422                	sw	s0,40(sp)
    2428:	1800                	addi	s0,sp,48
    242a:	fca42e23          	sw	a0,-36(s0)
    242e:	87ae                	mv	a5,a1
    2430:	8732                	mv	a4,a2
    2432:	fcf40da3          	sb	a5,-37(s0)
    2436:	87ba                	mv	a5,a4
    2438:	fcf40d23          	sb	a5,-38(s0)
    243c:	fe0407a3          	sb	zero,-17(s0)
    2440:	fdb44703          	lbu	a4,-37(s0)
    2444:	479d                	li	a5,7
    2446:	00e7e563          	bltu	a5,a4,2450 <RVMSIS_GPIO_SPEED_Set+0x2e>
    244a:	fe0407a3          	sb	zero,-17(s0)
    244e:	a021                	j	2456 <RVMSIS_GPIO_SPEED_Set+0x34>
    2450:	4785                	li	a5,1
    2452:	fef407a3          	sb	a5,-17(s0)
    2456:	fda44783          	lbu	a5,-38(s0)
    245a:	ef81                	bnez	a5,2472 <RVMSIS_GPIO_SPEED_Set+0x50>
    245c:	fef44703          	lbu	a4,-17(s0)
    2460:	fdb44783          	lbu	a5,-37(s0)
    2464:	4681                	li	a3,0
    2466:	863a                	mv	a2,a4
    2468:	85be                	mv	a1,a5
    246a:	fdc42503          	lw	a0,-36(s0)
    246e:	3719                	jal	2374 <RVMSIS_GPIO_MODE_Set>
    2470:	a085                	j	24d0 <RVMSIS_GPIO_SPEED_Set+0xae>
    2472:	fda44703          	lbu	a4,-38(s0)
    2476:	4785                	li	a5,1
    2478:	00f71d63          	bne	a4,a5,2492 <RVMSIS_GPIO_SPEED_Set+0x70>
    247c:	fef44703          	lbu	a4,-17(s0)
    2480:	fdb44783          	lbu	a5,-37(s0)
    2484:	4685                	li	a3,1
    2486:	863a                	mv	a2,a4
    2488:	85be                	mv	a1,a5
    248a:	fdc42503          	lw	a0,-36(s0)
    248e:	35dd                	jal	2374 <RVMSIS_GPIO_MODE_Set>
    2490:	a081                	j	24d0 <RVMSIS_GPIO_SPEED_Set+0xae>
    2492:	fda44703          	lbu	a4,-38(s0)
    2496:	4789                	li	a5,2
    2498:	00f71d63          	bne	a4,a5,24b2 <RVMSIS_GPIO_SPEED_Set+0x90>
    249c:	fef44703          	lbu	a4,-17(s0)
    24a0:	fdb44783          	lbu	a5,-37(s0)
    24a4:	4689                	li	a3,2
    24a6:	863a                	mv	a2,a4
    24a8:	85be                	mv	a1,a5
    24aa:	fdc42503          	lw	a0,-36(s0)
    24ae:	35d9                	jal	2374 <RVMSIS_GPIO_MODE_Set>
    24b0:	a005                	j	24d0 <RVMSIS_GPIO_SPEED_Set+0xae>
    24b2:	fda44703          	lbu	a4,-38(s0)
    24b6:	478d                	li	a5,3
    24b8:	00f71c63          	bne	a4,a5,24d0 <RVMSIS_GPIO_SPEED_Set+0xae>
    24bc:	fef44703          	lbu	a4,-17(s0)
    24c0:	fdb44783          	lbu	a5,-37(s0)
    24c4:	468d                	li	a3,3
    24c6:	863a                	mv	a2,a4
    24c8:	85be                	mv	a1,a5
    24ca:	fdc42503          	lw	a0,-36(s0)
    24ce:	355d                	jal	2374 <RVMSIS_GPIO_MODE_Set>
    24d0:	0001                	nop
    24d2:	50b2                	lw	ra,44(sp)
    24d4:	5422                	lw	s0,40(sp)
    24d6:	6145                	addi	sp,sp,48
    24d8:	8082                	ret

000024da <RVMSIS_GPIO_CNF_Set>:
    24da:	1101                	addi	sp,sp,-32
    24dc:	ce22                	sw	s0,28(sp)
    24de:	1000                	addi	s0,sp,32
    24e0:	fea42623          	sw	a0,-20(s0)
    24e4:	87ae                	mv	a5,a1
    24e6:	8732                	mv	a4,a2
    24e8:	fed42223          	sw	a3,-28(s0)
    24ec:	fef405a3          	sb	a5,-21(s0)
    24f0:	87ba                	mv	a5,a4
    24f2:	fef40523          	sb	a5,-22(s0)
    24f6:	feb44783          	lbu	a5,-21(s0)
    24fa:	c789                	beqz	a5,2504 <RVMSIS_GPIO_CNF_Set+0x2a>
    24fc:	4705                	li	a4,1
    24fe:	02e78d63          	beq	a5,a4,2538 <RVMSIS_GPIO_CNF_Set+0x5e>
    2502:	a09d                	j	2568 <RVMSIS_GPIO_CNF_Set+0x8e>
    2504:	fec42783          	lw	a5,-20(s0)
    2508:	4398                	lw	a4,0(a5)
    250a:	fe442783          	lw	a5,-28(s0)
    250e:	239c                	lbu	a5,0(a5)
    2510:	86be                	mv	a3,a5
    2512:	478d                	li	a5,3
    2514:	00d797b3          	sll	a5,a5,a3
    2518:	fff7c793          	not	a5,a5
    251c:	8ff9                	and	a5,a5,a4
    251e:	fea44703          	lbu	a4,-22(s0)
    2522:	fe442683          	lw	a3,-28(s0)
    2526:	2294                	lbu	a3,0(a3)
    2528:	00d71733          	sll	a4,a4,a3
    252c:	8f5d                	or	a4,a4,a5
    252e:	fec42783          	lw	a5,-20(s0)
    2532:	c398                	sw	a4,0(a5)
    2534:	0001                	nop
    2536:	a80d                	j	2568 <RVMSIS_GPIO_CNF_Set+0x8e>
    2538:	fec42783          	lw	a5,-20(s0)
    253c:	43d8                	lw	a4,4(a5)
    253e:	fe442783          	lw	a5,-28(s0)
    2542:	239c                	lbu	a5,0(a5)
    2544:	86be                	mv	a3,a5
    2546:	478d                	li	a5,3
    2548:	00d797b3          	sll	a5,a5,a3
    254c:	fff7c793          	not	a5,a5
    2550:	8ff9                	and	a5,a5,a4
    2552:	fea44703          	lbu	a4,-22(s0)
    2556:	fe442683          	lw	a3,-28(s0)
    255a:	2294                	lbu	a3,0(a3)
    255c:	00d71733          	sll	a4,a4,a3
    2560:	8f5d                	or	a4,a4,a5
    2562:	fec42783          	lw	a5,-20(s0)
    2566:	c3d8                	sw	a4,4(a5)
    2568:	0001                	nop
    256a:	4472                	lw	s0,28(sp)
    256c:	6105                	addi	sp,sp,32
    256e:	8082                	ret

00002570 <RVMSIS_GPIO_Reg_Set>:
    2570:	1101                	addi	sp,sp,-32
    2572:	ce06                	sw	ra,28(sp)
    2574:	cc22                	sw	s0,24(sp)
    2576:	1000                	addi	s0,sp,32
    2578:	fea42623          	sw	a0,-20(s0)
    257c:	feb42423          	sw	a1,-24(s0)
    2580:	fef42023          	sw	a5,-32(s0)
    2584:	87b2                	mv	a5,a2
    2586:	fef403a3          	sb	a5,-25(s0)
    258a:	87b6                	mv	a5,a3
    258c:	fef40323          	sb	a5,-26(s0)
    2590:	87ba                	mv	a5,a4
    2592:	fef402a3          	sb	a5,-27(s0)
    2596:	fe744783          	lbu	a5,-25(s0)
    259a:	4705                	li	a4,1
    259c:	04e78563          	beq	a5,a4,25e6 <RVMSIS_GPIO_Reg_Set+0x76>
    25a0:	4709                	li	a4,2
    25a2:	08e78063          	beq	a5,a4,2622 <RVMSIS_GPIO_Reg_Set+0xb2>
    25a6:	12079c63          	bnez	a5,26de <RVMSIS_GPIO_Reg_Set+0x16e>
    25aa:	fe644783          	lbu	a5,-26(s0)
    25ae:	c789                	beqz	a5,25b8 <RVMSIS_GPIO_Reg_Set+0x48>
    25b0:	4705                	li	a4,1
    25b2:	00e78e63          	beq	a5,a4,25ce <RVMSIS_GPIO_Reg_Set+0x5e>
    25b6:	a225                	j	26de <RVMSIS_GPIO_Reg_Set+0x16e>
    25b8:	fe042703          	lw	a4,-32(s0)
    25bc:	fe544783          	lbu	a5,-27(s0)
    25c0:	86ba                	mv	a3,a4
    25c2:	4601                	li	a2,0
    25c4:	85be                	mv	a1,a5
    25c6:	fec42503          	lw	a0,-20(s0)
    25ca:	3f01                	jal	24da <RVMSIS_GPIO_CNF_Set>
    25cc:	a821                	j	25e4 <RVMSIS_GPIO_Reg_Set+0x74>
    25ce:	fe042703          	lw	a4,-32(s0)
    25d2:	fe544783          	lbu	a5,-27(s0)
    25d6:	86ba                	mv	a3,a4
    25d8:	4605                	li	a2,1
    25da:	85be                	mv	a1,a5
    25dc:	fec42503          	lw	a0,-20(s0)
    25e0:	3ded                	jal	24da <RVMSIS_GPIO_CNF_Set>
    25e2:	0001                	nop
    25e4:	a8ed                	j	26de <RVMSIS_GPIO_Reg_Set+0x16e>
    25e6:	fe644783          	lbu	a5,-26(s0)
    25ea:	c789                	beqz	a5,25f4 <RVMSIS_GPIO_Reg_Set+0x84>
    25ec:	4705                	li	a4,1
    25ee:	00e78e63          	beq	a5,a4,260a <RVMSIS_GPIO_Reg_Set+0x9a>
    25f2:	a0f5                	j	26de <RVMSIS_GPIO_Reg_Set+0x16e>
    25f4:	fe042703          	lw	a4,-32(s0)
    25f8:	fe544783          	lbu	a5,-27(s0)
    25fc:	86ba                	mv	a3,a4
    25fe:	4609                	li	a2,2
    2600:	85be                	mv	a1,a5
    2602:	fec42503          	lw	a0,-20(s0)
    2606:	3dd1                	jal	24da <RVMSIS_GPIO_CNF_Set>
    2608:	a821                	j	2620 <RVMSIS_GPIO_Reg_Set+0xb0>
    260a:	fe042703          	lw	a4,-32(s0)
    260e:	fe544783          	lbu	a5,-27(s0)
    2612:	86ba                	mv	a3,a4
    2614:	460d                	li	a2,3
    2616:	85be                	mv	a1,a5
    2618:	fec42503          	lw	a0,-20(s0)
    261c:	3d7d                	jal	24da <RVMSIS_GPIO_CNF_Set>
    261e:	0001                	nop
    2620:	a87d                	j	26de <RVMSIS_GPIO_Reg_Set+0x16e>
    2622:	fe644783          	lbu	a5,-26(s0)
    2626:	470d                	li	a4,3
    2628:	02e78b63          	beq	a5,a4,265e <RVMSIS_GPIO_Reg_Set+0xee>
    262c:	470d                	li	a4,3
    262e:	00f74663          	blt	a4,a5,263a <RVMSIS_GPIO_Reg_Set+0xca>
    2632:	4709                	li	a4,2
    2634:	00e78a63          	beq	a5,a4,2648 <RVMSIS_GPIO_Reg_Set+0xd8>
    2638:	a055                	j	26dc <RVMSIS_GPIO_Reg_Set+0x16c>
    263a:	4711                	li	a4,4
    263c:	02e78c63          	beq	a5,a4,2674 <RVMSIS_GPIO_Reg_Set+0x104>
    2640:	4715                	li	a4,5
    2642:	06e78463          	beq	a5,a4,26aa <RVMSIS_GPIO_Reg_Set+0x13a>
    2646:	a859                	j	26dc <RVMSIS_GPIO_Reg_Set+0x16c>
    2648:	fe042703          	lw	a4,-32(s0)
    264c:	fe544783          	lbu	a5,-27(s0)
    2650:	86ba                	mv	a3,a4
    2652:	4601                	li	a2,0
    2654:	85be                	mv	a1,a5
    2656:	fec42503          	lw	a0,-20(s0)
    265a:	3541                	jal	24da <RVMSIS_GPIO_CNF_Set>
    265c:	a041                	j	26dc <RVMSIS_GPIO_Reg_Set+0x16c>
    265e:	fe042703          	lw	a4,-32(s0)
    2662:	fe544783          	lbu	a5,-27(s0)
    2666:	86ba                	mv	a3,a4
    2668:	4605                	li	a2,1
    266a:	85be                	mv	a1,a5
    266c:	fec42503          	lw	a0,-20(s0)
    2670:	35ad                	jal	24da <RVMSIS_GPIO_CNF_Set>
    2672:	a0ad                	j	26dc <RVMSIS_GPIO_Reg_Set+0x16c>
    2674:	fe042703          	lw	a4,-32(s0)
    2678:	fe544783          	lbu	a5,-27(s0)
    267c:	86ba                	mv	a3,a4
    267e:	4609                	li	a2,2
    2680:	85be                	mv	a1,a5
    2682:	fec42503          	lw	a0,-20(s0)
    2686:	3d91                	jal	24da <RVMSIS_GPIO_CNF_Set>
    2688:	fec42783          	lw	a5,-20(s0)
    268c:	47d8                	lw	a4,12(a5)
    268e:	fe842783          	lw	a5,-24(s0)
    2692:	239c                	lbu	a5,0(a5)
    2694:	86be                	mv	a3,a5
    2696:	4785                	li	a5,1
    2698:	00d797b3          	sll	a5,a5,a3
    269c:	fff7c793          	not	a5,a5
    26a0:	8f7d                	and	a4,a4,a5
    26a2:	fec42783          	lw	a5,-20(s0)
    26a6:	c7d8                	sw	a4,12(a5)
    26a8:	a815                	j	26dc <RVMSIS_GPIO_Reg_Set+0x16c>
    26aa:	fe042703          	lw	a4,-32(s0)
    26ae:	fe544783          	lbu	a5,-27(s0)
    26b2:	86ba                	mv	a3,a4
    26b4:	4609                	li	a2,2
    26b6:	85be                	mv	a1,a5
    26b8:	fec42503          	lw	a0,-20(s0)
    26bc:	3d39                	jal	24da <RVMSIS_GPIO_CNF_Set>
    26be:	fec42783          	lw	a5,-20(s0)
    26c2:	47d8                	lw	a4,12(a5)
    26c4:	fe842783          	lw	a5,-24(s0)
    26c8:	239c                	lbu	a5,0(a5)
    26ca:	86be                	mv	a3,a5
    26cc:	4785                	li	a5,1
    26ce:	00d797b3          	sll	a5,a5,a3
    26d2:	8f5d                	or	a4,a4,a5
    26d4:	fec42783          	lw	a5,-20(s0)
    26d8:	c7d8                	sw	a4,12(a5)
    26da:	0001                	nop
    26dc:	0001                	nop
    26de:	0001                	nop
    26e0:	40f2                	lw	ra,28(sp)
    26e2:	4462                	lw	s0,24(sp)
    26e4:	6105                	addi	sp,sp,32
    26e6:	8082                	ret

000026e8 <RVMSIS_GPIO_init>:
    26e8:	7179                	addi	sp,sp,-48
    26ea:	d606                	sw	ra,44(sp)
    26ec:	d422                	sw	s0,40(sp)
    26ee:	1800                	addi	s0,sp,48
    26f0:	fca42e23          	sw	a0,-36(s0)
    26f4:	87ae                	mv	a5,a1
    26f6:	fcf40da3          	sb	a5,-37(s0)
    26fa:	87b2                	mv	a5,a2
    26fc:	fcf40d23          	sb	a5,-38(s0)
    2700:	87b6                	mv	a5,a3
    2702:	fcf40ca3          	sb	a5,-39(s0)
    2706:	87ba                	mv	a5,a4
    2708:	fcf40c23          	sb	a5,-40(s0)
    270c:	fe0407a3          	sb	zero,-17(s0)
    2710:	fdc42703          	lw	a4,-36(s0)
    2714:	400117b7          	lui	a5,0x40011
    2718:	80078793          	addi	a5,a5,-2048 # 40010800 <_eusrstack+0x2000b800>
    271c:	00f71b63          	bne	a4,a5,2732 <RVMSIS_GPIO_init+0x4a>
    2720:	400217b7          	lui	a5,0x40021
    2724:	4f98                	lw	a4,24(a5)
    2726:	400217b7          	lui	a5,0x40021
    272a:	00476713          	ori	a4,a4,4
    272e:	cf98                	sw	a4,24(a5)
    2730:	a051                	j	27b4 <RVMSIS_GPIO_init+0xcc>
    2732:	fdc42703          	lw	a4,-36(s0)
    2736:	400117b7          	lui	a5,0x40011
    273a:	c0078793          	addi	a5,a5,-1024 # 40010c00 <_eusrstack+0x2000bc00>
    273e:	00f71b63          	bne	a4,a5,2754 <RVMSIS_GPIO_init+0x6c>
    2742:	400217b7          	lui	a5,0x40021
    2746:	4f98                	lw	a4,24(a5)
    2748:	400217b7          	lui	a5,0x40021
    274c:	00876713          	ori	a4,a4,8
    2750:	cf98                	sw	a4,24(a5)
    2752:	a08d                	j	27b4 <RVMSIS_GPIO_init+0xcc>
    2754:	fdc42703          	lw	a4,-36(s0)
    2758:	400117b7          	lui	a5,0x40011
    275c:	00f71b63          	bne	a4,a5,2772 <RVMSIS_GPIO_init+0x8a>
    2760:	400217b7          	lui	a5,0x40021
    2764:	4f98                	lw	a4,24(a5)
    2766:	400217b7          	lui	a5,0x40021
    276a:	01076713          	ori	a4,a4,16
    276e:	cf98                	sw	a4,24(a5)
    2770:	a091                	j	27b4 <RVMSIS_GPIO_init+0xcc>
    2772:	fdc42703          	lw	a4,-36(s0)
    2776:	400117b7          	lui	a5,0x40011
    277a:	40078793          	addi	a5,a5,1024 # 40011400 <_eusrstack+0x2000c400>
    277e:	00f71b63          	bne	a4,a5,2794 <RVMSIS_GPIO_init+0xac>
    2782:	400217b7          	lui	a5,0x40021
    2786:	4f98                	lw	a4,24(a5)
    2788:	400217b7          	lui	a5,0x40021
    278c:	02076713          	ori	a4,a4,32
    2790:	cf98                	sw	a4,24(a5)
    2792:	a00d                	j	27b4 <RVMSIS_GPIO_init+0xcc>
    2794:	fdc42703          	lw	a4,-36(s0)
    2798:	400127b7          	lui	a5,0x40012
    279c:	80078793          	addi	a5,a5,-2048 # 40011800 <_eusrstack+0x2000c800>
    27a0:	00f71a63          	bne	a4,a5,27b4 <RVMSIS_GPIO_init+0xcc>
    27a4:	400217b7          	lui	a5,0x40021
    27a8:	4f98                	lw	a4,24(a5)
    27aa:	400217b7          	lui	a5,0x40021
    27ae:	04076713          	ori	a4,a4,64
    27b2:	cf98                	sw	a4,24(a5)
    27b4:	fdb44783          	lbu	a5,-37(s0)
    27b8:	fd844703          	lbu	a4,-40(s0)
    27bc:	863a                	mv	a2,a4
    27be:	85be                	mv	a1,a5
    27c0:	fdc42503          	lw	a0,-36(s0)
    27c4:	c5fff0ef          	jal	ra,2422 <RVMSIS_GPIO_SPEED_Set>
    27c8:	fdb44703          	lbu	a4,-37(s0)
    27cc:	479d                	li	a5,7
    27ce:	02e7e963          	bltu	a5,a4,2800 <RVMSIS_GPIO_init+0x118>
    27d2:	fdb44783          	lbu	a5,-37(s0)
    27d6:	078a                	slli	a5,a5,0x2
    27d8:	0ff7f793          	andi	a5,a5,255
    27dc:	0789                	addi	a5,a5,2
    27de:	0ff7f793          	andi	a5,a5,255
    27e2:	fef407a3          	sb	a5,-17(s0)
    27e6:	fef40793          	addi	a5,s0,-17
    27ea:	fd944683          	lbu	a3,-39(s0)
    27ee:	fda44603          	lbu	a2,-38(s0)
    27f2:	fdb40593          	addi	a1,s0,-37
    27f6:	4701                	li	a4,0
    27f8:	fdc42503          	lw	a0,-36(s0)
    27fc:	3b95                	jal	2570 <RVMSIS_GPIO_Reg_Set>
    27fe:	a835                	j	283a <RVMSIS_GPIO_init+0x152>
    2800:	fdb44783          	lbu	a5,-37(s0)
    2804:	17e1                	addi	a5,a5,-8
    2806:	0ff7f793          	andi	a5,a5,255
    280a:	fcf40da3          	sb	a5,-37(s0)
    280e:	fdb44783          	lbu	a5,-37(s0)
    2812:	078a                	slli	a5,a5,0x2
    2814:	0ff7f793          	andi	a5,a5,255
    2818:	0789                	addi	a5,a5,2
    281a:	0ff7f793          	andi	a5,a5,255
    281e:	fef407a3          	sb	a5,-17(s0)
    2822:	fef40793          	addi	a5,s0,-17
    2826:	fd944683          	lbu	a3,-39(s0)
    282a:	fda44603          	lbu	a2,-38(s0)
    282e:	fdb40593          	addi	a1,s0,-37
    2832:	4705                	li	a4,1
    2834:	fdc42503          	lw	a0,-36(s0)
    2838:	3b25                	jal	2570 <RVMSIS_GPIO_Reg_Set>
    283a:	0001                	nop
    283c:	50b2                	lw	ra,44(sp)
    283e:	5422                	lw	s0,40(sp)
    2840:	6145                	addi	sp,sp,48
    2842:	8082                	ret

00002844 <RVMSIS_TIM1_init>:
    2844:	1141                	addi	sp,sp,-16
    2846:	c622                	sw	s0,12(sp)
    2848:	0800                	addi	s0,sp,16
    284a:	400217b7          	lui	a5,0x40021
    284e:	4f94                	lw	a3,24(a5)
    2850:	400217b7          	lui	a5,0x40021
    2854:	6705                	lui	a4,0x1
    2856:	80070713          	addi	a4,a4,-2048 # 800 <GMG12864_Print_symbol_5x7+0x194>
    285a:	8f55                	or	a4,a4,a3
    285c:	cf98                	sw	a4,24(a5)
    285e:	400217b7          	lui	a5,0x40021
    2862:	4f98                	lw	a4,24(a5)
    2864:	400217b7          	lui	a5,0x40021
    2868:	00176713          	ori	a4,a4,1
    286c:	cf98                	sw	a4,24(a5)
    286e:	400137b7          	lui	a5,0x40013
    2872:	c0078793          	addi	a5,a5,-1024 # 40012c00 <_eusrstack+0x2000dc00>
    2876:	239e                	lhu	a5,0(a5)
    2878:	01079713          	slli	a4,a5,0x10
    287c:	8341                	srli	a4,a4,0x10
    287e:	400137b7          	lui	a5,0x40013
    2882:	c0078793          	addi	a5,a5,-1024 # 40012c00 <_eusrstack+0x2000dc00>
    2886:	9b75                	andi	a4,a4,-3
    2888:	0742                	slli	a4,a4,0x10
    288a:	8341                	srli	a4,a4,0x10
    288c:	a39a                	sh	a4,0(a5)
    288e:	400137b7          	lui	a5,0x40013
    2892:	c0078793          	addi	a5,a5,-1024 # 40012c00 <_eusrstack+0x2000dc00>
    2896:	239e                	lhu	a5,0(a5)
    2898:	01079713          	slli	a4,a5,0x10
    289c:	8341                	srli	a4,a4,0x10
    289e:	400137b7          	lui	a5,0x40013
    28a2:	c0078793          	addi	a5,a5,-1024 # 40012c00 <_eusrstack+0x2000dc00>
    28a6:	9b6d                	andi	a4,a4,-5
    28a8:	0742                	slli	a4,a4,0x10
    28aa:	8341                	srli	a4,a4,0x10
    28ac:	a39a                	sh	a4,0(a5)
    28ae:	400137b7          	lui	a5,0x40013
    28b2:	c0078793          	addi	a5,a5,-1024 # 40012c00 <_eusrstack+0x2000dc00>
    28b6:	239e                	lhu	a5,0(a5)
    28b8:	01079713          	slli	a4,a5,0x10
    28bc:	8341                	srli	a4,a4,0x10
    28be:	400137b7          	lui	a5,0x40013
    28c2:	c0078793          	addi	a5,a5,-1024 # 40012c00 <_eusrstack+0x2000dc00>
    28c6:	9b5d                	andi	a4,a4,-9
    28c8:	0742                	slli	a4,a4,0x10
    28ca:	8341                	srli	a4,a4,0x10
    28cc:	a39a                	sh	a4,0(a5)
    28ce:	400137b7          	lui	a5,0x40013
    28d2:	c0078793          	addi	a5,a5,-1024 # 40012c00 <_eusrstack+0x2000dc00>
    28d6:	239e                	lhu	a5,0(a5)
    28d8:	01079713          	slli	a4,a5,0x10
    28dc:	8341                	srli	a4,a4,0x10
    28de:	400137b7          	lui	a5,0x40013
    28e2:	c0078793          	addi	a5,a5,-1024 # 40012c00 <_eusrstack+0x2000dc00>
    28e6:	9b3d                	andi	a4,a4,-17
    28e8:	0742                	slli	a4,a4,0x10
    28ea:	8341                	srli	a4,a4,0x10
    28ec:	a39a                	sh	a4,0(a5)
    28ee:	400137b7          	lui	a5,0x40013
    28f2:	c0078793          	addi	a5,a5,-1024 # 40012c00 <_eusrstack+0x2000dc00>
    28f6:	239e                	lhu	a5,0(a5)
    28f8:	01079713          	slli	a4,a5,0x10
    28fc:	8341                	srli	a4,a4,0x10
    28fe:	400137b7          	lui	a5,0x40013
    2902:	c0078793          	addi	a5,a5,-1024 # 40012c00 <_eusrstack+0x2000dc00>
    2906:	f9f77713          	andi	a4,a4,-97
    290a:	0742                	slli	a4,a4,0x10
    290c:	8341                	srli	a4,a4,0x10
    290e:	a39a                	sh	a4,0(a5)
    2910:	400137b7          	lui	a5,0x40013
    2914:	c0078793          	addi	a5,a5,-1024 # 40012c00 <_eusrstack+0x2000dc00>
    2918:	239e                	lhu	a5,0(a5)
    291a:	01079713          	slli	a4,a5,0x10
    291e:	8341                	srli	a4,a4,0x10
    2920:	400137b7          	lui	a5,0x40013
    2924:	c0078793          	addi	a5,a5,-1024 # 40012c00 <_eusrstack+0x2000dc00>
    2928:	08076713          	ori	a4,a4,128
    292c:	0742                	slli	a4,a4,0x10
    292e:	8341                	srli	a4,a4,0x10
    2930:	a39a                	sh	a4,0(a5)
    2932:	400137b7          	lui	a5,0x40013
    2936:	c0078793          	addi	a5,a5,-1024 # 40012c00 <_eusrstack+0x2000dc00>
    293a:	239e                	lhu	a5,0(a5)
    293c:	01079713          	slli	a4,a5,0x10
    2940:	8341                	srli	a4,a4,0x10
    2942:	400137b7          	lui	a5,0x40013
    2946:	c0078793          	addi	a5,a5,-1024 # 40012c00 <_eusrstack+0x2000dc00>
    294a:	cff77713          	andi	a4,a4,-769
    294e:	0742                	slli	a4,a4,0x10
    2950:	8341                	srli	a4,a4,0x10
    2952:	a39a                	sh	a4,0(a5)
    2954:	400137b7          	lui	a5,0x40013
    2958:	c0078793          	addi	a5,a5,-1024 # 40012c00 <_eusrstack+0x2000dc00>
    295c:	27de                	lhu	a5,12(a5)
    295e:	01079713          	slli	a4,a5,0x10
    2962:	8341                	srli	a4,a4,0x10
    2964:	400137b7          	lui	a5,0x40013
    2968:	c0078793          	addi	a5,a5,-1024 # 40012c00 <_eusrstack+0x2000dc00>
    296c:	00176713          	ori	a4,a4,1
    2970:	0742                	slli	a4,a4,0x10
    2972:	8341                	srli	a4,a4,0x10
    2974:	a7da                	sh	a4,12(a5)
    2976:	400137b7          	lui	a5,0x40013
    297a:	c0078793          	addi	a5,a5,-1024 # 40012c00 <_eusrstack+0x2000dc00>
    297e:	02079423          	sh	zero,40(a5)
    2982:	400137b7          	lui	a5,0x40013
    2986:	c0078793          	addi	a5,a5,-1024 # 40012c00 <_eusrstack+0x2000dc00>
    298a:	6705                	lui	a4,0x1
    298c:	bb770713          	addi	a4,a4,-1097 # bb7 <GMG12864_Decode_UTF8+0x153>
    2990:	b7da                	sh	a4,44(a5)
    2992:	400137b7          	lui	a5,0x40013
    2996:	c0078793          	addi	a5,a5,-1024 # 40012c00 <_eusrstack+0x2000dc00>
    299a:	0447d783          	lhu	a5,68(a5)
    299e:	01079713          	slli	a4,a5,0x10
    29a2:	8341                	srli	a4,a4,0x10
    29a4:	400137b7          	lui	a5,0x40013
    29a8:	c0078793          	addi	a5,a5,-1024 # 40012c00 <_eusrstack+0x2000dc00>
    29ac:	cff77713          	andi	a4,a4,-769
    29b0:	0742                	slli	a4,a4,0x10
    29b2:	8341                	srli	a4,a4,0x10
    29b4:	04e79223          	sh	a4,68(a5)
    29b8:	400137b7          	lui	a5,0x40013
    29bc:	c0078793          	addi	a5,a5,-1024 # 40012c00 <_eusrstack+0x2000dc00>
    29c0:	0447d783          	lhu	a5,68(a5)
    29c4:	01079693          	slli	a3,a5,0x10
    29c8:	82c1                	srli	a3,a3,0x10
    29ca:	400137b7          	lui	a5,0x40013
    29ce:	c0078793          	addi	a5,a5,-1024 # 40012c00 <_eusrstack+0x2000dc00>
    29d2:	6711                	lui	a4,0x4
    29d4:	8f55                	or	a4,a4,a3
    29d6:	0742                	slli	a4,a4,0x10
    29d8:	8341                	srli	a4,a4,0x10
    29da:	04e79223          	sh	a4,68(a5)
    29de:	400137b7          	lui	a5,0x40013
    29e2:	c0078793          	addi	a5,a5,-1024 # 40012c00 <_eusrstack+0x2000dc00>
    29e6:	239e                	lhu	a5,0(a5)
    29e8:	01079713          	slli	a4,a5,0x10
    29ec:	8341                	srli	a4,a4,0x10
    29ee:	400137b7          	lui	a5,0x40013
    29f2:	c0078793          	addi	a5,a5,-1024 # 40012c00 <_eusrstack+0x2000dc00>
    29f6:	00176713          	ori	a4,a4,1
    29fa:	0742                	slli	a4,a4,0x10
    29fc:	8341                	srli	a4,a4,0x10
    29fe:	a39a                	sh	a4,0(a5)
    2a00:	0001                	nop
    2a02:	4432                	lw	s0,12(sp)
    2a04:	0141                	addi	sp,sp,16
    2a06:	8082                	ret

00002a08 <RVMSIS_TIM1_PWM_CHANNEL1_init>:
    2a08:	1141                	addi	sp,sp,-16
    2a0a:	c622                	sw	s0,12(sp)
    2a0c:	0800                	addi	s0,sp,16
    2a0e:	400217b7          	lui	a5,0x40021
    2a12:	4f98                	lw	a4,24(a5)
    2a14:	400217b7          	lui	a5,0x40021
    2a18:	00476713          	ori	a4,a4,4
    2a1c:	cf98                	sw	a4,24(a5)
    2a1e:	400117b7          	lui	a5,0x40011
    2a22:	80078793          	addi	a5,a5,-2048 # 40010800 <_eusrstack+0x2000b800>
    2a26:	43dc                	lw	a5,4(a5)
    2a28:	ff37f713          	andi	a4,a5,-13
    2a2c:	400117b7          	lui	a5,0x40011
    2a30:	80078793          	addi	a5,a5,-2048 # 40010800 <_eusrstack+0x2000b800>
    2a34:	00876713          	ori	a4,a4,8
    2a38:	c3d8                	sw	a4,4(a5)
    2a3a:	400117b7          	lui	a5,0x40011
    2a3e:	80078793          	addi	a5,a5,-2048 # 40010800 <_eusrstack+0x2000b800>
    2a42:	43d8                	lw	a4,4(a5)
    2a44:	400117b7          	lui	a5,0x40011
    2a48:	80078793          	addi	a5,a5,-2048 # 40010800 <_eusrstack+0x2000b800>
    2a4c:	00376713          	ori	a4,a4,3
    2a50:	c3d8                	sw	a4,4(a5)
    2a52:	400137b7          	lui	a5,0x40013
    2a56:	c0078793          	addi	a5,a5,-1024 # 40012c00 <_eusrstack+0x2000dc00>
    2a5a:	00079c23          	sh	zero,24(a5)
    2a5e:	400137b7          	lui	a5,0x40013
    2a62:	c0078793          	addi	a5,a5,-1024 # 40012c00 <_eusrstack+0x2000dc00>
    2a66:	2f9e                	lhu	a5,24(a5)
    2a68:	01079713          	slli	a4,a5,0x10
    2a6c:	8341                	srli	a4,a4,0x10
    2a6e:	400137b7          	lui	a5,0x40013
    2a72:	c0078793          	addi	a5,a5,-1024 # 40012c00 <_eusrstack+0x2000dc00>
    2a76:	9b71                	andi	a4,a4,-4
    2a78:	0742                	slli	a4,a4,0x10
    2a7a:	8341                	srli	a4,a4,0x10
    2a7c:	af9a                	sh	a4,24(a5)
    2a7e:	400137b7          	lui	a5,0x40013
    2a82:	c0078793          	addi	a5,a5,-1024 # 40012c00 <_eusrstack+0x2000dc00>
    2a86:	2f9e                	lhu	a5,24(a5)
    2a88:	01079713          	slli	a4,a5,0x10
    2a8c:	8341                	srli	a4,a4,0x10
    2a8e:	400137b7          	lui	a5,0x40013
    2a92:	c0078793          	addi	a5,a5,-1024 # 40012c00 <_eusrstack+0x2000dc00>
    2a96:	9b6d                	andi	a4,a4,-5
    2a98:	0742                	slli	a4,a4,0x10
    2a9a:	8341                	srli	a4,a4,0x10
    2a9c:	af9a                	sh	a4,24(a5)
    2a9e:	400137b7          	lui	a5,0x40013
    2aa2:	c0078793          	addi	a5,a5,-1024 # 40012c00 <_eusrstack+0x2000dc00>
    2aa6:	2f9e                	lhu	a5,24(a5)
    2aa8:	01079713          	slli	a4,a5,0x10
    2aac:	8341                	srli	a4,a4,0x10
    2aae:	400137b7          	lui	a5,0x40013
    2ab2:	c0078793          	addi	a5,a5,-1024 # 40012c00 <_eusrstack+0x2000dc00>
    2ab6:	00876713          	ori	a4,a4,8
    2aba:	0742                	slli	a4,a4,0x10
    2abc:	8341                	srli	a4,a4,0x10
    2abe:	af9a                	sh	a4,24(a5)
    2ac0:	400137b7          	lui	a5,0x40013
    2ac4:	c0078793          	addi	a5,a5,-1024 # 40012c00 <_eusrstack+0x2000dc00>
    2ac8:	2f9e                	lhu	a5,24(a5)
    2aca:	07c2                	slli	a5,a5,0x10
    2acc:	83c1                	srli	a5,a5,0x10
    2ace:	07c2                	slli	a5,a5,0x10
    2ad0:	87c1                	srai	a5,a5,0x10
    2ad2:	f8f7f793          	andi	a5,a5,-113
    2ad6:	07c2                	slli	a5,a5,0x10
    2ad8:	87c1                	srai	a5,a5,0x10
    2ada:	0607e793          	ori	a5,a5,96
    2ade:	01079713          	slli	a4,a5,0x10
    2ae2:	8741                	srai	a4,a4,0x10
    2ae4:	400137b7          	lui	a5,0x40013
    2ae8:	c0078793          	addi	a5,a5,-1024 # 40012c00 <_eusrstack+0x2000dc00>
    2aec:	0742                	slli	a4,a4,0x10
    2aee:	8341                	srli	a4,a4,0x10
    2af0:	af9a                	sh	a4,24(a5)
    2af2:	400137b7          	lui	a5,0x40013
    2af6:	c0078793          	addi	a5,a5,-1024 # 40012c00 <_eusrstack+0x2000dc00>
    2afa:	2f9e                	lhu	a5,24(a5)
    2afc:	01079713          	slli	a4,a5,0x10
    2b00:	8341                	srli	a4,a4,0x10
    2b02:	400137b7          	lui	a5,0x40013
    2b06:	c0078793          	addi	a5,a5,-1024 # 40012c00 <_eusrstack+0x2000dc00>
    2b0a:	f7f77713          	andi	a4,a4,-129
    2b0e:	0742                	slli	a4,a4,0x10
    2b10:	8341                	srli	a4,a4,0x10
    2b12:	af9a                	sh	a4,24(a5)
    2b14:	400137b7          	lui	a5,0x40013
    2b18:	c0078793          	addi	a5,a5,-1024 # 40012c00 <_eusrstack+0x2000dc00>
    2b1c:	339e                	lhu	a5,32(a5)
    2b1e:	01079713          	slli	a4,a5,0x10
    2b22:	8341                	srli	a4,a4,0x10
    2b24:	400137b7          	lui	a5,0x40013
    2b28:	c0078793          	addi	a5,a5,-1024 # 40012c00 <_eusrstack+0x2000dc00>
    2b2c:	00176713          	ori	a4,a4,1
    2b30:	0742                	slli	a4,a4,0x10
    2b32:	8341                	srli	a4,a4,0x10
    2b34:	b39a                	sh	a4,32(a5)
    2b36:	400137b7          	lui	a5,0x40013
    2b3a:	c0078793          	addi	a5,a5,-1024 # 40012c00 <_eusrstack+0x2000dc00>
    2b3e:	339e                	lhu	a5,32(a5)
    2b40:	01079713          	slli	a4,a5,0x10
    2b44:	8341                	srli	a4,a4,0x10
    2b46:	400137b7          	lui	a5,0x40013
    2b4a:	c0078793          	addi	a5,a5,-1024 # 40012c00 <_eusrstack+0x2000dc00>
    2b4e:	9b75                	andi	a4,a4,-3
    2b50:	0742                	slli	a4,a4,0x10
    2b52:	8341                	srli	a4,a4,0x10
    2b54:	b39a                	sh	a4,32(a5)
    2b56:	400137b7          	lui	a5,0x40013
    2b5a:	c0078793          	addi	a5,a5,-1024 # 40012c00 <_eusrstack+0x2000dc00>
    2b5e:	02079a23          	sh	zero,52(a5)
    2b62:	0001                	nop
    2b64:	4432                	lw	s0,12(sp)
    2b66:	0141                	addi	sp,sp,16
    2b68:	8082                	ret

00002b6a <RVMSIS_TIM3_init>:
    2b6a:	1141                	addi	sp,sp,-16
    2b6c:	c606                	sw	ra,12(sp)
    2b6e:	c422                	sw	s0,8(sp)
    2b70:	0800                	addi	s0,sp,16
    2b72:	400217b7          	lui	a5,0x40021
    2b76:	4fd8                	lw	a4,28(a5)
    2b78:	400217b7          	lui	a5,0x40021
    2b7c:	00276713          	ori	a4,a4,2
    2b80:	cfd8                	sw	a4,28(a5)
    2b82:	400217b7          	lui	a5,0x40021
    2b86:	4f98                	lw	a4,24(a5)
    2b88:	400217b7          	lui	a5,0x40021
    2b8c:	00176713          	ori	a4,a4,1
    2b90:	cf98                	sw	a4,24(a5)
    2b92:	400007b7          	lui	a5,0x40000
    2b96:	40078793          	addi	a5,a5,1024 # 40000400 <_eusrstack+0x1fffb400>
    2b9a:	239e                	lhu	a5,0(a5)
    2b9c:	01079713          	slli	a4,a5,0x10
    2ba0:	8341                	srli	a4,a4,0x10
    2ba2:	400007b7          	lui	a5,0x40000
    2ba6:	40078793          	addi	a5,a5,1024 # 40000400 <_eusrstack+0x1fffb400>
    2baa:	9b75                	andi	a4,a4,-3
    2bac:	0742                	slli	a4,a4,0x10
    2bae:	8341                	srli	a4,a4,0x10
    2bb0:	a39a                	sh	a4,0(a5)
    2bb2:	400007b7          	lui	a5,0x40000
    2bb6:	40078793          	addi	a5,a5,1024 # 40000400 <_eusrstack+0x1fffb400>
    2bba:	239e                	lhu	a5,0(a5)
    2bbc:	01079713          	slli	a4,a5,0x10
    2bc0:	8341                	srli	a4,a4,0x10
    2bc2:	400007b7          	lui	a5,0x40000
    2bc6:	40078793          	addi	a5,a5,1024 # 40000400 <_eusrstack+0x1fffb400>
    2bca:	9b6d                	andi	a4,a4,-5
    2bcc:	0742                	slli	a4,a4,0x10
    2bce:	8341                	srli	a4,a4,0x10
    2bd0:	a39a                	sh	a4,0(a5)
    2bd2:	400007b7          	lui	a5,0x40000
    2bd6:	40078793          	addi	a5,a5,1024 # 40000400 <_eusrstack+0x1fffb400>
    2bda:	239e                	lhu	a5,0(a5)
    2bdc:	01079713          	slli	a4,a5,0x10
    2be0:	8341                	srli	a4,a4,0x10
    2be2:	400007b7          	lui	a5,0x40000
    2be6:	40078793          	addi	a5,a5,1024 # 40000400 <_eusrstack+0x1fffb400>
    2bea:	9b5d                	andi	a4,a4,-9
    2bec:	0742                	slli	a4,a4,0x10
    2bee:	8341                	srli	a4,a4,0x10
    2bf0:	a39a                	sh	a4,0(a5)
    2bf2:	400007b7          	lui	a5,0x40000
    2bf6:	40078793          	addi	a5,a5,1024 # 40000400 <_eusrstack+0x1fffb400>
    2bfa:	239e                	lhu	a5,0(a5)
    2bfc:	01079713          	slli	a4,a5,0x10
    2c00:	8341                	srli	a4,a4,0x10
    2c02:	400007b7          	lui	a5,0x40000
    2c06:	40078793          	addi	a5,a5,1024 # 40000400 <_eusrstack+0x1fffb400>
    2c0a:	9b3d                	andi	a4,a4,-17
    2c0c:	0742                	slli	a4,a4,0x10
    2c0e:	8341                	srli	a4,a4,0x10
    2c10:	a39a                	sh	a4,0(a5)
    2c12:	400007b7          	lui	a5,0x40000
    2c16:	40078793          	addi	a5,a5,1024 # 40000400 <_eusrstack+0x1fffb400>
    2c1a:	239e                	lhu	a5,0(a5)
    2c1c:	01079713          	slli	a4,a5,0x10
    2c20:	8341                	srli	a4,a4,0x10
    2c22:	400007b7          	lui	a5,0x40000
    2c26:	40078793          	addi	a5,a5,1024 # 40000400 <_eusrstack+0x1fffb400>
    2c2a:	f9f77713          	andi	a4,a4,-97
    2c2e:	0742                	slli	a4,a4,0x10
    2c30:	8341                	srli	a4,a4,0x10
    2c32:	a39a                	sh	a4,0(a5)
    2c34:	400007b7          	lui	a5,0x40000
    2c38:	40078793          	addi	a5,a5,1024 # 40000400 <_eusrstack+0x1fffb400>
    2c3c:	239e                	lhu	a5,0(a5)
    2c3e:	01079713          	slli	a4,a5,0x10
    2c42:	8341                	srli	a4,a4,0x10
    2c44:	400007b7          	lui	a5,0x40000
    2c48:	40078793          	addi	a5,a5,1024 # 40000400 <_eusrstack+0x1fffb400>
    2c4c:	08076713          	ori	a4,a4,128
    2c50:	0742                	slli	a4,a4,0x10
    2c52:	8341                	srli	a4,a4,0x10
    2c54:	a39a                	sh	a4,0(a5)
    2c56:	400007b7          	lui	a5,0x40000
    2c5a:	40078793          	addi	a5,a5,1024 # 40000400 <_eusrstack+0x1fffb400>
    2c5e:	239e                	lhu	a5,0(a5)
    2c60:	01079713          	slli	a4,a5,0x10
    2c64:	8341                	srli	a4,a4,0x10
    2c66:	400007b7          	lui	a5,0x40000
    2c6a:	40078793          	addi	a5,a5,1024 # 40000400 <_eusrstack+0x1fffb400>
    2c6e:	cff77713          	andi	a4,a4,-769
    2c72:	0742                	slli	a4,a4,0x10
    2c74:	8341                	srli	a4,a4,0x10
    2c76:	a39a                	sh	a4,0(a5)
    2c78:	400007b7          	lui	a5,0x40000
    2c7c:	40078793          	addi	a5,a5,1024 # 40000400 <_eusrstack+0x1fffb400>
    2c80:	27de                	lhu	a5,12(a5)
    2c82:	01079713          	slli	a4,a5,0x10
    2c86:	8341                	srli	a4,a4,0x10
    2c88:	400007b7          	lui	a5,0x40000
    2c8c:	40078793          	addi	a5,a5,1024 # 40000400 <_eusrstack+0x1fffb400>
    2c90:	00176713          	ori	a4,a4,1
    2c94:	0742                	slli	a4,a4,0x10
    2c96:	8341                	srli	a4,a4,0x10
    2c98:	a7da                	sh	a4,12(a5)
    2c9a:	400007b7          	lui	a5,0x40000
    2c9e:	40078793          	addi	a5,a5,1024 # 40000400 <_eusrstack+0x1fffb400>
    2ca2:	6709                	lui	a4,0x2
    2ca4:	c1f70713          	addi	a4,a4,-993 # 1c1f <Software_timer_check+0x1f>
    2ca8:	b79a                	sh	a4,40(a5)
    2caa:	400007b7          	lui	a5,0x40000
    2cae:	40078793          	addi	a5,a5,1024 # 40000400 <_eusrstack+0x1fffb400>
    2cb2:	1f300713          	li	a4,499
    2cb6:	b7da                	sh	a4,44(a5)
    2cb8:	02d00513          	li	a0,45
    2cbc:	b80ff0ef          	jal	ra,203c <NVIC_EnableIRQ>
    2cc0:	400007b7          	lui	a5,0x40000
    2cc4:	40078793          	addi	a5,a5,1024 # 40000400 <_eusrstack+0x1fffb400>
    2cc8:	239e                	lhu	a5,0(a5)
    2cca:	01079713          	slli	a4,a5,0x10
    2cce:	8341                	srli	a4,a4,0x10
    2cd0:	400007b7          	lui	a5,0x40000
    2cd4:	40078793          	addi	a5,a5,1024 # 40000400 <_eusrstack+0x1fffb400>
    2cd8:	00176713          	ori	a4,a4,1
    2cdc:	0742                	slli	a4,a4,0x10
    2cde:	8341                	srli	a4,a4,0x10
    2ce0:	a39a                	sh	a4,0(a5)
    2ce2:	0001                	nop
    2ce4:	40b2                	lw	ra,12(sp)
    2ce6:	4422                	lw	s0,8(sp)
    2ce8:	0141                	addi	sp,sp,16
    2cea:	8082                	ret

00002cec <RVMSIS_TIM4_init>:
    2cec:	1141                	addi	sp,sp,-16
    2cee:	c606                	sw	ra,12(sp)
    2cf0:	c422                	sw	s0,8(sp)
    2cf2:	0800                	addi	s0,sp,16
    2cf4:	400217b7          	lui	a5,0x40021
    2cf8:	4fd8                	lw	a4,28(a5)
    2cfa:	400217b7          	lui	a5,0x40021
    2cfe:	00476713          	ori	a4,a4,4
    2d02:	cfd8                	sw	a4,28(a5)
    2d04:	400217b7          	lui	a5,0x40021
    2d08:	4f98                	lw	a4,24(a5)
    2d0a:	400217b7          	lui	a5,0x40021
    2d0e:	00176713          	ori	a4,a4,1
    2d12:	cf98                	sw	a4,24(a5)
    2d14:	400017b7          	lui	a5,0x40001
    2d18:	80078793          	addi	a5,a5,-2048 # 40000800 <_eusrstack+0x1fffb800>
    2d1c:	239e                	lhu	a5,0(a5)
    2d1e:	01079713          	slli	a4,a5,0x10
    2d22:	8341                	srli	a4,a4,0x10
    2d24:	400017b7          	lui	a5,0x40001
    2d28:	80078793          	addi	a5,a5,-2048 # 40000800 <_eusrstack+0x1fffb800>
    2d2c:	9b75                	andi	a4,a4,-3
    2d2e:	0742                	slli	a4,a4,0x10
    2d30:	8341                	srli	a4,a4,0x10
    2d32:	a39a                	sh	a4,0(a5)
    2d34:	400017b7          	lui	a5,0x40001
    2d38:	80078793          	addi	a5,a5,-2048 # 40000800 <_eusrstack+0x1fffb800>
    2d3c:	239e                	lhu	a5,0(a5)
    2d3e:	01079713          	slli	a4,a5,0x10
    2d42:	8341                	srli	a4,a4,0x10
    2d44:	400017b7          	lui	a5,0x40001
    2d48:	80078793          	addi	a5,a5,-2048 # 40000800 <_eusrstack+0x1fffb800>
    2d4c:	9b6d                	andi	a4,a4,-5
    2d4e:	0742                	slli	a4,a4,0x10
    2d50:	8341                	srli	a4,a4,0x10
    2d52:	a39a                	sh	a4,0(a5)
    2d54:	400017b7          	lui	a5,0x40001
    2d58:	80078793          	addi	a5,a5,-2048 # 40000800 <_eusrstack+0x1fffb800>
    2d5c:	239e                	lhu	a5,0(a5)
    2d5e:	01079713          	slli	a4,a5,0x10
    2d62:	8341                	srli	a4,a4,0x10
    2d64:	400017b7          	lui	a5,0x40001
    2d68:	80078793          	addi	a5,a5,-2048 # 40000800 <_eusrstack+0x1fffb800>
    2d6c:	9b5d                	andi	a4,a4,-9
    2d6e:	0742                	slli	a4,a4,0x10
    2d70:	8341                	srli	a4,a4,0x10
    2d72:	a39a                	sh	a4,0(a5)
    2d74:	400017b7          	lui	a5,0x40001
    2d78:	80078793          	addi	a5,a5,-2048 # 40000800 <_eusrstack+0x1fffb800>
    2d7c:	239e                	lhu	a5,0(a5)
    2d7e:	01079713          	slli	a4,a5,0x10
    2d82:	8341                	srli	a4,a4,0x10
    2d84:	400017b7          	lui	a5,0x40001
    2d88:	80078793          	addi	a5,a5,-2048 # 40000800 <_eusrstack+0x1fffb800>
    2d8c:	9b3d                	andi	a4,a4,-17
    2d8e:	0742                	slli	a4,a4,0x10
    2d90:	8341                	srli	a4,a4,0x10
    2d92:	a39a                	sh	a4,0(a5)
    2d94:	400017b7          	lui	a5,0x40001
    2d98:	80078793          	addi	a5,a5,-2048 # 40000800 <_eusrstack+0x1fffb800>
    2d9c:	239e                	lhu	a5,0(a5)
    2d9e:	01079713          	slli	a4,a5,0x10
    2da2:	8341                	srli	a4,a4,0x10
    2da4:	400017b7          	lui	a5,0x40001
    2da8:	80078793          	addi	a5,a5,-2048 # 40000800 <_eusrstack+0x1fffb800>
    2dac:	f9f77713          	andi	a4,a4,-97
    2db0:	0742                	slli	a4,a4,0x10
    2db2:	8341                	srli	a4,a4,0x10
    2db4:	a39a                	sh	a4,0(a5)
    2db6:	400017b7          	lui	a5,0x40001
    2dba:	80078793          	addi	a5,a5,-2048 # 40000800 <_eusrstack+0x1fffb800>
    2dbe:	239e                	lhu	a5,0(a5)
    2dc0:	01079713          	slli	a4,a5,0x10
    2dc4:	8341                	srli	a4,a4,0x10
    2dc6:	400017b7          	lui	a5,0x40001
    2dca:	80078793          	addi	a5,a5,-2048 # 40000800 <_eusrstack+0x1fffb800>
    2dce:	08076713          	ori	a4,a4,128
    2dd2:	0742                	slli	a4,a4,0x10
    2dd4:	8341                	srli	a4,a4,0x10
    2dd6:	a39a                	sh	a4,0(a5)
    2dd8:	400017b7          	lui	a5,0x40001
    2ddc:	80078793          	addi	a5,a5,-2048 # 40000800 <_eusrstack+0x1fffb800>
    2de0:	239e                	lhu	a5,0(a5)
    2de2:	01079713          	slli	a4,a5,0x10
    2de6:	8341                	srli	a4,a4,0x10
    2de8:	400017b7          	lui	a5,0x40001
    2dec:	80078793          	addi	a5,a5,-2048 # 40000800 <_eusrstack+0x1fffb800>
    2df0:	cff77713          	andi	a4,a4,-769
    2df4:	0742                	slli	a4,a4,0x10
    2df6:	8341                	srli	a4,a4,0x10
    2df8:	a39a                	sh	a4,0(a5)
    2dfa:	400017b7          	lui	a5,0x40001
    2dfe:	80078793          	addi	a5,a5,-2048 # 40000800 <_eusrstack+0x1fffb800>
    2e02:	27de                	lhu	a5,12(a5)
    2e04:	01079713          	slli	a4,a5,0x10
    2e08:	8341                	srli	a4,a4,0x10
    2e0a:	400017b7          	lui	a5,0x40001
    2e0e:	80078793          	addi	a5,a5,-2048 # 40000800 <_eusrstack+0x1fffb800>
    2e12:	00176713          	ori	a4,a4,1
    2e16:	0742                	slli	a4,a4,0x10
    2e18:	8341                	srli	a4,a4,0x10
    2e1a:	a7da                	sh	a4,12(a5)
    2e1c:	400017b7          	lui	a5,0x40001
    2e20:	80078793          	addi	a5,a5,-2048 # 40000800 <_eusrstack+0x1fffb800>
    2e24:	6711                	lui	a4,0x4
    2e26:	83f70713          	addi	a4,a4,-1985 # 383f <RVMSIS_I2C_Data_Receive+0x2ad>
    2e2a:	b79a                	sh	a4,40(a5)
    2e2c:	400017b7          	lui	a5,0x40001
    2e30:	80078793          	addi	a5,a5,-2048 # 40000800 <_eusrstack+0x1fffb800>
    2e34:	671d                	lui	a4,0x7
    2e36:	52f70713          	addi	a4,a4,1327 # 752f <_data_lma+0x727>
    2e3a:	b7da                	sh	a4,44(a5)
    2e3c:	02e00513          	li	a0,46
    2e40:	9fcff0ef          	jal	ra,203c <NVIC_EnableIRQ>
    2e44:	4595                	li	a1,5
    2e46:	02e00513          	li	a0,46
    2e4a:	a24ff0ef          	jal	ra,206e <NVIC_SetPriority>
    2e4e:	400017b7          	lui	a5,0x40001
    2e52:	80078793          	addi	a5,a5,-2048 # 40000800 <_eusrstack+0x1fffb800>
    2e56:	239e                	lhu	a5,0(a5)
    2e58:	01079713          	slli	a4,a5,0x10
    2e5c:	8341                	srli	a4,a4,0x10
    2e5e:	400017b7          	lui	a5,0x40001
    2e62:	80078793          	addi	a5,a5,-2048 # 40000800 <_eusrstack+0x1fffb800>
    2e66:	00176713          	ori	a4,a4,1
    2e6a:	0742                	slli	a4,a4,0x10
    2e6c:	8341                	srli	a4,a4,0x10
    2e6e:	a39a                	sh	a4,0(a5)
    2e70:	0001                	nop
    2e72:	40b2                	lw	ra,12(sp)
    2e74:	4422                	lw	s0,8(sp)
    2e76:	0141                	addi	sp,sp,16
    2e78:	8082                	ret

00002e7a <RVMSIS_I2C_Reset>:
    2e7a:	1141                	addi	sp,sp,-16
    2e7c:	c622                	sw	s0,12(sp)
    2e7e:	0800                	addi	s0,sp,16
    2e80:	400057b7          	lui	a5,0x40005
    2e84:	40078793          	addi	a5,a5,1024 # 40005400 <_eusrstack+0x20000400>
    2e88:	239e                	lhu	a5,0(a5)
    2e8a:	01079693          	slli	a3,a5,0x10
    2e8e:	82c1                	srli	a3,a3,0x10
    2e90:	400057b7          	lui	a5,0x40005
    2e94:	40078793          	addi	a5,a5,1024 # 40005400 <_eusrstack+0x20000400>
    2e98:	7761                	lui	a4,0xffff8
    2e9a:	8f55                	or	a4,a4,a3
    2e9c:	0742                	slli	a4,a4,0x10
    2e9e:	8341                	srli	a4,a4,0x10
    2ea0:	a39a                	sh	a4,0(a5)
    2ea2:	0001                	nop
    2ea4:	400057b7          	lui	a5,0x40005
    2ea8:	40078793          	addi	a5,a5,1024 # 40005400 <_eusrstack+0x20000400>
    2eac:	239e                	lhu	a5,0(a5)
    2eae:	07c2                	slli	a5,a5,0x10
    2eb0:	83c1                	srli	a5,a5,0x10
    2eb2:	07c2                	slli	a5,a5,0x10
    2eb4:	87c1                	srai	a5,a5,0x10
    2eb6:	fe07d7e3          	bgez	a5,2ea4 <RVMSIS_I2C_Reset+0x2a>
    2eba:	400057b7          	lui	a5,0x40005
    2ebe:	40078793          	addi	a5,a5,1024 # 40005400 <_eusrstack+0x20000400>
    2ec2:	239e                	lhu	a5,0(a5)
    2ec4:	01079693          	slli	a3,a5,0x10
    2ec8:	82c1                	srli	a3,a3,0x10
    2eca:	400057b7          	lui	a5,0x40005
    2ece:	40078793          	addi	a5,a5,1024 # 40005400 <_eusrstack+0x20000400>
    2ed2:	6721                	lui	a4,0x8
    2ed4:	177d                	addi	a4,a4,-1
    2ed6:	8f75                	and	a4,a4,a3
    2ed8:	0742                	slli	a4,a4,0x10
    2eda:	8341                	srli	a4,a4,0x10
    2edc:	a39a                	sh	a4,0(a5)
    2ede:	0001                	nop
    2ee0:	400057b7          	lui	a5,0x40005
    2ee4:	40078793          	addi	a5,a5,1024 # 40005400 <_eusrstack+0x20000400>
    2ee8:	239e                	lhu	a5,0(a5)
    2eea:	07c2                	slli	a5,a5,0x10
    2eec:	83c1                	srli	a5,a5,0x10
    2eee:	07c2                	slli	a5,a5,0x10
    2ef0:	87c1                	srai	a5,a5,0x10
    2ef2:	fe07c7e3          	bltz	a5,2ee0 <RVMSIS_I2C_Reset+0x66>
    2ef6:	0001                	nop
    2ef8:	4432                	lw	s0,12(sp)
    2efa:	0141                	addi	sp,sp,16
    2efc:	8082                	ret

00002efe <RVMSIS_I2C1_Init>:
    2efe:	1141                	addi	sp,sp,-16
    2f00:	c606                	sw	ra,12(sp)
    2f02:	c422                	sw	s0,8(sp)
    2f04:	0800                	addi	s0,sp,16
    2f06:	400217b7          	lui	a5,0x40021
    2f0a:	4f98                	lw	a4,24(a5)
    2f0c:	400217b7          	lui	a5,0x40021
    2f10:	00876713          	ori	a4,a4,8
    2f14:	cf98                	sw	a4,24(a5)
    2f16:	400217b7          	lui	a5,0x40021
    2f1a:	4f98                	lw	a4,24(a5)
    2f1c:	400217b7          	lui	a5,0x40021
    2f20:	00176713          	ori	a4,a4,1
    2f24:	cf98                	sw	a4,24(a5)
    2f26:	400217b7          	lui	a5,0x40021
    2f2a:	4fd4                	lw	a3,28(a5)
    2f2c:	400217b7          	lui	a5,0x40021
    2f30:	00200737          	lui	a4,0x200
    2f34:	8f55                	or	a4,a4,a3
    2f36:	cfd8                	sw	a4,28(a5)
    2f38:	400107b7          	lui	a5,0x40010
    2f3c:	43d8                	lw	a4,4(a5)
    2f3e:	400107b7          	lui	a5,0x40010
    2f42:	00276713          	ori	a4,a4,2
    2f46:	c3d8                	sw	a4,4(a5)
    2f48:	400117b7          	lui	a5,0x40011
    2f4c:	c0078793          	addi	a5,a5,-1024 # 40010c00 <_eusrstack+0x2000bc00>
    2f50:	43d8                	lw	a4,4(a5)
    2f52:	400117b7          	lui	a5,0x40011
    2f56:	c0078793          	addi	a5,a5,-1024 # 40010c00 <_eusrstack+0x2000bc00>
    2f5a:	0c076713          	ori	a4,a4,192
    2f5e:	c3d8                	sw	a4,4(a5)
    2f60:	400117b7          	lui	a5,0x40011
    2f64:	c0078793          	addi	a5,a5,-1024 # 40010c00 <_eusrstack+0x2000bc00>
    2f68:	43d8                	lw	a4,4(a5)
    2f6a:	400117b7          	lui	a5,0x40011
    2f6e:	c0078793          	addi	a5,a5,-1024 # 40010c00 <_eusrstack+0x2000bc00>
    2f72:	03076713          	ori	a4,a4,48
    2f76:	c3d8                	sw	a4,4(a5)
    2f78:	400117b7          	lui	a5,0x40011
    2f7c:	c0078793          	addi	a5,a5,-1024 # 40010c00 <_eusrstack+0x2000bc00>
    2f80:	43d8                	lw	a4,4(a5)
    2f82:	400117b7          	lui	a5,0x40011
    2f86:	c0078793          	addi	a5,a5,-1024 # 40010c00 <_eusrstack+0x2000bc00>
    2f8a:	00c76713          	ori	a4,a4,12
    2f8e:	c3d8                	sw	a4,4(a5)
    2f90:	400117b7          	lui	a5,0x40011
    2f94:	c0078793          	addi	a5,a5,-1024 # 40010c00 <_eusrstack+0x2000bc00>
    2f98:	43d8                	lw	a4,4(a5)
    2f9a:	400117b7          	lui	a5,0x40011
    2f9e:	c0078793          	addi	a5,a5,-1024 # 40010c00 <_eusrstack+0x2000bc00>
    2fa2:	00376713          	ori	a4,a4,3
    2fa6:	c3d8                	sw	a4,4(a5)
    2fa8:	3dc9                	jal	2e7a <RVMSIS_I2C_Reset>
    2faa:	400057b7          	lui	a5,0x40005
    2fae:	40078793          	addi	a5,a5,1024 # 40005400 <_eusrstack+0x20000400>
    2fb2:	239e                	lhu	a5,0(a5)
    2fb4:	01079693          	slli	a3,a5,0x10
    2fb8:	82c1                	srli	a3,a3,0x10
    2fba:	400057b7          	lui	a5,0x40005
    2fbe:	40078793          	addi	a5,a5,1024 # 40005400 <_eusrstack+0x20000400>
    2fc2:	7779                	lui	a4,0xffffe
    2fc4:	177d                	addi	a4,a4,-1
    2fc6:	8f75                	and	a4,a4,a3
    2fc8:	0742                	slli	a4,a4,0x10
    2fca:	8341                	srli	a4,a4,0x10
    2fcc:	a39a                	sh	a4,0(a5)
    2fce:	400057b7          	lui	a5,0x40005
    2fd2:	40078793          	addi	a5,a5,1024 # 40005400 <_eusrstack+0x20000400>
    2fd6:	239e                	lhu	a5,0(a5)
    2fd8:	01079693          	slli	a3,a5,0x10
    2fdc:	82c1                	srli	a3,a3,0x10
    2fde:	400057b7          	lui	a5,0x40005
    2fe2:	40078793          	addi	a5,a5,1024 # 40005400 <_eusrstack+0x20000400>
    2fe6:	777d                	lui	a4,0xfffff
    2fe8:	177d                	addi	a4,a4,-1
    2fea:	8f75                	and	a4,a4,a3
    2fec:	0742                	slli	a4,a4,0x10
    2fee:	8341                	srli	a4,a4,0x10
    2ff0:	a39a                	sh	a4,0(a5)
    2ff2:	400057b7          	lui	a5,0x40005
    2ff6:	40078793          	addi	a5,a5,1024 # 40005400 <_eusrstack+0x20000400>
    2ffa:	239e                	lhu	a5,0(a5)
    2ffc:	01079693          	slli	a3,a5,0x10
    3000:	82c1                	srli	a3,a3,0x10
    3002:	400057b7          	lui	a5,0x40005
    3006:	40078793          	addi	a5,a5,1024 # 40005400 <_eusrstack+0x20000400>
    300a:	777d                	lui	a4,0xfffff
    300c:	7ff70713          	addi	a4,a4,2047 # fffff7ff <_eusrstack+0xdfffa7ff>
    3010:	8f75                	and	a4,a4,a3
    3012:	0742                	slli	a4,a4,0x10
    3014:	8341                	srli	a4,a4,0x10
    3016:	a39a                	sh	a4,0(a5)
    3018:	400057b7          	lui	a5,0x40005
    301c:	40078793          	addi	a5,a5,1024 # 40005400 <_eusrstack+0x20000400>
    3020:	239e                	lhu	a5,0(a5)
    3022:	01079713          	slli	a4,a5,0x10
    3026:	8341                	srli	a4,a4,0x10
    3028:	400057b7          	lui	a5,0x40005
    302c:	40078793          	addi	a5,a5,1024 # 40005400 <_eusrstack+0x20000400>
    3030:	bff77713          	andi	a4,a4,-1025
    3034:	0742                	slli	a4,a4,0x10
    3036:	8341                	srli	a4,a4,0x10
    3038:	a39a                	sh	a4,0(a5)
    303a:	400057b7          	lui	a5,0x40005
    303e:	40078793          	addi	a5,a5,1024 # 40005400 <_eusrstack+0x20000400>
    3042:	239e                	lhu	a5,0(a5)
    3044:	01079713          	slli	a4,a5,0x10
    3048:	8341                	srli	a4,a4,0x10
    304a:	400057b7          	lui	a5,0x40005
    304e:	40078793          	addi	a5,a5,1024 # 40005400 <_eusrstack+0x20000400>
    3052:	dff77713          	andi	a4,a4,-513
    3056:	0742                	slli	a4,a4,0x10
    3058:	8341                	srli	a4,a4,0x10
    305a:	a39a                	sh	a4,0(a5)
    305c:	400057b7          	lui	a5,0x40005
    3060:	40078793          	addi	a5,a5,1024 # 40005400 <_eusrstack+0x20000400>
    3064:	239e                	lhu	a5,0(a5)
    3066:	01079713          	slli	a4,a5,0x10
    306a:	8341                	srli	a4,a4,0x10
    306c:	400057b7          	lui	a5,0x40005
    3070:	40078793          	addi	a5,a5,1024 # 40005400 <_eusrstack+0x20000400>
    3074:	eff77713          	andi	a4,a4,-257
    3078:	0742                	slli	a4,a4,0x10
    307a:	8341                	srli	a4,a4,0x10
    307c:	a39a                	sh	a4,0(a5)
    307e:	400057b7          	lui	a5,0x40005
    3082:	40078793          	addi	a5,a5,1024 # 40005400 <_eusrstack+0x20000400>
    3086:	239e                	lhu	a5,0(a5)
    3088:	01079713          	slli	a4,a5,0x10
    308c:	8341                	srli	a4,a4,0x10
    308e:	400057b7          	lui	a5,0x40005
    3092:	40078793          	addi	a5,a5,1024 # 40005400 <_eusrstack+0x20000400>
    3096:	f7f77713          	andi	a4,a4,-129
    309a:	0742                	slli	a4,a4,0x10
    309c:	8341                	srli	a4,a4,0x10
    309e:	a39a                	sh	a4,0(a5)
    30a0:	400057b7          	lui	a5,0x40005
    30a4:	40078793          	addi	a5,a5,1024 # 40005400 <_eusrstack+0x20000400>
    30a8:	239e                	lhu	a5,0(a5)
    30aa:	01079713          	slli	a4,a5,0x10
    30ae:	8341                	srli	a4,a4,0x10
    30b0:	400057b7          	lui	a5,0x40005
    30b4:	40078793          	addi	a5,a5,1024 # 40005400 <_eusrstack+0x20000400>
    30b8:	fbf77713          	andi	a4,a4,-65
    30bc:	0742                	slli	a4,a4,0x10
    30be:	8341                	srli	a4,a4,0x10
    30c0:	a39a                	sh	a4,0(a5)
    30c2:	400057b7          	lui	a5,0x40005
    30c6:	40078793          	addi	a5,a5,1024 # 40005400 <_eusrstack+0x20000400>
    30ca:	239e                	lhu	a5,0(a5)
    30cc:	01079713          	slli	a4,a5,0x10
    30d0:	8341                	srli	a4,a4,0x10
    30d2:	400057b7          	lui	a5,0x40005
    30d6:	40078793          	addi	a5,a5,1024 # 40005400 <_eusrstack+0x20000400>
    30da:	fdf77713          	andi	a4,a4,-33
    30de:	0742                	slli	a4,a4,0x10
    30e0:	8341                	srli	a4,a4,0x10
    30e2:	a39a                	sh	a4,0(a5)
    30e4:	400057b7          	lui	a5,0x40005
    30e8:	40078793          	addi	a5,a5,1024 # 40005400 <_eusrstack+0x20000400>
    30ec:	239e                	lhu	a5,0(a5)
    30ee:	01079713          	slli	a4,a5,0x10
    30f2:	8341                	srli	a4,a4,0x10
    30f4:	400057b7          	lui	a5,0x40005
    30f8:	40078793          	addi	a5,a5,1024 # 40005400 <_eusrstack+0x20000400>
    30fc:	9b3d                	andi	a4,a4,-17
    30fe:	0742                	slli	a4,a4,0x10
    3100:	8341                	srli	a4,a4,0x10
    3102:	a39a                	sh	a4,0(a5)
    3104:	400057b7          	lui	a5,0x40005
    3108:	40078793          	addi	a5,a5,1024 # 40005400 <_eusrstack+0x20000400>
    310c:	239e                	lhu	a5,0(a5)
    310e:	01079713          	slli	a4,a5,0x10
    3112:	8341                	srli	a4,a4,0x10
    3114:	400057b7          	lui	a5,0x40005
    3118:	40078793          	addi	a5,a5,1024 # 40005400 <_eusrstack+0x20000400>
    311c:	9b5d                	andi	a4,a4,-9
    311e:	0742                	slli	a4,a4,0x10
    3120:	8341                	srli	a4,a4,0x10
    3122:	a39a                	sh	a4,0(a5)
    3124:	400057b7          	lui	a5,0x40005
    3128:	40078793          	addi	a5,a5,1024 # 40005400 <_eusrstack+0x20000400>
    312c:	239e                	lhu	a5,0(a5)
    312e:	01079713          	slli	a4,a5,0x10
    3132:	8341                	srli	a4,a4,0x10
    3134:	400057b7          	lui	a5,0x40005
    3138:	40078793          	addi	a5,a5,1024 # 40005400 <_eusrstack+0x20000400>
    313c:	9b75                	andi	a4,a4,-3
    313e:	0742                	slli	a4,a4,0x10
    3140:	8341                	srli	a4,a4,0x10
    3142:	a39a                	sh	a4,0(a5)
    3144:	400057b7          	lui	a5,0x40005
    3148:	40078793          	addi	a5,a5,1024 # 40005400 <_eusrstack+0x20000400>
    314c:	23de                	lhu	a5,4(a5)
    314e:	01079693          	slli	a3,a5,0x10
    3152:	82c1                	srli	a3,a3,0x10
    3154:	400057b7          	lui	a5,0x40005
    3158:	40078793          	addi	a5,a5,1024 # 40005400 <_eusrstack+0x20000400>
    315c:	777d                	lui	a4,0xfffff
    315e:	177d                	addi	a4,a4,-1
    3160:	8f75                	and	a4,a4,a3
    3162:	0742                	slli	a4,a4,0x10
    3164:	8341                	srli	a4,a4,0x10
    3166:	a3da                	sh	a4,4(a5)
    3168:	400057b7          	lui	a5,0x40005
    316c:	40078793          	addi	a5,a5,1024 # 40005400 <_eusrstack+0x20000400>
    3170:	23de                	lhu	a5,4(a5)
    3172:	01079693          	slli	a3,a5,0x10
    3176:	82c1                	srli	a3,a3,0x10
    3178:	400057b7          	lui	a5,0x40005
    317c:	40078793          	addi	a5,a5,1024 # 40005400 <_eusrstack+0x20000400>
    3180:	777d                	lui	a4,0xfffff
    3182:	7ff70713          	addi	a4,a4,2047 # fffff7ff <_eusrstack+0xdfffa7ff>
    3186:	8f75                	and	a4,a4,a3
    3188:	0742                	slli	a4,a4,0x10
    318a:	8341                	srli	a4,a4,0x10
    318c:	a3da                	sh	a4,4(a5)
    318e:	400057b7          	lui	a5,0x40005
    3192:	40078793          	addi	a5,a5,1024 # 40005400 <_eusrstack+0x20000400>
    3196:	23de                	lhu	a5,4(a5)
    3198:	01079713          	slli	a4,a5,0x10
    319c:	8341                	srli	a4,a4,0x10
    319e:	400057b7          	lui	a5,0x40005
    31a2:	40078793          	addi	a5,a5,1024 # 40005400 <_eusrstack+0x20000400>
    31a6:	bff77713          	andi	a4,a4,-1025
    31aa:	0742                	slli	a4,a4,0x10
    31ac:	8341                	srli	a4,a4,0x10
    31ae:	a3da                	sh	a4,4(a5)
    31b0:	400057b7          	lui	a5,0x40005
    31b4:	40078793          	addi	a5,a5,1024 # 40005400 <_eusrstack+0x20000400>
    31b8:	23de                	lhu	a5,4(a5)
    31ba:	01079713          	slli	a4,a5,0x10
    31be:	8341                	srli	a4,a4,0x10
    31c0:	400057b7          	lui	a5,0x40005
    31c4:	40078793          	addi	a5,a5,1024 # 40005400 <_eusrstack+0x20000400>
    31c8:	dff77713          	andi	a4,a4,-513
    31cc:	0742                	slli	a4,a4,0x10
    31ce:	8341                	srli	a4,a4,0x10
    31d0:	a3da                	sh	a4,4(a5)
    31d2:	400057b7          	lui	a5,0x40005
    31d6:	40078793          	addi	a5,a5,1024 # 40005400 <_eusrstack+0x20000400>
    31da:	23de                	lhu	a5,4(a5)
    31dc:	01079713          	slli	a4,a5,0x10
    31e0:	8341                	srli	a4,a4,0x10
    31e2:	400057b7          	lui	a5,0x40005
    31e6:	40078793          	addi	a5,a5,1024 # 40005400 <_eusrstack+0x20000400>
    31ea:	eff77713          	andi	a4,a4,-257
    31ee:	0742                	slli	a4,a4,0x10
    31f0:	8341                	srli	a4,a4,0x10
    31f2:	a3da                	sh	a4,4(a5)
    31f4:	400057b7          	lui	a5,0x40005
    31f8:	40078793          	addi	a5,a5,1024 # 40005400 <_eusrstack+0x20000400>
    31fc:	23de                	lhu	a5,4(a5)
    31fe:	07c2                	slli	a5,a5,0x10
    3200:	83c1                	srli	a5,a5,0x10
    3202:	07c2                	slli	a5,a5,0x10
    3204:	87c1                	srai	a5,a5,0x10
    3206:	fc07f793          	andi	a5,a5,-64
    320a:	07c2                	slli	a5,a5,0x10
    320c:	87c1                	srai	a5,a5,0x10
    320e:	0247e793          	ori	a5,a5,36
    3212:	01079713          	slli	a4,a5,0x10
    3216:	8741                	srai	a4,a4,0x10
    3218:	400057b7          	lui	a5,0x40005
    321c:	40078793          	addi	a5,a5,1024 # 40005400 <_eusrstack+0x20000400>
    3220:	0742                	slli	a4,a4,0x10
    3222:	8341                	srli	a4,a4,0x10
    3224:	a3da                	sh	a4,4(a5)
    3226:	400057b7          	lui	a5,0x40005
    322a:	40078793          	addi	a5,a5,1024 # 40005400 <_eusrstack+0x20000400>
    322e:	00079423          	sh	zero,8(a5)
    3232:	400057b7          	lui	a5,0x40005
    3236:	40078793          	addi	a5,a5,1024 # 40005400 <_eusrstack+0x20000400>
    323a:	00079623          	sh	zero,12(a5)
    323e:	400057b7          	lui	a5,0x40005
    3242:	40078793          	addi	a5,a5,1024 # 40005400 <_eusrstack+0x20000400>
    3246:	2fde                	lhu	a5,28(a5)
    3248:	01079693          	slli	a3,a5,0x10
    324c:	82c1                	srli	a3,a3,0x10
    324e:	400057b7          	lui	a5,0x40005
    3252:	40078793          	addi	a5,a5,1024 # 40005400 <_eusrstack+0x20000400>
    3256:	6721                	lui	a4,0x8
    3258:	177d                	addi	a4,a4,-1
    325a:	8f75                	and	a4,a4,a3
    325c:	0742                	slli	a4,a4,0x10
    325e:	8341                	srli	a4,a4,0x10
    3260:	afda                	sh	a4,28(a5)
    3262:	400057b7          	lui	a5,0x40005
    3266:	40078793          	addi	a5,a5,1024 # 40005400 <_eusrstack+0x20000400>
    326a:	2fde                	lhu	a5,28(a5)
    326c:	01079693          	slli	a3,a5,0x10
    3270:	82c1                	srli	a3,a3,0x10
    3272:	400057b7          	lui	a5,0x40005
    3276:	40078793          	addi	a5,a5,1024 # 40005400 <_eusrstack+0x20000400>
    327a:	7771                	lui	a4,0xffffc
    327c:	177d                	addi	a4,a4,-1
    327e:	8f75                	and	a4,a4,a3
    3280:	0742                	slli	a4,a4,0x10
    3282:	8341                	srli	a4,a4,0x10
    3284:	afda                	sh	a4,28(a5)
    3286:	400057b7          	lui	a5,0x40005
    328a:	40078793          	addi	a5,a5,1024 # 40005400 <_eusrstack+0x20000400>
    328e:	2fde                	lhu	a5,28(a5)
    3290:	07c2                	slli	a5,a5,0x10
    3292:	83c1                	srli	a5,a5,0x10
    3294:	01079713          	slli	a4,a5,0x10
    3298:	8741                	srai	a4,a4,0x10
    329a:	77fd                	lui	a5,0xfffff
    329c:	8ff9                	and	a5,a5,a4
    329e:	07c2                	slli	a5,a5,0x10
    32a0:	87c1                	srai	a5,a5,0x10
    32a2:	0b47e793          	ori	a5,a5,180
    32a6:	01079713          	slli	a4,a5,0x10
    32aa:	8741                	srai	a4,a4,0x10
    32ac:	400057b7          	lui	a5,0x40005
    32b0:	40078793          	addi	a5,a5,1024 # 40005400 <_eusrstack+0x20000400>
    32b4:	0742                	slli	a4,a4,0x10
    32b6:	8341                	srli	a4,a4,0x10
    32b8:	afda                	sh	a4,28(a5)
    32ba:	400057b7          	lui	a5,0x40005
    32be:	40078793          	addi	a5,a5,1024 # 40005400 <_eusrstack+0x20000400>
    32c2:	339e                	lhu	a5,32(a5)
    32c4:	07c2                	slli	a5,a5,0x10
    32c6:	83c1                	srli	a5,a5,0x10
    32c8:	07c2                	slli	a5,a5,0x10
    32ca:	87c1                	srai	a5,a5,0x10
    32cc:	fc07f793          	andi	a5,a5,-64
    32d0:	07c2                	slli	a5,a5,0x10
    32d2:	87c1                	srai	a5,a5,0x10
    32d4:	0257e793          	ori	a5,a5,37
    32d8:	01079713          	slli	a4,a5,0x10
    32dc:	8741                	srai	a4,a4,0x10
    32de:	400057b7          	lui	a5,0x40005
    32e2:	40078793          	addi	a5,a5,1024 # 40005400 <_eusrstack+0x20000400>
    32e6:	0742                	slli	a4,a4,0x10
    32e8:	8341                	srli	a4,a4,0x10
    32ea:	b39a                	sh	a4,32(a5)
    32ec:	400057b7          	lui	a5,0x40005
    32f0:	40078793          	addi	a5,a5,1024 # 40005400 <_eusrstack+0x20000400>
    32f4:	239e                	lhu	a5,0(a5)
    32f6:	01079713          	slli	a4,a5,0x10
    32fa:	8341                	srli	a4,a4,0x10
    32fc:	400057b7          	lui	a5,0x40005
    3300:	40078793          	addi	a5,a5,1024 # 40005400 <_eusrstack+0x20000400>
    3304:	00176713          	ori	a4,a4,1
    3308:	0742                	slli	a4,a4,0x10
    330a:	8341                	srli	a4,a4,0x10
    330c:	a39a                	sh	a4,0(a5)
    330e:	0001                	nop
    3310:	40b2                	lw	ra,12(sp)
    3312:	4422                	lw	s0,8(sp)
    3314:	0141                	addi	sp,sp,16
    3316:	8082                	ret

00003318 <RVMSIS_I2C_Data_Transmit>:
    3318:	7179                	addi	sp,sp,-48
    331a:	d606                	sw	ra,44(sp)
    331c:	d422                	sw	s0,40(sp)
    331e:	1800                	addi	s0,sp,48
    3320:	fca42e23          	sw	a0,-36(s0)
    3324:	87ae                	mv	a5,a1
    3326:	fcc42a23          	sw	a2,-44(s0)
    332a:	fce42823          	sw	a4,-48(s0)
    332e:	fcf40da3          	sb	a5,-37(s0)
    3332:	87b6                	mv	a5,a3
    3334:	fcf41c23          	sh	a5,-40(s0)
    3338:	fdc42783          	lw	a5,-36(s0)
    333c:	2f9e                	lhu	a5,24(a5)
    333e:	07c2                	slli	a5,a5,0x10
    3340:	83c1                	srli	a5,a5,0x10
    3342:	8b89                	andi	a5,a5,2
    3344:	cfc9                	beqz	a5,33de <RVMSIS_I2C_Data_Transmit+0xc6>
    3346:	400117b7          	lui	a5,0x40011
    334a:	c0078793          	addi	a5,a5,-1024 # 40010c00 <_eusrstack+0x2000bc00>
    334e:	479c                	lw	a5,8(a5)
    3350:	0407f793          	andi	a5,a5,64
    3354:	cf89                	beqz	a5,336e <RVMSIS_I2C_Data_Transmit+0x56>
    3356:	400117b7          	lui	a5,0x40011
    335a:	c0078793          	addi	a5,a5,-1024 # 40010c00 <_eusrstack+0x2000bc00>
    335e:	479c                	lw	a5,8(a5)
    3360:	0807f793          	andi	a5,a5,128
    3364:	c789                	beqz	a5,336e <RVMSIS_I2C_Data_Transmit+0x56>
    3366:	b15ff0ef          	jal	ra,2e7a <RVMSIS_I2C_Reset>
    336a:	b95ff0ef          	jal	ra,2efe <RVMSIS_I2C1_Init>
    336e:	fdc42783          	lw	a5,-36(s0)
    3372:	2f9e                	lhu	a5,24(a5)
    3374:	07c2                	slli	a5,a5,0x10
    3376:	83c1                	srli	a5,a5,0x10
    3378:	8b85                	andi	a5,a5,1
    337a:	cf91                	beqz	a5,3396 <RVMSIS_I2C_Data_Transmit+0x7e>
    337c:	fdc42783          	lw	a5,-36(s0)
    3380:	239e                	lhu	a5,0(a5)
    3382:	07c2                	slli	a5,a5,0x10
    3384:	83c1                	srli	a5,a5,0x10
    3386:	2007e793          	ori	a5,a5,512
    338a:	01079713          	slli	a4,a5,0x10
    338e:	8341                	srli	a4,a4,0x10
    3390:	fdc42783          	lw	a5,-36(s0)
    3394:	a39a                	sh	a4,0(a5)
    3396:	fdc42783          	lw	a5,-36(s0)
    339a:	239e                	lhu	a5,0(a5)
    339c:	01079713          	slli	a4,a5,0x10
    33a0:	8341                	srli	a4,a4,0x10
    33a2:	4785                	li	a5,1
    33a4:	02f70b63          	beq	a4,a5,33da <RVMSIS_I2C_Data_Transmit+0xc2>
    33a8:	fdc42783          	lw	a5,-36(s0)
    33ac:	239e                	lhu	a5,0(a5)
    33ae:	07c2                	slli	a5,a5,0x10
    33b0:	83c1                	srli	a5,a5,0x10
    33b2:	9bf9                	andi	a5,a5,-2
    33b4:	01079713          	slli	a4,a5,0x10
    33b8:	8341                	srli	a4,a4,0x10
    33ba:	fdc42783          	lw	a5,-36(s0)
    33be:	a39a                	sh	a4,0(a5)
    33c0:	fdc42783          	lw	a5,-36(s0)
    33c4:	239e                	lhu	a5,0(a5)
    33c6:	07c2                	slli	a5,a5,0x10
    33c8:	83c1                	srli	a5,a5,0x10
    33ca:	0017e793          	ori	a5,a5,1
    33ce:	01079713          	slli	a4,a5,0x10
    33d2:	8341                	srli	a4,a4,0x10
    33d4:	fdc42783          	lw	a5,-36(s0)
    33d8:	a39a                	sh	a4,0(a5)
    33da:	4781                	li	a5,0
    33dc:	a275                	j	3588 <RVMSIS_I2C_Data_Transmit+0x270>
    33de:	fdc42783          	lw	a5,-36(s0)
    33e2:	239e                	lhu	a5,0(a5)
    33e4:	01079713          	slli	a4,a5,0x10
    33e8:	8341                	srli	a4,a4,0x10
    33ea:	77fd                	lui	a5,0xfffff
    33ec:	7ff78793          	addi	a5,a5,2047 # fffff7ff <_eusrstack+0xdfffa7ff>
    33f0:	8ff9                	and	a5,a5,a4
    33f2:	01079713          	slli	a4,a5,0x10
    33f6:	8341                	srli	a4,a4,0x10
    33f8:	fdc42783          	lw	a5,-36(s0)
    33fc:	a39a                	sh	a4,0(a5)
    33fe:	fdc42783          	lw	a5,-36(s0)
    3402:	239e                	lhu	a5,0(a5)
    3404:	07c2                	slli	a5,a5,0x10
    3406:	83c1                	srli	a5,a5,0x10
    3408:	1007e793          	ori	a5,a5,256
    340c:	01079713          	slli	a4,a5,0x10
    3410:	8341                	srli	a4,a4,0x10
    3412:	fdc42783          	lw	a5,-36(s0)
    3416:	a39a                	sh	a4,0(a5)
    3418:	fd042703          	lw	a4,-48(s0)
    341c:	82e1a823          	sw	a4,-2000(gp) # 20000160 <Timeout_counter_ms>
    3420:	a031                	j	342c <RVMSIS_I2C_Data_Transmit+0x114>
    3422:	8301a783          	lw	a5,-2000(gp) # 20000160 <Timeout_counter_ms>
    3426:	e399                	bnez	a5,342c <RVMSIS_I2C_Data_Transmit+0x114>
    3428:	4781                	li	a5,0
    342a:	aab9                	j	3588 <RVMSIS_I2C_Data_Transmit+0x270>
    342c:	fdc42783          	lw	a5,-36(s0)
    3430:	2bde                	lhu	a5,20(a5)
    3432:	07c2                	slli	a5,a5,0x10
    3434:	83c1                	srli	a5,a5,0x10
    3436:	8b85                	andi	a5,a5,1
    3438:	d7ed                	beqz	a5,3422 <RVMSIS_I2C_Data_Transmit+0x10a>
    343a:	fdc42783          	lw	a5,-36(s0)
    343e:	2bde                	lhu	a5,20(a5)
    3440:	fdb44783          	lbu	a5,-37(s0)
    3444:	07c2                	slli	a5,a5,0x10
    3446:	83c1                	srli	a5,a5,0x10
    3448:	0786                	slli	a5,a5,0x1
    344a:	01079713          	slli	a4,a5,0x10
    344e:	8341                	srli	a4,a4,0x10
    3450:	fdc42783          	lw	a5,-36(s0)
    3454:	ab9a                	sh	a4,16(a5)
    3456:	fd042703          	lw	a4,-48(s0)
    345a:	82e1a823          	sw	a4,-2000(gp) # 20000160 <Timeout_counter_ms>
    345e:	a031                	j	346a <RVMSIS_I2C_Data_Transmit+0x152>
    3460:	8301a783          	lw	a5,-2000(gp) # 20000160 <Timeout_counter_ms>
    3464:	e399                	bnez	a5,346a <RVMSIS_I2C_Data_Transmit+0x152>
    3466:	4781                	li	a5,0
    3468:	a205                	j	3588 <RVMSIS_I2C_Data_Transmit+0x270>
    346a:	fdc42783          	lw	a5,-36(s0)
    346e:	2bde                	lhu	a5,20(a5)
    3470:	07c2                	slli	a5,a5,0x10
    3472:	83c1                	srli	a5,a5,0x10
    3474:	4007f793          	andi	a5,a5,1024
    3478:	eb81                	bnez	a5,3488 <RVMSIS_I2C_Data_Transmit+0x170>
    347a:	fdc42783          	lw	a5,-36(s0)
    347e:	2bde                	lhu	a5,20(a5)
    3480:	07c2                	slli	a5,a5,0x10
    3482:	83c1                	srli	a5,a5,0x10
    3484:	8b89                	andi	a5,a5,2
    3486:	dfe9                	beqz	a5,3460 <RVMSIS_I2C_Data_Transmit+0x148>
    3488:	fdc42783          	lw	a5,-36(s0)
    348c:	2bde                	lhu	a5,20(a5)
    348e:	07c2                	slli	a5,a5,0x10
    3490:	83c1                	srli	a5,a5,0x10
    3492:	8b89                	andi	a5,a5,2
    3494:	cfdd                	beqz	a5,3552 <RVMSIS_I2C_Data_Transmit+0x23a>
    3496:	fdc42783          	lw	a5,-36(s0)
    349a:	2bde                	lhu	a5,20(a5)
    349c:	fdc42783          	lw	a5,-36(s0)
    34a0:	2f9e                	lhu	a5,24(a5)
    34a2:	fe041723          	sh	zero,-18(s0)
    34a6:	a049                	j	3528 <RVMSIS_I2C_Data_Transmit+0x210>
    34a8:	fee45783          	lhu	a5,-18(s0)
    34ac:	fd442703          	lw	a4,-44(s0)
    34b0:	97ba                	add	a5,a5,a4
    34b2:	239c                	lbu	a5,0(a5)
    34b4:	01079713          	slli	a4,a5,0x10
    34b8:	8341                	srli	a4,a4,0x10
    34ba:	fdc42783          	lw	a5,-36(s0)
    34be:	ab9a                	sh	a4,16(a5)
    34c0:	a0b9                	j	350e <RVMSIS_I2C_Data_Transmit+0x1f6>
    34c2:	fdc42783          	lw	a5,-36(s0)
    34c6:	2bde                	lhu	a5,20(a5)
    34c8:	07c2                	slli	a5,a5,0x10
    34ca:	83c1                	srli	a5,a5,0x10
    34cc:	4007f713          	andi	a4,a5,1024
    34d0:	4785                	li	a5,1
    34d2:	02f71e63          	bne	a4,a5,350e <RVMSIS_I2C_Data_Transmit+0x1f6>
    34d6:	fdc42783          	lw	a5,-36(s0)
    34da:	239e                	lhu	a5,0(a5)
    34dc:	07c2                	slli	a5,a5,0x10
    34de:	83c1                	srli	a5,a5,0x10
    34e0:	2007e793          	ori	a5,a5,512
    34e4:	01079713          	slli	a4,a5,0x10
    34e8:	8341                	srli	a4,a4,0x10
    34ea:	fdc42783          	lw	a5,-36(s0)
    34ee:	a39a                	sh	a4,0(a5)
    34f0:	fdc42783          	lw	a5,-36(s0)
    34f4:	2bde                	lhu	a5,20(a5)
    34f6:	07c2                	slli	a5,a5,0x10
    34f8:	83c1                	srli	a5,a5,0x10
    34fa:	bff7f793          	andi	a5,a5,-1025
    34fe:	01079713          	slli	a4,a5,0x10
    3502:	8341                	srli	a4,a4,0x10
    3504:	fdc42783          	lw	a5,-36(s0)
    3508:	abda                	sh	a4,20(a5)
    350a:	4781                	li	a5,0
    350c:	a8b5                	j	3588 <RVMSIS_I2C_Data_Transmit+0x270>
    350e:	fdc42783          	lw	a5,-36(s0)
    3512:	2bde                	lhu	a5,20(a5)
    3514:	07c2                	slli	a5,a5,0x10
    3516:	83c1                	srli	a5,a5,0x10
    3518:	0807f793          	andi	a5,a5,128
    351c:	d3dd                	beqz	a5,34c2 <RVMSIS_I2C_Data_Transmit+0x1aa>
    351e:	fee45783          	lhu	a5,-18(s0)
    3522:	0785                	addi	a5,a5,1
    3524:	fef41723          	sh	a5,-18(s0)
    3528:	fee45703          	lhu	a4,-18(s0)
    352c:	fd845783          	lhu	a5,-40(s0)
    3530:	f6f76ce3          	bltu	a4,a5,34a8 <RVMSIS_I2C_Data_Transmit+0x190>
    3534:	fdc42783          	lw	a5,-36(s0)
    3538:	239e                	lhu	a5,0(a5)
    353a:	07c2                	slli	a5,a5,0x10
    353c:	83c1                	srli	a5,a5,0x10
    353e:	2007e793          	ori	a5,a5,512
    3542:	01079713          	slli	a4,a5,0x10
    3546:	8341                	srli	a4,a4,0x10
    3548:	fdc42783          	lw	a5,-36(s0)
    354c:	a39a                	sh	a4,0(a5)
    354e:	4785                	li	a5,1
    3550:	a825                	j	3588 <RVMSIS_I2C_Data_Transmit+0x270>
    3552:	fdc42783          	lw	a5,-36(s0)
    3556:	239e                	lhu	a5,0(a5)
    3558:	07c2                	slli	a5,a5,0x10
    355a:	83c1                	srli	a5,a5,0x10
    355c:	2007e793          	ori	a5,a5,512
    3560:	01079713          	slli	a4,a5,0x10
    3564:	8341                	srli	a4,a4,0x10
    3566:	fdc42783          	lw	a5,-36(s0)
    356a:	a39a                	sh	a4,0(a5)
    356c:	fdc42783          	lw	a5,-36(s0)
    3570:	2bde                	lhu	a5,20(a5)
    3572:	07c2                	slli	a5,a5,0x10
    3574:	83c1                	srli	a5,a5,0x10
    3576:	bff7f793          	andi	a5,a5,-1025
    357a:	01079713          	slli	a4,a5,0x10
    357e:	8341                	srli	a4,a4,0x10
    3580:	fdc42783          	lw	a5,-36(s0)
    3584:	abda                	sh	a4,20(a5)
    3586:	4781                	li	a5,0
    3588:	853e                	mv	a0,a5
    358a:	50b2                	lw	ra,44(sp)
    358c:	5422                	lw	s0,40(sp)
    358e:	6145                	addi	sp,sp,48
    3590:	8082                	ret

00003592 <RVMSIS_I2C_Data_Receive>:
    3592:	7179                	addi	sp,sp,-48
    3594:	d606                	sw	ra,44(sp)
    3596:	d422                	sw	s0,40(sp)
    3598:	1800                	addi	s0,sp,48
    359a:	fca42e23          	sw	a0,-36(s0)
    359e:	87ae                	mv	a5,a1
    35a0:	fcc42a23          	sw	a2,-44(s0)
    35a4:	fce42823          	sw	a4,-48(s0)
    35a8:	fcf40da3          	sb	a5,-37(s0)
    35ac:	87b6                	mv	a5,a3
    35ae:	fcf41c23          	sh	a5,-40(s0)
    35b2:	fdc42783          	lw	a5,-36(s0)
    35b6:	2f9e                	lhu	a5,24(a5)
    35b8:	07c2                	slli	a5,a5,0x10
    35ba:	83c1                	srli	a5,a5,0x10
    35bc:	8b89                	andi	a5,a5,2
    35be:	cfc9                	beqz	a5,3658 <RVMSIS_I2C_Data_Receive+0xc6>
    35c0:	400117b7          	lui	a5,0x40011
    35c4:	c0078793          	addi	a5,a5,-1024 # 40010c00 <_eusrstack+0x2000bc00>
    35c8:	479c                	lw	a5,8(a5)
    35ca:	0407f793          	andi	a5,a5,64
    35ce:	cf89                	beqz	a5,35e8 <RVMSIS_I2C_Data_Receive+0x56>
    35d0:	400117b7          	lui	a5,0x40011
    35d4:	c0078793          	addi	a5,a5,-1024 # 40010c00 <_eusrstack+0x2000bc00>
    35d8:	479c                	lw	a5,8(a5)
    35da:	0807f793          	andi	a5,a5,128
    35de:	c789                	beqz	a5,35e8 <RVMSIS_I2C_Data_Receive+0x56>
    35e0:	89bff0ef          	jal	ra,2e7a <RVMSIS_I2C_Reset>
    35e4:	91bff0ef          	jal	ra,2efe <RVMSIS_I2C1_Init>
    35e8:	fdc42783          	lw	a5,-36(s0)
    35ec:	2f9e                	lhu	a5,24(a5)
    35ee:	07c2                	slli	a5,a5,0x10
    35f0:	83c1                	srli	a5,a5,0x10
    35f2:	8b85                	andi	a5,a5,1
    35f4:	cf91                	beqz	a5,3610 <RVMSIS_I2C_Data_Receive+0x7e>
    35f6:	fdc42783          	lw	a5,-36(s0)
    35fa:	239e                	lhu	a5,0(a5)
    35fc:	07c2                	slli	a5,a5,0x10
    35fe:	83c1                	srli	a5,a5,0x10
    3600:	2007e793          	ori	a5,a5,512
    3604:	01079713          	slli	a4,a5,0x10
    3608:	8341                	srli	a4,a4,0x10
    360a:	fdc42783          	lw	a5,-36(s0)
    360e:	a39a                	sh	a4,0(a5)
    3610:	fdc42783          	lw	a5,-36(s0)
    3614:	239e                	lhu	a5,0(a5)
    3616:	01079713          	slli	a4,a5,0x10
    361a:	8341                	srli	a4,a4,0x10
    361c:	4785                	li	a5,1
    361e:	02f70b63          	beq	a4,a5,3654 <RVMSIS_I2C_Data_Receive+0xc2>
    3622:	fdc42783          	lw	a5,-36(s0)
    3626:	239e                	lhu	a5,0(a5)
    3628:	07c2                	slli	a5,a5,0x10
    362a:	83c1                	srli	a5,a5,0x10
    362c:	9bf9                	andi	a5,a5,-2
    362e:	01079713          	slli	a4,a5,0x10
    3632:	8341                	srli	a4,a4,0x10
    3634:	fdc42783          	lw	a5,-36(s0)
    3638:	a39a                	sh	a4,0(a5)
    363a:	fdc42783          	lw	a5,-36(s0)
    363e:	239e                	lhu	a5,0(a5)
    3640:	07c2                	slli	a5,a5,0x10
    3642:	83c1                	srli	a5,a5,0x10
    3644:	0017e793          	ori	a5,a5,1
    3648:	01079713          	slli	a4,a5,0x10
    364c:	8341                	srli	a4,a4,0x10
    364e:	fdc42783          	lw	a5,-36(s0)
    3652:	a39a                	sh	a4,0(a5)
    3654:	4781                	li	a5,0
    3656:	a411                	j	385a <RVMSIS_I2C_Data_Receive+0x2c8>
    3658:	fdc42783          	lw	a5,-36(s0)
    365c:	239e                	lhu	a5,0(a5)
    365e:	01079713          	slli	a4,a5,0x10
    3662:	8341                	srli	a4,a4,0x10
    3664:	77fd                	lui	a5,0xfffff
    3666:	7ff78793          	addi	a5,a5,2047 # fffff7ff <_eusrstack+0xdfffa7ff>
    366a:	8ff9                	and	a5,a5,a4
    366c:	01079713          	slli	a4,a5,0x10
    3670:	8341                	srli	a4,a4,0x10
    3672:	fdc42783          	lw	a5,-36(s0)
    3676:	a39a                	sh	a4,0(a5)
    3678:	fdc42783          	lw	a5,-36(s0)
    367c:	239e                	lhu	a5,0(a5)
    367e:	07c2                	slli	a5,a5,0x10
    3680:	83c1                	srli	a5,a5,0x10
    3682:	1007e793          	ori	a5,a5,256
    3686:	01079713          	slli	a4,a5,0x10
    368a:	8341                	srli	a4,a4,0x10
    368c:	fdc42783          	lw	a5,-36(s0)
    3690:	a39a                	sh	a4,0(a5)
    3692:	fd042703          	lw	a4,-48(s0)
    3696:	82e1a823          	sw	a4,-2000(gp) # 20000160 <Timeout_counter_ms>
    369a:	a031                	j	36a6 <RVMSIS_I2C_Data_Receive+0x114>
    369c:	8301a783          	lw	a5,-2000(gp) # 20000160 <Timeout_counter_ms>
    36a0:	e399                	bnez	a5,36a6 <RVMSIS_I2C_Data_Receive+0x114>
    36a2:	4781                	li	a5,0
    36a4:	aa5d                	j	385a <RVMSIS_I2C_Data_Receive+0x2c8>
    36a6:	fdc42783          	lw	a5,-36(s0)
    36aa:	2bde                	lhu	a5,20(a5)
    36ac:	07c2                	slli	a5,a5,0x10
    36ae:	83c1                	srli	a5,a5,0x10
    36b0:	8b85                	andi	a5,a5,1
    36b2:	d7ed                	beqz	a5,369c <RVMSIS_I2C_Data_Receive+0x10a>
    36b4:	fdc42783          	lw	a5,-36(s0)
    36b8:	2bde                	lhu	a5,20(a5)
    36ba:	fdb44783          	lbu	a5,-37(s0)
    36be:	0786                	slli	a5,a5,0x1
    36c0:	07c2                	slli	a5,a5,0x10
    36c2:	87c1                	srai	a5,a5,0x10
    36c4:	0017e793          	ori	a5,a5,1
    36c8:	07c2                	slli	a5,a5,0x10
    36ca:	87c1                	srai	a5,a5,0x10
    36cc:	01079713          	slli	a4,a5,0x10
    36d0:	8341                	srli	a4,a4,0x10
    36d2:	fdc42783          	lw	a5,-36(s0)
    36d6:	ab9a                	sh	a4,16(a5)
    36d8:	fd042703          	lw	a4,-48(s0)
    36dc:	82e1a823          	sw	a4,-2000(gp) # 20000160 <Timeout_counter_ms>
    36e0:	a031                	j	36ec <RVMSIS_I2C_Data_Receive+0x15a>
    36e2:	8301a783          	lw	a5,-2000(gp) # 20000160 <Timeout_counter_ms>
    36e6:	e399                	bnez	a5,36ec <RVMSIS_I2C_Data_Receive+0x15a>
    36e8:	4781                	li	a5,0
    36ea:	aa85                	j	385a <RVMSIS_I2C_Data_Receive+0x2c8>
    36ec:	fdc42783          	lw	a5,-36(s0)
    36f0:	2bde                	lhu	a5,20(a5)
    36f2:	07c2                	slli	a5,a5,0x10
    36f4:	83c1                	srli	a5,a5,0x10
    36f6:	4007f793          	andi	a5,a5,1024
    36fa:	eb81                	bnez	a5,370a <RVMSIS_I2C_Data_Receive+0x178>
    36fc:	fdc42783          	lw	a5,-36(s0)
    3700:	2bde                	lhu	a5,20(a5)
    3702:	07c2                	slli	a5,a5,0x10
    3704:	83c1                	srli	a5,a5,0x10
    3706:	8b89                	andi	a5,a5,2
    3708:	dfe9                	beqz	a5,36e2 <RVMSIS_I2C_Data_Receive+0x150>
    370a:	fdc42783          	lw	a5,-36(s0)
    370e:	2bde                	lhu	a5,20(a5)
    3710:	07c2                	slli	a5,a5,0x10
    3712:	83c1                	srli	a5,a5,0x10
    3714:	8b89                	andi	a5,a5,2
    3716:	10078763          	beqz	a5,3824 <RVMSIS_I2C_Data_Receive+0x292>
    371a:	fdc42783          	lw	a5,-36(s0)
    371e:	2bde                	lhu	a5,20(a5)
    3720:	fdc42783          	lw	a5,-36(s0)
    3724:	2f9e                	lhu	a5,24(a5)
    3726:	fe041723          	sh	zero,-18(s0)
    372a:	a0ed                	j	3814 <RVMSIS_I2C_Data_Receive+0x282>
    372c:	fee45703          	lhu	a4,-18(s0)
    3730:	fd845783          	lhu	a5,-40(s0)
    3734:	17fd                	addi	a5,a5,-1
    3736:	06f75063          	bge	a4,a5,3796 <RVMSIS_I2C_Data_Receive+0x204>
    373a:	fdc42783          	lw	a5,-36(s0)
    373e:	239e                	lhu	a5,0(a5)
    3740:	07c2                	slli	a5,a5,0x10
    3742:	83c1                	srli	a5,a5,0x10
    3744:	4007e793          	ori	a5,a5,1024
    3748:	01079713          	slli	a4,a5,0x10
    374c:	8341                	srli	a4,a4,0x10
    374e:	fdc42783          	lw	a5,-36(s0)
    3752:	a39a                	sh	a4,0(a5)
    3754:	fd042703          	lw	a4,-48(s0)
    3758:	82e1a823          	sw	a4,-2000(gp) # 20000160 <Timeout_counter_ms>
    375c:	a031                	j	3768 <RVMSIS_I2C_Data_Receive+0x1d6>
    375e:	8301a783          	lw	a5,-2000(gp) # 20000160 <Timeout_counter_ms>
    3762:	e399                	bnez	a5,3768 <RVMSIS_I2C_Data_Receive+0x1d6>
    3764:	4781                	li	a5,0
    3766:	a8d5                	j	385a <RVMSIS_I2C_Data_Receive+0x2c8>
    3768:	fdc42783          	lw	a5,-36(s0)
    376c:	2bde                	lhu	a5,20(a5)
    376e:	07c2                	slli	a5,a5,0x10
    3770:	83c1                	srli	a5,a5,0x10
    3772:	0407f793          	andi	a5,a5,64
    3776:	d7e5                	beqz	a5,375e <RVMSIS_I2C_Data_Receive+0x1cc>
    3778:	fdc42783          	lw	a5,-36(s0)
    377c:	2b9e                	lhu	a5,16(a5)
    377e:	01079693          	slli	a3,a5,0x10
    3782:	82c1                	srli	a3,a3,0x10
    3784:	fee45783          	lhu	a5,-18(s0)
    3788:	fd442703          	lw	a4,-44(s0)
    378c:	97ba                	add	a5,a5,a4
    378e:	0ff6f713          	andi	a4,a3,255
    3792:	a398                	sb	a4,0(a5)
    3794:	a89d                	j	380a <RVMSIS_I2C_Data_Receive+0x278>
    3796:	fdc42783          	lw	a5,-36(s0)
    379a:	239e                	lhu	a5,0(a5)
    379c:	07c2                	slli	a5,a5,0x10
    379e:	83c1                	srli	a5,a5,0x10
    37a0:	bff7f793          	andi	a5,a5,-1025
    37a4:	01079713          	slli	a4,a5,0x10
    37a8:	8341                	srli	a4,a4,0x10
    37aa:	fdc42783          	lw	a5,-36(s0)
    37ae:	a39a                	sh	a4,0(a5)
    37b0:	fdc42783          	lw	a5,-36(s0)
    37b4:	239e                	lhu	a5,0(a5)
    37b6:	07c2                	slli	a5,a5,0x10
    37b8:	83c1                	srli	a5,a5,0x10
    37ba:	2007e793          	ori	a5,a5,512
    37be:	01079713          	slli	a4,a5,0x10
    37c2:	8341                	srli	a4,a4,0x10
    37c4:	fdc42783          	lw	a5,-36(s0)
    37c8:	a39a                	sh	a4,0(a5)
    37ca:	fd042703          	lw	a4,-48(s0)
    37ce:	82e1a823          	sw	a4,-2000(gp) # 20000160 <Timeout_counter_ms>
    37d2:	a031                	j	37de <RVMSIS_I2C_Data_Receive+0x24c>
    37d4:	8301a783          	lw	a5,-2000(gp) # 20000160 <Timeout_counter_ms>
    37d8:	e399                	bnez	a5,37de <RVMSIS_I2C_Data_Receive+0x24c>
    37da:	4781                	li	a5,0
    37dc:	a8bd                	j	385a <RVMSIS_I2C_Data_Receive+0x2c8>
    37de:	fdc42783          	lw	a5,-36(s0)
    37e2:	2bde                	lhu	a5,20(a5)
    37e4:	07c2                	slli	a5,a5,0x10
    37e6:	83c1                	srli	a5,a5,0x10
    37e8:	0407f793          	andi	a5,a5,64
    37ec:	d7e5                	beqz	a5,37d4 <RVMSIS_I2C_Data_Receive+0x242>
    37ee:	fdc42783          	lw	a5,-36(s0)
    37f2:	2b9e                	lhu	a5,16(a5)
    37f4:	01079693          	slli	a3,a5,0x10
    37f8:	82c1                	srli	a3,a3,0x10
    37fa:	fee45783          	lhu	a5,-18(s0)
    37fe:	fd442703          	lw	a4,-44(s0)
    3802:	97ba                	add	a5,a5,a4
    3804:	0ff6f713          	andi	a4,a3,255
    3808:	a398                	sb	a4,0(a5)
    380a:	fee45783          	lhu	a5,-18(s0)
    380e:	0785                	addi	a5,a5,1
    3810:	fef41723          	sh	a5,-18(s0)
    3814:	fee45703          	lhu	a4,-18(s0)
    3818:	fd845783          	lhu	a5,-40(s0)
    381c:	f0f768e3          	bltu	a4,a5,372c <RVMSIS_I2C_Data_Receive+0x19a>
    3820:	4785                	li	a5,1
    3822:	a825                	j	385a <RVMSIS_I2C_Data_Receive+0x2c8>
    3824:	fdc42783          	lw	a5,-36(s0)
    3828:	239e                	lhu	a5,0(a5)
    382a:	07c2                	slli	a5,a5,0x10
    382c:	83c1                	srli	a5,a5,0x10
    382e:	2007e793          	ori	a5,a5,512
    3832:	01079713          	slli	a4,a5,0x10
    3836:	8341                	srli	a4,a4,0x10
    3838:	fdc42783          	lw	a5,-36(s0)
    383c:	a39a                	sh	a4,0(a5)
    383e:	fdc42783          	lw	a5,-36(s0)
    3842:	2bde                	lhu	a5,20(a5)
    3844:	07c2                	slli	a5,a5,0x10
    3846:	83c1                	srli	a5,a5,0x10
    3848:	bff7f793          	andi	a5,a5,-1025
    384c:	01079713          	slli	a4,a5,0x10
    3850:	8341                	srli	a4,a4,0x10
    3852:	fdc42783          	lw	a5,-36(s0)
    3856:	abda                	sh	a4,20(a5)
    3858:	4781                	li	a5,0
    385a:	853e                	mv	a0,a5
    385c:	50b2                	lw	ra,44(sp)
    385e:	5422                	lw	s0,40(sp)
    3860:	6145                	addi	sp,sp,48
    3862:	8082                	ret

00003864 <RVMSIS_SPI1_init>:
    3864:	1141                	addi	sp,sp,-16
    3866:	c622                	sw	s0,12(sp)
    3868:	0800                	addi	s0,sp,16
    386a:	400217b7          	lui	a5,0x40021
    386e:	4f98                	lw	a4,24(a5)
    3870:	400217b7          	lui	a5,0x40021
    3874:	00176713          	ori	a4,a4,1
    3878:	cf98                	sw	a4,24(a5)
    387a:	400217b7          	lui	a5,0x40021
    387e:	4f94                	lw	a3,24(a5)
    3880:	400217b7          	lui	a5,0x40021
    3884:	6705                	lui	a4,0x1
    3886:	8f55                	or	a4,a4,a3
    3888:	cf98                	sw	a4,24(a5)
    388a:	400217b7          	lui	a5,0x40021
    388e:	4f98                	lw	a4,24(a5)
    3890:	400217b7          	lui	a5,0x40021
    3894:	00476713          	ori	a4,a4,4
    3898:	cf98                	sw	a4,24(a5)
    389a:	400137b7          	lui	a5,0x40013
    389e:	239e                	lhu	a5,0(a5)
    38a0:	07c2                	slli	a5,a5,0x10
    38a2:	83c1                	srli	a5,a5,0x10
    38a4:	07c2                	slli	a5,a5,0x10
    38a6:	87c1                	srai	a5,a5,0x10
    38a8:	fc77f793          	andi	a5,a5,-57
    38ac:	07c2                	slli	a5,a5,0x10
    38ae:	87c1                	srai	a5,a5,0x10
    38b0:	0107e793          	ori	a5,a5,16
    38b4:	01079713          	slli	a4,a5,0x10
    38b8:	8741                	srai	a4,a4,0x10
    38ba:	400137b7          	lui	a5,0x40013
    38be:	0742                	slli	a4,a4,0x10
    38c0:	8341                	srli	a4,a4,0x10
    38c2:	a39a                	sh	a4,0(a5)
    38c4:	400137b7          	lui	a5,0x40013
    38c8:	239e                	lhu	a5,0(a5)
    38ca:	01079713          	slli	a4,a5,0x10
    38ce:	8341                	srli	a4,a4,0x10
    38d0:	400137b7          	lui	a5,0x40013
    38d4:	00276713          	ori	a4,a4,2
    38d8:	0742                	slli	a4,a4,0x10
    38da:	8341                	srli	a4,a4,0x10
    38dc:	a39a                	sh	a4,0(a5)
    38de:	400137b7          	lui	a5,0x40013
    38e2:	239e                	lhu	a5,0(a5)
    38e4:	01079713          	slli	a4,a5,0x10
    38e8:	8341                	srli	a4,a4,0x10
    38ea:	400137b7          	lui	a5,0x40013
    38ee:	00176713          	ori	a4,a4,1
    38f2:	0742                	slli	a4,a4,0x10
    38f4:	8341                	srli	a4,a4,0x10
    38f6:	a39a                	sh	a4,0(a5)
    38f8:	400137b7          	lui	a5,0x40013
    38fc:	239e                	lhu	a5,0(a5)
    38fe:	01079693          	slli	a3,a5,0x10
    3902:	82c1                	srli	a3,a3,0x10
    3904:	400137b7          	lui	a5,0x40013
    3908:	777d                	lui	a4,0xfffff
    390a:	7ff70713          	addi	a4,a4,2047 # fffff7ff <_eusrstack+0xdfffa7ff>
    390e:	8f75                	and	a4,a4,a3
    3910:	0742                	slli	a4,a4,0x10
    3912:	8341                	srli	a4,a4,0x10
    3914:	a39a                	sh	a4,0(a5)
    3916:	400137b7          	lui	a5,0x40013
    391a:	239e                	lhu	a5,0(a5)
    391c:	01079713          	slli	a4,a5,0x10
    3920:	8341                	srli	a4,a4,0x10
    3922:	400137b7          	lui	a5,0x40013
    3926:	f7f77713          	andi	a4,a4,-129
    392a:	0742                	slli	a4,a4,0x10
    392c:	8341                	srli	a4,a4,0x10
    392e:	a39a                	sh	a4,0(a5)
    3930:	400137b7          	lui	a5,0x40013
    3934:	239e                	lhu	a5,0(a5)
    3936:	01079713          	slli	a4,a5,0x10
    393a:	8341                	srli	a4,a4,0x10
    393c:	400137b7          	lui	a5,0x40013
    3940:	20076713          	ori	a4,a4,512
    3944:	0742                	slli	a4,a4,0x10
    3946:	8341                	srli	a4,a4,0x10
    3948:	a39a                	sh	a4,0(a5)
    394a:	400137b7          	lui	a5,0x40013
    394e:	239e                	lhu	a5,0(a5)
    3950:	01079713          	slli	a4,a5,0x10
    3954:	8341                	srli	a4,a4,0x10
    3956:	400137b7          	lui	a5,0x40013
    395a:	10076713          	ori	a4,a4,256
    395e:	0742                	slli	a4,a4,0x10
    3960:	8341                	srli	a4,a4,0x10
    3962:	a39a                	sh	a4,0(a5)
    3964:	400137b7          	lui	a5,0x40013
    3968:	239e                	lhu	a5,0(a5)
    396a:	01079713          	slli	a4,a5,0x10
    396e:	8341                	srli	a4,a4,0x10
    3970:	400137b7          	lui	a5,0x40013
    3974:	00476713          	ori	a4,a4,4
    3978:	0742                	slli	a4,a4,0x10
    397a:	8341                	srli	a4,a4,0x10
    397c:	a39a                	sh	a4,0(a5)
    397e:	400137b7          	lui	a5,0x40013
    3982:	239e                	lhu	a5,0(a5)
    3984:	01079693          	slli	a3,a5,0x10
    3988:	82c1                	srli	a3,a3,0x10
    398a:	400137b7          	lui	a5,0x40013
    398e:	6721                	lui	a4,0x8
    3990:	177d                	addi	a4,a4,-1
    3992:	8f75                	and	a4,a4,a3
    3994:	0742                	slli	a4,a4,0x10
    3996:	8341                	srli	a4,a4,0x10
    3998:	a39a                	sh	a4,0(a5)
    399a:	400137b7          	lui	a5,0x40013
    399e:	239e                	lhu	a5,0(a5)
    39a0:	01079713          	slli	a4,a5,0x10
    39a4:	8341                	srli	a4,a4,0x10
    39a6:	400137b7          	lui	a5,0x40013
    39aa:	bff77713          	andi	a4,a4,-1025
    39ae:	0742                	slli	a4,a4,0x10
    39b0:	8341                	srli	a4,a4,0x10
    39b2:	a39a                	sh	a4,0(a5)
    39b4:	400137b7          	lui	a5,0x40013
    39b8:	239e                	lhu	a5,0(a5)
    39ba:	01079713          	slli	a4,a5,0x10
    39be:	8341                	srli	a4,a4,0x10
    39c0:	400137b7          	lui	a5,0x40013
    39c4:	04076713          	ori	a4,a4,64
    39c8:	0742                	slli	a4,a4,0x10
    39ca:	8341                	srli	a4,a4,0x10
    39cc:	a39a                	sh	a4,0(a5)
    39ce:	400137b7          	lui	a5,0x40013
    39d2:	239e                	lhu	a5,0(a5)
    39d4:	01079693          	slli	a3,a5,0x10
    39d8:	82c1                	srli	a3,a3,0x10
    39da:	400137b7          	lui	a5,0x40013
    39de:	7779                	lui	a4,0xffffe
    39e0:	177d                	addi	a4,a4,-1
    39e2:	8f75                	and	a4,a4,a3
    39e4:	0742                	slli	a4,a4,0x10
    39e6:	8341                	srli	a4,a4,0x10
    39e8:	a39a                	sh	a4,0(a5)
    39ea:	400137b7          	lui	a5,0x40013
    39ee:	239e                	lhu	a5,0(a5)
    39f0:	01079693          	slli	a3,a5,0x10
    39f4:	82c1                	srli	a3,a3,0x10
    39f6:	400137b7          	lui	a5,0x40013
    39fa:	777d                	lui	a4,0xfffff
    39fc:	177d                	addi	a4,a4,-1
    39fe:	8f75                	and	a4,a4,a3
    3a00:	0742                	slli	a4,a4,0x10
    3a02:	8341                	srli	a4,a4,0x10
    3a04:	a39a                	sh	a4,0(a5)
    3a06:	400137b7          	lui	a5,0x40013
    3a0a:	23de                	lhu	a5,4(a5)
    3a0c:	01079713          	slli	a4,a5,0x10
    3a10:	8341                	srli	a4,a4,0x10
    3a12:	400137b7          	lui	a5,0x40013
    3a16:	9b79                	andi	a4,a4,-2
    3a18:	0742                	slli	a4,a4,0x10
    3a1a:	8341                	srli	a4,a4,0x10
    3a1c:	a3da                	sh	a4,4(a5)
    3a1e:	400137b7          	lui	a5,0x40013
    3a22:	23de                	lhu	a5,4(a5)
    3a24:	01079713          	slli	a4,a5,0x10
    3a28:	8341                	srli	a4,a4,0x10
    3a2a:	400137b7          	lui	a5,0x40013
    3a2e:	9b75                	andi	a4,a4,-3
    3a30:	0742                	slli	a4,a4,0x10
    3a32:	8341                	srli	a4,a4,0x10
    3a34:	a3da                	sh	a4,4(a5)
    3a36:	400137b7          	lui	a5,0x40013
    3a3a:	23de                	lhu	a5,4(a5)
    3a3c:	01079713          	slli	a4,a5,0x10
    3a40:	8341                	srli	a4,a4,0x10
    3a42:	400137b7          	lui	a5,0x40013
    3a46:	9b6d                	andi	a4,a4,-5
    3a48:	0742                	slli	a4,a4,0x10
    3a4a:	8341                	srli	a4,a4,0x10
    3a4c:	a3da                	sh	a4,4(a5)
    3a4e:	400137b7          	lui	a5,0x40013
    3a52:	23de                	lhu	a5,4(a5)
    3a54:	01079713          	slli	a4,a5,0x10
    3a58:	8341                	srli	a4,a4,0x10
    3a5a:	400137b7          	lui	a5,0x40013
    3a5e:	fdf77713          	andi	a4,a4,-33
    3a62:	0742                	slli	a4,a4,0x10
    3a64:	8341                	srli	a4,a4,0x10
    3a66:	a3da                	sh	a4,4(a5)
    3a68:	400137b7          	lui	a5,0x40013
    3a6c:	23de                	lhu	a5,4(a5)
    3a6e:	01079713          	slli	a4,a5,0x10
    3a72:	8341                	srli	a4,a4,0x10
    3a74:	400137b7          	lui	a5,0x40013
    3a78:	fbf77713          	andi	a4,a4,-65
    3a7c:	0742                	slli	a4,a4,0x10
    3a7e:	8341                	srli	a4,a4,0x10
    3a80:	a3da                	sh	a4,4(a5)
    3a82:	400137b7          	lui	a5,0x40013
    3a86:	23de                	lhu	a5,4(a5)
    3a88:	01079713          	slli	a4,a5,0x10
    3a8c:	8341                	srli	a4,a4,0x10
    3a8e:	400137b7          	lui	a5,0x40013
    3a92:	f7f77713          	andi	a4,a4,-129
    3a96:	0742                	slli	a4,a4,0x10
    3a98:	8341                	srli	a4,a4,0x10
    3a9a:	a3da                	sh	a4,4(a5)
    3a9c:	400137b7          	lui	a5,0x40013
    3aa0:	2fde                	lhu	a5,28(a5)
    3aa2:	01079693          	slli	a3,a5,0x10
    3aa6:	82c1                	srli	a3,a3,0x10
    3aa8:	400137b7          	lui	a5,0x40013
    3aac:	777d                	lui	a4,0xfffff
    3aae:	7ff70713          	addi	a4,a4,2047 # fffff7ff <_eusrstack+0xdfffa7ff>
    3ab2:	8f75                	and	a4,a4,a3
    3ab4:	0742                	slli	a4,a4,0x10
    3ab6:	8341                	srli	a4,a4,0x10
    3ab8:	afda                	sh	a4,28(a5)
    3aba:	400117b7          	lui	a5,0x40011
    3abe:	80078793          	addi	a5,a5,-2048 # 40010800 <_eusrstack+0x2000b800>
    3ac2:	4394                	lw	a3,0(a5)
    3ac4:	400117b7          	lui	a5,0x40011
    3ac8:	80078793          	addi	a5,a5,-2048 # 40010800 <_eusrstack+0x2000b800>
    3acc:	00300737          	lui	a4,0x300
    3ad0:	8f55                	or	a4,a4,a3
    3ad2:	c398                	sw	a4,0(a5)
    3ad4:	400117b7          	lui	a5,0x40011
    3ad8:	80078793          	addi	a5,a5,-2048 # 40010800 <_eusrstack+0x2000b800>
    3adc:	4398                	lw	a4,0(a5)
    3ade:	ff4007b7          	lui	a5,0xff400
    3ae2:	17fd                	addi	a5,a5,-1
    3ae4:	00f776b3          	and	a3,a4,a5
    3ae8:	400117b7          	lui	a5,0x40011
    3aec:	80078793          	addi	a5,a5,-2048 # 40010800 <_eusrstack+0x2000b800>
    3af0:	00800737          	lui	a4,0x800
    3af4:	8f55                	or	a4,a4,a3
    3af6:	c398                	sw	a4,0(a5)
    3af8:	400117b7          	lui	a5,0x40011
    3afc:	80078793          	addi	a5,a5,-2048 # 40010800 <_eusrstack+0x2000b800>
    3b00:	4394                	lw	a3,0(a5)
    3b02:	400117b7          	lui	a5,0x40011
    3b06:	80078793          	addi	a5,a5,-2048 # 40010800 <_eusrstack+0x2000b800>
    3b0a:	fd000737          	lui	a4,0xfd000
    3b0e:	177d                	addi	a4,a4,-1
    3b10:	8f75                	and	a4,a4,a3
    3b12:	c398                	sw	a4,0(a5)
    3b14:	400117b7          	lui	a5,0x40011
    3b18:	80078793          	addi	a5,a5,-2048 # 40010800 <_eusrstack+0x2000b800>
    3b1c:	4398                	lw	a4,0(a5)
    3b1e:	f40007b7          	lui	a5,0xf4000
    3b22:	17fd                	addi	a5,a5,-1
    3b24:	00f776b3          	and	a3,a4,a5
    3b28:	400117b7          	lui	a5,0x40011
    3b2c:	80078793          	addi	a5,a5,-2048 # 40010800 <_eusrstack+0x2000b800>
    3b30:	04000737          	lui	a4,0x4000
    3b34:	8f55                	or	a4,a4,a3
    3b36:	c398                	sw	a4,0(a5)
    3b38:	400117b7          	lui	a5,0x40011
    3b3c:	80078793          	addi	a5,a5,-2048 # 40010800 <_eusrstack+0x2000b800>
    3b40:	47d8                	lw	a4,12(a5)
    3b42:	400117b7          	lui	a5,0x40011
    3b46:	80078793          	addi	a5,a5,-2048 # 40010800 <_eusrstack+0x2000b800>
    3b4a:	04076713          	ori	a4,a4,64
    3b4e:	c7d8                	sw	a4,12(a5)
    3b50:	400117b7          	lui	a5,0x40011
    3b54:	80078793          	addi	a5,a5,-2048 # 40010800 <_eusrstack+0x2000b800>
    3b58:	4394                	lw	a3,0(a5)
    3b5a:	400117b7          	lui	a5,0x40011
    3b5e:	80078793          	addi	a5,a5,-2048 # 40010800 <_eusrstack+0x2000b800>
    3b62:	30000737          	lui	a4,0x30000
    3b66:	8f55                	or	a4,a4,a3
    3b68:	c398                	sw	a4,0(a5)
    3b6a:	400117b7          	lui	a5,0x40011
    3b6e:	80078793          	addi	a5,a5,-2048 # 40010800 <_eusrstack+0x2000b800>
    3b72:	4398                	lw	a4,0(a5)
    3b74:	400007b7          	lui	a5,0x40000
    3b78:	17fd                	addi	a5,a5,-1
    3b7a:	00f776b3          	and	a3,a4,a5
    3b7e:	400117b7          	lui	a5,0x40011
    3b82:	80078793          	addi	a5,a5,-2048 # 40010800 <_eusrstack+0x2000b800>
    3b86:	80000737          	lui	a4,0x80000
    3b8a:	8f55                	or	a4,a4,a3
    3b8c:	c398                	sw	a4,0(a5)
    3b8e:	0001                	nop
    3b90:	4432                	lw	s0,12(sp)
    3b92:	0141                	addi	sp,sp,16
    3b94:	8082                	ret

00003b96 <RVMSIS_SPI_Data_Transmit_8BIT>:
    3b96:	7179                	addi	sp,sp,-48
    3b98:	d622                	sw	s0,44(sp)
    3b9a:	1800                	addi	s0,sp,48
    3b9c:	fca42e23          	sw	a0,-36(s0)
    3ba0:	fcb42c23          	sw	a1,-40(s0)
    3ba4:	87b2                	mv	a5,a2
    3ba6:	fcd42823          	sw	a3,-48(s0)
    3baa:	fcf41b23          	sh	a5,-42(s0)
    3bae:	fdc42783          	lw	a5,-36(s0)
    3bb2:	279e                	lhu	a5,8(a5)
    3bb4:	07c2                	slli	a5,a5,0x10
    3bb6:	83c1                	srli	a5,a5,0x10
    3bb8:	0807f793          	andi	a5,a5,128
    3bbc:	ebdd                	bnez	a5,3c72 <RVMSIS_SPI_Data_Transmit_8BIT+0xdc>
    3bbe:	fd842783          	lw	a5,-40(s0)
    3bc2:	239c                	lbu	a5,0(a5)
    3bc4:	01079713          	slli	a4,a5,0x10
    3bc8:	8341                	srli	a4,a4,0x10
    3bca:	fdc42783          	lw	a5,-36(s0)
    3bce:	a7da                	sh	a4,12(a5)
    3bd0:	4785                	li	a5,1
    3bd2:	fef41723          	sh	a5,-18(s0)
    3bd6:	a099                	j	3c1c <RVMSIS_SPI_Data_Transmit_8BIT+0x86>
    3bd8:	fd042703          	lw	a4,-48(s0)
    3bdc:	82e1a823          	sw	a4,-2000(gp) # 20000160 <Timeout_counter_ms>
    3be0:	a031                	j	3bec <RVMSIS_SPI_Data_Transmit_8BIT+0x56>
    3be2:	8301a783          	lw	a5,-2000(gp) # 20000160 <Timeout_counter_ms>
    3be6:	e399                	bnez	a5,3bec <RVMSIS_SPI_Data_Transmit_8BIT+0x56>
    3be8:	4781                	li	a5,0
    3bea:	a069                	j	3c74 <RVMSIS_SPI_Data_Transmit_8BIT+0xde>
    3bec:	fdc42783          	lw	a5,-36(s0)
    3bf0:	279e                	lhu	a5,8(a5)
    3bf2:	07c2                	slli	a5,a5,0x10
    3bf4:	83c1                	srli	a5,a5,0x10
    3bf6:	8b89                	andi	a5,a5,2
    3bf8:	d7ed                	beqz	a5,3be2 <RVMSIS_SPI_Data_Transmit_8BIT+0x4c>
    3bfa:	fee45783          	lhu	a5,-18(s0)
    3bfe:	fd842703          	lw	a4,-40(s0)
    3c02:	97ba                	add	a5,a5,a4
    3c04:	239c                	lbu	a5,0(a5)
    3c06:	01079713          	slli	a4,a5,0x10
    3c0a:	8341                	srli	a4,a4,0x10
    3c0c:	fdc42783          	lw	a5,-36(s0)
    3c10:	a7da                	sh	a4,12(a5)
    3c12:	fee45783          	lhu	a5,-18(s0)
    3c16:	0785                	addi	a5,a5,1
    3c18:	fef41723          	sh	a5,-18(s0)
    3c1c:	fee45703          	lhu	a4,-18(s0)
    3c20:	fd645783          	lhu	a5,-42(s0)
    3c24:	faf76ae3          	bltu	a4,a5,3bd8 <RVMSIS_SPI_Data_Transmit_8BIT+0x42>
    3c28:	fd042703          	lw	a4,-48(s0)
    3c2c:	82e1a823          	sw	a4,-2000(gp) # 20000160 <Timeout_counter_ms>
    3c30:	a031                	j	3c3c <RVMSIS_SPI_Data_Transmit_8BIT+0xa6>
    3c32:	8301a783          	lw	a5,-2000(gp) # 20000160 <Timeout_counter_ms>
    3c36:	e399                	bnez	a5,3c3c <RVMSIS_SPI_Data_Transmit_8BIT+0xa6>
    3c38:	4781                	li	a5,0
    3c3a:	a82d                	j	3c74 <RVMSIS_SPI_Data_Transmit_8BIT+0xde>
    3c3c:	fdc42783          	lw	a5,-36(s0)
    3c40:	279e                	lhu	a5,8(a5)
    3c42:	07c2                	slli	a5,a5,0x10
    3c44:	83c1                	srli	a5,a5,0x10
    3c46:	8b89                	andi	a5,a5,2
    3c48:	d7ed                	beqz	a5,3c32 <RVMSIS_SPI_Data_Transmit_8BIT+0x9c>
    3c4a:	fd042703          	lw	a4,-48(s0)
    3c4e:	82e1a823          	sw	a4,-2000(gp) # 20000160 <Timeout_counter_ms>
    3c52:	a031                	j	3c5e <RVMSIS_SPI_Data_Transmit_8BIT+0xc8>
    3c54:	8301a783          	lw	a5,-2000(gp) # 20000160 <Timeout_counter_ms>
    3c58:	e399                	bnez	a5,3c5e <RVMSIS_SPI_Data_Transmit_8BIT+0xc8>
    3c5a:	4781                	li	a5,0
    3c5c:	a821                	j	3c74 <RVMSIS_SPI_Data_Transmit_8BIT+0xde>
    3c5e:	fdc42783          	lw	a5,-36(s0)
    3c62:	279e                	lhu	a5,8(a5)
    3c64:	07c2                	slli	a5,a5,0x10
    3c66:	83c1                	srli	a5,a5,0x10
    3c68:	0807f793          	andi	a5,a5,128
    3c6c:	f7e5                	bnez	a5,3c54 <RVMSIS_SPI_Data_Transmit_8BIT+0xbe>
    3c6e:	4785                	li	a5,1
    3c70:	a011                	j	3c74 <RVMSIS_SPI_Data_Transmit_8BIT+0xde>
    3c72:	4781                	li	a5,0
    3c74:	853e                	mv	a0,a5
    3c76:	5432                	lw	s0,44(sp)
    3c78:	6145                	addi	sp,sp,48
    3c7a:	8082                	ret

00003c7c <RVMSIS_FLASH_Unlock>:
    3c7c:	1141                	addi	sp,sp,-16
    3c7e:	c622                	sw	s0,12(sp)
    3c80:	0800                	addi	s0,sp,16
    3c82:	400227b7          	lui	a5,0x40022
    3c86:	45670737          	lui	a4,0x45670
    3c8a:	12370713          	addi	a4,a4,291 # 45670123 <_eusrstack+0x2566b123>
    3c8e:	c3d8                	sw	a4,4(a5)
    3c90:	400227b7          	lui	a5,0x40022
    3c94:	cdef9737          	lui	a4,0xcdef9
    3c98:	9ab70713          	addi	a4,a4,-1621 # cdef89ab <_eusrstack+0xadef39ab>
    3c9c:	c3d8                	sw	a4,4(a5)
    3c9e:	0001                	nop
    3ca0:	4432                	lw	s0,12(sp)
    3ca2:	0141                	addi	sp,sp,16
    3ca4:	8082                	ret

00003ca6 <RVMSIS_FLASH_Lock>:
    3ca6:	1141                	addi	sp,sp,-16
    3ca8:	c622                	sw	s0,12(sp)
    3caa:	0800                	addi	s0,sp,16
    3cac:	400227b7          	lui	a5,0x40022
    3cb0:	4b98                	lw	a4,16(a5)
    3cb2:	400227b7          	lui	a5,0x40022
    3cb6:	08076713          	ori	a4,a4,128
    3cba:	cb98                	sw	a4,16(a5)
    3cbc:	0001                	nop
    3cbe:	4432                	lw	s0,12(sp)
    3cc0:	0141                	addi	sp,sp,16
    3cc2:	8082                	ret

00003cc4 <RVMSIS_FLASH_Page_erase>:
    3cc4:	1101                	addi	sp,sp,-32
    3cc6:	ce06                	sw	ra,28(sp)
    3cc8:	cc22                	sw	s0,24(sp)
    3cca:	1000                	addi	s0,sp,32
    3ccc:	87aa                	mv	a5,a0
    3cce:	fef41723          	sh	a5,-18(s0)
    3cd2:	400227b7          	lui	a5,0x40022
    3cd6:	4b9c                	lw	a5,16(a5)
    3cd8:	0807f793          	andi	a5,a5,128
    3cdc:	c391                	beqz	a5,3ce0 <RVMSIS_FLASH_Page_erase+0x1c>
    3cde:	3f79                	jal	3c7c <RVMSIS_FLASH_Unlock>
    3ce0:	400227b7          	lui	a5,0x40022
    3ce4:	4b98                	lw	a4,16(a5)
    3ce6:	400227b7          	lui	a5,0x40022
    3cea:	00276713          	ori	a4,a4,2
    3cee:	cb98                	sw	a4,16(a5)
    3cf0:	400227b7          	lui	a5,0x40022
    3cf4:	fee45703          	lhu	a4,-18(s0)
    3cf8:	cbd8                	sw	a4,20(a5)
    3cfa:	400227b7          	lui	a5,0x40022
    3cfe:	4b98                	lw	a4,16(a5)
    3d00:	400227b7          	lui	a5,0x40022
    3d04:	04076713          	ori	a4,a4,64
    3d08:	cb98                	sw	a4,16(a5)
    3d0a:	0001                	nop
    3d0c:	400227b7          	lui	a5,0x40022
    3d10:	47dc                	lw	a5,12(a5)
    3d12:	8b85                	andi	a5,a5,1
    3d14:	ffe5                	bnez	a5,3d0c <RVMSIS_FLASH_Page_erase+0x48>
    3d16:	400227b7          	lui	a5,0x40022
    3d1a:	4b98                	lw	a4,16(a5)
    3d1c:	400227b7          	lui	a5,0x40022
    3d20:	9b75                	andi	a4,a4,-3
    3d22:	cb98                	sw	a4,16(a5)
    3d24:	3749                	jal	3ca6 <RVMSIS_FLASH_Lock>
    3d26:	0001                	nop
    3d28:	40f2                	lw	ra,28(sp)
    3d2a:	4462                	lw	s0,24(sp)
    3d2c:	6105                	addi	sp,sp,32
    3d2e:	8082                	ret

00003d30 <RVMSIS_FLASH_Page_write>:
    3d30:	7179                	addi	sp,sp,-48
    3d32:	d606                	sw	ra,44(sp)
    3d34:	d422                	sw	s0,40(sp)
    3d36:	1800                	addi	s0,sp,48
    3d38:	fca42e23          	sw	a0,-36(s0)
    3d3c:	fcb42c23          	sw	a1,-40(s0)
    3d40:	87b2                	mv	a5,a2
    3d42:	fcf41b23          	sh	a5,-42(s0)
    3d46:	fd645783          	lhu	a5,-42(s0)
    3d4a:	8b85                	andi	a5,a5,1
    3d4c:	07c2                	slli	a5,a5,0x10
    3d4e:	83c1                	srli	a5,a5,0x10
    3d50:	c3dd                	beqz	a5,3df6 <RVMSIS_FLASH_Page_write+0xc6>
    3d52:	fd645783          	lhu	a5,-42(s0)
    3d56:	8385                	srli	a5,a5,0x1
    3d58:	fcf41b23          	sh	a5,-42(s0)
    3d5c:	fdc42783          	lw	a5,-36(s0)
    3d60:	07c2                	slli	a5,a5,0x10
    3d62:	83c1                	srli	a5,a5,0x10
    3d64:	853e                	mv	a0,a5
    3d66:	3fb9                	jal	3cc4 <RVMSIS_FLASH_Page_erase>
    3d68:	400227b7          	lui	a5,0x40022
    3d6c:	4b9c                	lw	a5,16(a5)
    3d6e:	0807f793          	andi	a5,a5,128
    3d72:	c391                	beqz	a5,3d76 <RVMSIS_FLASH_Page_write+0x46>
    3d74:	3721                	jal	3c7c <RVMSIS_FLASH_Unlock>
    3d76:	400227b7          	lui	a5,0x40022
    3d7a:	4b98                	lw	a4,16(a5)
    3d7c:	400227b7          	lui	a5,0x40022
    3d80:	00176713          	ori	a4,a4,1
    3d84:	cb98                	sw	a4,16(a5)
    3d86:	fe042623          	sw	zero,-20(s0)
    3d8a:	a81d                	j	3dc0 <RVMSIS_FLASH_Page_write+0x90>
    3d8c:	fec42783          	lw	a5,-20(s0)
    3d90:	0786                	slli	a5,a5,0x1
    3d92:	fd842703          	lw	a4,-40(s0)
    3d96:	97ba                	add	a5,a5,a4
    3d98:	fec42703          	lw	a4,-20(s0)
    3d9c:	0706                	slli	a4,a4,0x1
    3d9e:	86ba                	mv	a3,a4
    3da0:	fdc42703          	lw	a4,-36(s0)
    3da4:	9736                	add	a4,a4,a3
    3da6:	239e                	lhu	a5,0(a5)
    3da8:	a31e                	sh	a5,0(a4)
    3daa:	0001                	nop
    3dac:	400227b7          	lui	a5,0x40022
    3db0:	47dc                	lw	a5,12(a5)
    3db2:	8b85                	andi	a5,a5,1
    3db4:	ffe5                	bnez	a5,3dac <RVMSIS_FLASH_Page_write+0x7c>
    3db6:	fec42783          	lw	a5,-20(s0)
    3dba:	0785                	addi	a5,a5,1
    3dbc:	fef42623          	sw	a5,-20(s0)
    3dc0:	fd645783          	lhu	a5,-42(s0)
    3dc4:	fec42703          	lw	a4,-20(s0)
    3dc8:	fcf742e3          	blt	a4,a5,3d8c <RVMSIS_FLASH_Page_write+0x5c>
    3dcc:	fd645783          	lhu	a5,-42(s0)
    3dd0:	0786                	slli	a5,a5,0x1
    3dd2:	873e                	mv	a4,a5
    3dd4:	fd842783          	lw	a5,-40(s0)
    3dd8:	97ba                	add	a5,a5,a4
    3dda:	2394                	lbu	a3,0(a5)
    3ddc:	fd645783          	lhu	a5,-42(s0)
    3de0:	0786                	slli	a5,a5,0x1
    3de2:	873e                	mv	a4,a5
    3de4:	fdc42783          	lw	a5,-36(s0)
    3de8:	97ba                	add	a5,a5,a4
    3dea:	873e                	mv	a4,a5
    3dec:	01069793          	slli	a5,a3,0x10
    3df0:	83c1                	srli	a5,a5,0x10
    3df2:	a31e                	sh	a5,0(a4)
    3df4:	a8b5                	j	3e70 <RVMSIS_FLASH_Page_write+0x140>
    3df6:	fd645783          	lhu	a5,-42(s0)
    3dfa:	8385                	srli	a5,a5,0x1
    3dfc:	fcf41b23          	sh	a5,-42(s0)
    3e00:	fdc42783          	lw	a5,-36(s0)
    3e04:	07c2                	slli	a5,a5,0x10
    3e06:	83c1                	srli	a5,a5,0x10
    3e08:	853e                	mv	a0,a5
    3e0a:	3d6d                	jal	3cc4 <RVMSIS_FLASH_Page_erase>
    3e0c:	400227b7          	lui	a5,0x40022
    3e10:	4b9c                	lw	a5,16(a5)
    3e12:	0807f793          	andi	a5,a5,128
    3e16:	c391                	beqz	a5,3e1a <RVMSIS_FLASH_Page_write+0xea>
    3e18:	3595                	jal	3c7c <RVMSIS_FLASH_Unlock>
    3e1a:	400227b7          	lui	a5,0x40022
    3e1e:	4b98                	lw	a4,16(a5)
    3e20:	400227b7          	lui	a5,0x40022
    3e24:	00176713          	ori	a4,a4,1
    3e28:	cb98                	sw	a4,16(a5)
    3e2a:	fe042423          	sw	zero,-24(s0)
    3e2e:	a81d                	j	3e64 <RVMSIS_FLASH_Page_write+0x134>
    3e30:	fe842783          	lw	a5,-24(s0)
    3e34:	0786                	slli	a5,a5,0x1
    3e36:	fd842703          	lw	a4,-40(s0)
    3e3a:	97ba                	add	a5,a5,a4
    3e3c:	fe842703          	lw	a4,-24(s0)
    3e40:	0706                	slli	a4,a4,0x1
    3e42:	86ba                	mv	a3,a4
    3e44:	fdc42703          	lw	a4,-36(s0)
    3e48:	9736                	add	a4,a4,a3
    3e4a:	239e                	lhu	a5,0(a5)
    3e4c:	a31e                	sh	a5,0(a4)
    3e4e:	0001                	nop
    3e50:	400227b7          	lui	a5,0x40022
    3e54:	47dc                	lw	a5,12(a5)
    3e56:	8b85                	andi	a5,a5,1
    3e58:	ffe5                	bnez	a5,3e50 <RVMSIS_FLASH_Page_write+0x120>
    3e5a:	fe842783          	lw	a5,-24(s0)
    3e5e:	0785                	addi	a5,a5,1
    3e60:	fef42423          	sw	a5,-24(s0)
    3e64:	fd645783          	lhu	a5,-42(s0)
    3e68:	fe842703          	lw	a4,-24(s0)
    3e6c:	fcf742e3          	blt	a4,a5,3e30 <RVMSIS_FLASH_Page_write+0x100>
    3e70:	0001                	nop
    3e72:	400227b7          	lui	a5,0x40022
    3e76:	47dc                	lw	a5,12(a5)
    3e78:	8b85                	andi	a5,a5,1
    3e7a:	ffe5                	bnez	a5,3e72 <RVMSIS_FLASH_Page_write+0x142>
    3e7c:	400227b7          	lui	a5,0x40022
    3e80:	4b98                	lw	a4,16(a5)
    3e82:	400227b7          	lui	a5,0x40022
    3e86:	9b79                	andi	a4,a4,-2
    3e88:	cb98                	sw	a4,16(a5)
    3e8a:	3d31                	jal	3ca6 <RVMSIS_FLASH_Lock>
    3e8c:	0001                	nop
    3e8e:	50b2                	lw	ra,44(sp)
    3e90:	5422                	lw	s0,40(sp)
    3e92:	6145                	addi	sp,sp,48
    3e94:	8082                	ret

00003e96 <RVMSIS_FLASH_Read_data>:
    3e96:	7179                	addi	sp,sp,-48
    3e98:	d622                	sw	s0,44(sp)
    3e9a:	1800                	addi	s0,sp,48
    3e9c:	fca42e23          	sw	a0,-36(s0)
    3ea0:	fcb42c23          	sw	a1,-40(s0)
    3ea4:	87b2                	mv	a5,a2
    3ea6:	fcf41b23          	sh	a5,-42(s0)
    3eaa:	fd645783          	lhu	a5,-42(s0)
    3eae:	8b85                	andi	a5,a5,1
    3eb0:	07c2                	slli	a5,a5,0x10
    3eb2:	83c1                	srli	a5,a5,0x10
    3eb4:	c7bd                	beqz	a5,3f22 <RVMSIS_FLASH_Read_data+0x8c>
    3eb6:	fd645783          	lhu	a5,-42(s0)
    3eba:	8385                	srli	a5,a5,0x1
    3ebc:	fcf41b23          	sh	a5,-42(s0)
    3ec0:	fe041723          	sh	zero,-18(s0)
    3ec4:	a035                	j	3ef0 <RVMSIS_FLASH_Read_data+0x5a>
    3ec6:	fee45783          	lhu	a5,-18(s0)
    3eca:	0786                	slli	a5,a5,0x1
    3ecc:	873e                	mv	a4,a5
    3ece:	fdc42783          	lw	a5,-36(s0)
    3ed2:	97ba                	add	a5,a5,a4
    3ed4:	86be                	mv	a3,a5
    3ed6:	fee45783          	lhu	a5,-18(s0)
    3eda:	0786                	slli	a5,a5,0x1
    3edc:	fd842703          	lw	a4,-40(s0)
    3ee0:	97ba                	add	a5,a5,a4
    3ee2:	229a                	lhu	a4,0(a3)
    3ee4:	a39a                	sh	a4,0(a5)
    3ee6:	fee45783          	lhu	a5,-18(s0)
    3eea:	0785                	addi	a5,a5,1
    3eec:	fef41723          	sh	a5,-18(s0)
    3ef0:	fee45703          	lhu	a4,-18(s0)
    3ef4:	fd645783          	lhu	a5,-42(s0)
    3ef8:	fcf767e3          	bltu	a4,a5,3ec6 <RVMSIS_FLASH_Read_data+0x30>
    3efc:	fd645783          	lhu	a5,-42(s0)
    3f00:	0786                	slli	a5,a5,0x1
    3f02:	873e                	mv	a4,a5
    3f04:	fdc42783          	lw	a5,-36(s0)
    3f08:	97ba                	add	a5,a5,a4
    3f0a:	239a                	lhu	a4,0(a5)
    3f0c:	fd645783          	lhu	a5,-42(s0)
    3f10:	0786                	slli	a5,a5,0x1
    3f12:	86be                	mv	a3,a5
    3f14:	fd842783          	lw	a5,-40(s0)
    3f18:	97b6                	add	a5,a5,a3
    3f1a:	0ff77713          	andi	a4,a4,255
    3f1e:	a398                	sb	a4,0(a5)
    3f20:	a0a1                	j	3f68 <RVMSIS_FLASH_Read_data+0xd2>
    3f22:	fd645783          	lhu	a5,-42(s0)
    3f26:	8385                	srli	a5,a5,0x1
    3f28:	fcf41b23          	sh	a5,-42(s0)
    3f2c:	fe041623          	sh	zero,-20(s0)
    3f30:	a035                	j	3f5c <RVMSIS_FLASH_Read_data+0xc6>
    3f32:	fec45783          	lhu	a5,-20(s0)
    3f36:	0786                	slli	a5,a5,0x1
    3f38:	873e                	mv	a4,a5
    3f3a:	fdc42783          	lw	a5,-36(s0)
    3f3e:	97ba                	add	a5,a5,a4
    3f40:	86be                	mv	a3,a5
    3f42:	fec45783          	lhu	a5,-20(s0)
    3f46:	0786                	slli	a5,a5,0x1
    3f48:	fd842703          	lw	a4,-40(s0)
    3f4c:	97ba                	add	a5,a5,a4
    3f4e:	229a                	lhu	a4,0(a3)
    3f50:	a39a                	sh	a4,0(a5)
    3f52:	fec45783          	lhu	a5,-20(s0)
    3f56:	0785                	addi	a5,a5,1
    3f58:	fef41623          	sh	a5,-20(s0)
    3f5c:	fec45703          	lhu	a4,-20(s0)
    3f60:	fd645783          	lhu	a5,-42(s0)
    3f64:	fcf767e3          	bltu	a4,a5,3f32 <RVMSIS_FLASH_Read_data+0x9c>
    3f68:	0001                	nop
    3f6a:	5432                	lw	s0,44(sp)
    3f6c:	6145                	addi	sp,sp,48
    3f6e:	8082                	ret

00003f70 <GPIO_Initialization>:
    3f70:	1141                	addi	sp,sp,-16
    3f72:	c606                	sw	ra,12(sp)
    3f74:	c422                	sw	s0,8(sp)
    3f76:	0800                	addi	s0,sp,16
    3f78:	470d                	li	a4,3
    3f7a:	4681                	li	a3,0
    3f7c:	4601                	li	a2,0
    3f7e:	4589                	li	a1,2
    3f80:	400117b7          	lui	a5,0x40011
    3f84:	80078513          	addi	a0,a5,-2048 # 40010800 <_eusrstack+0x2000b800>
    3f88:	f60fe0ef          	jal	ra,26e8 <RVMSIS_GPIO_init>
    3f8c:	470d                	li	a4,3
    3f8e:	4681                	li	a3,0
    3f90:	4601                	li	a2,0
    3f92:	458d                	li	a1,3
    3f94:	400117b7          	lui	a5,0x40011
    3f98:	80078513          	addi	a0,a5,-2048 # 40010800 <_eusrstack+0x2000b800>
    3f9c:	f4cfe0ef          	jal	ra,26e8 <RVMSIS_GPIO_init>
    3fa0:	470d                	li	a4,3
    3fa2:	4681                	li	a3,0
    3fa4:	4601                	li	a2,0
    3fa6:	4591                	li	a1,4
    3fa8:	400117b7          	lui	a5,0x40011
    3fac:	80078513          	addi	a0,a5,-2048 # 40010800 <_eusrstack+0x2000b800>
    3fb0:	f38fe0ef          	jal	ra,26e8 <RVMSIS_GPIO_init>
    3fb4:	4701                	li	a4,0
    3fb6:	468d                	li	a3,3
    3fb8:	4609                	li	a2,2
    3fba:	4581                	li	a1,0
    3fbc:	400117b7          	lui	a5,0x40011
    3fc0:	80078513          	addi	a0,a5,-2048 # 40010800 <_eusrstack+0x2000b800>
    3fc4:	f24fe0ef          	jal	ra,26e8 <RVMSIS_GPIO_init>
    3fc8:	4701                	li	a4,0
    3fca:	468d                	li	a3,3
    3fcc:	4609                	li	a2,2
    3fce:	4585                	li	a1,1
    3fd0:	400117b7          	lui	a5,0x40011
    3fd4:	80078513          	addi	a0,a5,-2048 # 40010800 <_eusrstack+0x2000b800>
    3fd8:	f10fe0ef          	jal	ra,26e8 <RVMSIS_GPIO_init>
    3fdc:	4701                	li	a4,0
    3fde:	468d                	li	a3,3
    3fe0:	4609                	li	a2,2
    3fe2:	4581                	li	a1,0
    3fe4:	400117b7          	lui	a5,0x40011
    3fe8:	c0078513          	addi	a0,a5,-1024 # 40010c00 <_eusrstack+0x2000bc00>
    3fec:	efcfe0ef          	jal	ra,26e8 <RVMSIS_GPIO_init>
    3ff0:	4701                	li	a4,0
    3ff2:	468d                	li	a3,3
    3ff4:	4609                	li	a2,2
    3ff6:	4585                	li	a1,1
    3ff8:	400117b7          	lui	a5,0x40011
    3ffc:	c0078513          	addi	a0,a5,-1024 # 40010c00 <_eusrstack+0x2000bc00>
    4000:	ee8fe0ef          	jal	ra,26e8 <RVMSIS_GPIO_init>
    4004:	0001                	nop
    4006:	40b2                	lw	ra,12(sp)
    4008:	4422                	lw	s0,8(sp)
    400a:	0141                	addi	sp,sp,16
    400c:	8082                	ret

0000400e <Flash_init>:
    400e:	1141                	addi	sp,sp,-16
    4010:	c606                	sw	ra,12(sp)
    4012:	c422                	sw	s0,8(sp)
    4014:	0800                	addi	s0,sp,16
    4016:	4615                	li	a2,5
    4018:	85818593          	addi	a1,gp,-1960 # 20000188 <Flash_data>
    401c:	0800f537          	lui	a0,0x800f
    4020:	3d9d                	jal	3e96 <RVMSIS_FLASH_Read_data>
    4022:	85818703          	lb	a4,-1960(gp) # 20000188 <Flash_data>
    4026:	4789                	li	a5,2
    4028:	00e7c663          	blt	a5,a4,4034 <Flash_init+0x26>
    402c:	85818783          	lb	a5,-1960(gp) # 20000188 <Flash_data>
    4030:	0007d563          	bgez	a5,403a <Flash_init+0x2c>
    4034:	84018423          	sb	zero,-1976(gp) # 20000178 <Graph_number>
    4038:	a029                	j	4042 <Flash_init+0x34>
    403a:	85818703          	lb	a4,-1960(gp) # 20000188 <Flash_data>
    403e:	84e18423          	sb	a4,-1976(gp) # 20000178 <Graph_number>
    4042:	8581a703          	lw	a4,-1960(gp) # 20000188 <Flash_data>
    4046:	8321                	srli	a4,a4,0x8
    4048:	85818793          	addi	a5,gp,-1960 # 20000188 <Flash_data>
    404c:	43dc                	lw	a5,4(a5)
    404e:	0ff7f793          	andi	a5,a5,255
    4052:	07e2                	slli	a5,a5,0x18
    4054:	8fd9                	or	a5,a5,a4
    4056:	873e                	mv	a4,a5
    4058:	06400793          	li	a5,100
    405c:	00e7ce63          	blt	a5,a4,4078 <Flash_init+0x6a>
    4060:	8581a703          	lw	a4,-1960(gp) # 20000188 <Flash_data>
    4064:	8321                	srli	a4,a4,0x8
    4066:	85818793          	addi	a5,gp,-1960 # 20000188 <Flash_data>
    406a:	43dc                	lw	a5,4(a5)
    406c:	0ff7f793          	andi	a5,a5,255
    4070:	07e2                	slli	a5,a5,0x18
    4072:	8fd9                	or	a5,a5,a4
    4074:	0207d963          	bgez	a5,40a6 <Flash_init+0x98>
    4078:	200007b7          	lui	a5,0x20000
    407c:	03200713          	li	a4,50
    4080:	12e7aa23          	sw	a4,308(a5) # 20000134 <Backlight>
    4084:	200007b7          	lui	a5,0x20000
    4088:	1347a683          	lw	a3,308(a5) # 20000134 <Backlight>
    408c:	400137b7          	lui	a5,0x40013
    4090:	c0078793          	addi	a5,a5,-1024 # 40012c00 <_eusrstack+0x2000dc00>
    4094:	20000737          	lui	a4,0x20000
    4098:	0686                	slli	a3,a3,0x1
    409a:	00070713          	mv	a4,a4
    409e:	9736                	add	a4,a4,a3
    40a0:	231a                	lhu	a4,0(a4)
    40a2:	bbda                	sh	a4,52(a5)
    40a4:	a081                	j	40e4 <Flash_init+0xd6>
    40a6:	8581a703          	lw	a4,-1960(gp) # 20000188 <Flash_data>
    40aa:	8321                	srli	a4,a4,0x8
    40ac:	85818793          	addi	a5,gp,-1960 # 20000188 <Flash_data>
    40b0:	43dc                	lw	a5,4(a5)
    40b2:	0ff7f793          	andi	a5,a5,255
    40b6:	07e2                	slli	a5,a5,0x18
    40b8:	8fd9                	or	a5,a5,a4
    40ba:	873e                	mv	a4,a5
    40bc:	200007b7          	lui	a5,0x20000
    40c0:	12e7aa23          	sw	a4,308(a5) # 20000134 <Backlight>
    40c4:	200007b7          	lui	a5,0x20000
    40c8:	1347a683          	lw	a3,308(a5) # 20000134 <Backlight>
    40cc:	400137b7          	lui	a5,0x40013
    40d0:	c0078793          	addi	a5,a5,-1024 # 40012c00 <_eusrstack+0x2000dc00>
    40d4:	20000737          	lui	a4,0x20000
    40d8:	0686                	slli	a3,a3,0x1
    40da:	00070713          	mv	a4,a4
    40de:	9736                	add	a4,a4,a3
    40e0:	231a                	lhu	a4,0(a4)
    40e2:	bbda                	sh	a4,52(a5)
    40e4:	0001                	nop
    40e6:	40b2                	lw	ra,12(sp)
    40e8:	4422                	lw	s0,8(sp)
    40ea:	0141                	addi	sp,sp,16
    40ec:	8082                	ret

000040ee <Task1_Pooling_HDC1080>:
    40ee:	1141                	addi	sp,sp,-16
    40f0:	c606                	sw	ra,12(sp)
    40f2:	c422                	sw	s0,8(sp)
    40f4:	0800                	addi	s0,sp,16
    40f6:	80018e23          	sb	zero,-2020(gp) # 2000014c <I2C1_tx_buffer>
    40fa:	81c18793          	addi	a5,gp,-2020 # 2000014c <I2C1_tx_buffer>
    40fe:	000780a3          	sb	zero,1(a5)
    4102:	06400713          	li	a4,100
    4106:	4685                	li	a3,1
    4108:	81c18613          	addi	a2,gp,-2020 # 2000014c <I2C1_tx_buffer>
    410c:	04000593          	li	a1,64
    4110:	400057b7          	lui	a5,0x40005
    4114:	40078513          	addi	a0,a5,1024 # 40005400 <_eusrstack+0x20000400>
    4118:	a00ff0ef          	jal	ra,3318 <RVMSIS_I2C_Data_Transmit>
    411c:	4551                	li	a0,20
    411e:	a34fe0ef          	jal	ra,2352 <Delay_ms>
    4122:	06400713          	li	a4,100
    4126:	4691                	li	a3,4
    4128:	d6018613          	addi	a2,gp,-672 # 20000690 <I2C1_rx_buffer>
    412c:	04000593          	li	a1,64
    4130:	400057b7          	lui	a5,0x40005
    4134:	40078513          	addi	a0,a5,1024 # 40005400 <_eusrstack+0x20000400>
    4138:	c5aff0ef          	jal	ra,3592 <RVMSIS_I2C_Data_Receive>
    413c:	d601c783          	lbu	a5,-672(gp) # 20000690 <I2C1_rx_buffer>
    4140:	07a2                	slli	a5,a5,0x8
    4142:	d6018713          	addi	a4,gp,-672 # 20000690 <I2C1_rx_buffer>
    4146:	3318                	lbu	a4,1(a4)
    4148:	8fd9                	or	a5,a5,a4
    414a:	853e                	mv	a0,a5
    414c:	64c010ef          	jal	ra,5798 <__floatsisf>
    4150:	872a                	mv	a4,a0
    4152:	6799                	lui	a5,0x6
    4154:	5687a583          	lw	a1,1384(a5) # 6568 <_sbrk+0x170>
    4158:	853a                	mv	a0,a4
    415a:	76f000ef          	jal	ra,50c8 <__mulsf3>
    415e:	87aa                	mv	a5,a0
    4160:	873e                	mv	a4,a5
    4162:	6799                	lui	a5,0x6
    4164:	56c7a583          	lw	a1,1388(a5) # 656c <_sbrk+0x174>
    4168:	853a                	mv	a0,a4
    416a:	39b000ef          	jal	ra,4d04 <__divsf3>
    416e:	87aa                	mv	a5,a0
    4170:	873e                	mv	a4,a5
    4172:	6799                	lui	a5,0x6
    4174:	5707a583          	lw	a1,1392(a5) # 6570 <_sbrk+0x178>
    4178:	853a                	mv	a0,a4
    417a:	1de010ef          	jal	ra,5358 <__subsf3>
    417e:	87aa                	mv	a5,a0
    4180:	873e                	mv	a4,a5
    4182:	82e1a023          	sw	a4,-2016(gp) # 20000150 <Temperature>
    4186:	8201a703          	lw	a4,-2016(gp) # 20000150 <Temperature>
    418a:	6799                	lui	a5,0x6
    418c:	5747a583          	lw	a1,1396(a5) # 6574 <_sbrk+0x17c>
    4190:	853a                	mv	a0,a4
    4192:	1c6010ef          	jal	ra,5358 <__subsf3>
    4196:	87aa                	mv	a5,a0
    4198:	873e                	mv	a4,a5
    419a:	82e1a023          	sw	a4,-2016(gp) # 20000150 <Temperature>
    419e:	d6018793          	addi	a5,gp,-672 # 20000690 <I2C1_rx_buffer>
    41a2:	23bc                	lbu	a5,2(a5)
    41a4:	07a2                	slli	a5,a5,0x8
    41a6:	d6018713          	addi	a4,gp,-672 # 20000690 <I2C1_rx_buffer>
    41aa:	3338                	lbu	a4,3(a4)
    41ac:	8fd9                	or	a5,a5,a4
    41ae:	853e                	mv	a0,a5
    41b0:	5e8010ef          	jal	ra,5798 <__floatsisf>
    41b4:	872a                	mv	a4,a0
    41b6:	6799                	lui	a5,0x6
    41b8:	5787a583          	lw	a1,1400(a5) # 6578 <_sbrk+0x180>
    41bc:	853a                	mv	a0,a4
    41be:	70b000ef          	jal	ra,50c8 <__mulsf3>
    41c2:	87aa                	mv	a5,a0
    41c4:	873e                	mv	a4,a5
    41c6:	6799                	lui	a5,0x6
    41c8:	56c7a583          	lw	a1,1388(a5) # 656c <_sbrk+0x174>
    41cc:	853a                	mv	a0,a4
    41ce:	337000ef          	jal	ra,4d04 <__divsf3>
    41d2:	87aa                	mv	a5,a0
    41d4:	873e                	mv	a4,a5
    41d6:	82e1a223          	sw	a4,-2012(gp) # 20000154 <Humidity>
    41da:	8241a703          	lw	a4,-2012(gp) # 20000154 <Humidity>
    41de:	6799                	lui	a5,0x6
    41e0:	57c7a583          	lw	a1,1404(a5) # 657c <_sbrk+0x184>
    41e4:	853a                	mv	a0,a4
    41e6:	7b4000ef          	jal	ra,499a <__addsf3>
    41ea:	87aa                	mv	a5,a0
    41ec:	873e                	mv	a4,a5
    41ee:	82e1a223          	sw	a4,-2012(gp) # 20000154 <Humidity>
    41f2:	82018593          	addi	a1,gp,-2016 # 20000150 <Temperature>
    41f6:	db418513          	addi	a0,gp,-588 # 200006e4 <SMA_Filter_Buffer_Temperature>
    41fa:	2c15                	jal	442e <SMA_FILTER_Get_Value>
    41fc:	872a                	mv	a4,a0
    41fe:	82e1ae23          	sw	a4,-1988(gp) # 2000016c <Temperature_SMA>
    4202:	82418593          	addi	a1,gp,-2012 # 20000154 <Humidity>
    4206:	e3418513          	addi	a0,gp,-460 # 20000764 <SMA_Filter_Buffer_Humidity>
    420a:	2415                	jal	442e <SMA_FILTER_Get_Value>
    420c:	872a                	mv	a4,a0
    420e:	84e1a023          	sw	a4,-1984(gp) # 20000170 <Humidity_SMA>
    4212:	0001                	nop
    4214:	40b2                	lw	ra,12(sp)
    4216:	4422                	lw	s0,8(sp)
    4218:	0141                	addi	sp,sp,16
    421a:	8082                	ret

0000421c <Task2_GMG12864_output>:
    421c:	1101                	addi	sp,sp,-32
    421e:	ce06                	sw	ra,28(sp)
    4220:	cc22                	sw	s0,24(sp)
    4222:	1000                	addi	s0,sp,32
    4224:	992fc0ef          	jal	ra,3b6 <GMG12864_Clean_Frame_buffer>
    4228:	84818783          	lb	a5,-1976(gp) # 20000178 <Graph_number>
    422c:	4705                	li	a4,1
    422e:	0ee78f63          	beq	a5,a4,432c <Task2_GMG12864_output+0x110>
    4232:	4709                	li	a4,2
    4234:	16e78963          	beq	a5,a4,43a6 <Task2_GMG12864_output+0x18a>
    4238:	1e079463          	bnez	a5,4420 <Task2_GMG12864_output+0x204>
    423c:	97afc0ef          	jal	ra,3b6 <GMG12864_Clean_Frame_buffer>
    4240:	6799                	lui	a5,0x6
    4242:	4a078593          	addi	a1,a5,1184 # 64a0 <_sbrk+0xa8>
    4246:	200007b7          	lui	a5,0x20000
    424a:	1ac78513          	addi	a0,a5,428 # 200001ac <tx_buffer>
    424e:	74c010ef          	jal	ra,599a <siprintf>
    4252:	200007b7          	lui	a5,0x20000
    4256:	1ac78713          	addi	a4,a5,428 # 200001ac <tx_buffer>
    425a:	4681                	li	a3,0
    425c:	4605                	li	a2,1
    425e:	4581                	li	a1,0
    4260:	02800513          	li	a0,40
    4264:	801fc0ef          	jal	ra,a64 <GMG12864_Decode_UTF8>
    4268:	83c1a503          	lw	a0,-1988(gp) # 2000016c <Temperature_SMA>
    426c:	81818713          	addi	a4,gp,-2024 # 20000148 <fractional_number>
    4270:	81418693          	addi	a3,gp,-2028 # 20000144 <integer_number>
    4274:	81218613          	addi	a2,gp,-2030 # 20000142 <sign_number>
    4278:	4585                	li	a1,1
    427a:	e62fd0ef          	jal	ra,18dc <Float_transform>
    427e:	81818713          	addi	a4,gp,-2024 # 20000148 <fractional_number>
    4282:	81418693          	addi	a3,gp,-2028 # 20000144 <integer_number>
    4286:	81218613          	addi	a2,gp,-2030 # 20000142 <sign_number>
    428a:	6799                	lui	a5,0x6
    428c:	4ac78593          	addi	a1,a5,1196 # 64ac <_sbrk+0xb4>
    4290:	200007b7          	lui	a5,0x20000
    4294:	1ac78513          	addi	a0,a5,428 # 200001ac <tx_buffer>
    4298:	f6cfd0ef          	jal	ra,1a04 <Float_print_to_buf>
    429c:	200007b7          	lui	a5,0x20000
    42a0:	1ac78713          	addi	a4,a5,428 # 200001ac <tx_buffer>
    42a4:	4681                	li	a3,0
    42a6:	4605                	li	a2,1
    42a8:	45d1                	li	a1,20
    42aa:	4501                	li	a0,0
    42ac:	fb8fc0ef          	jal	ra,a64 <GMG12864_Decode_UTF8>
    42b0:	8401a503          	lw	a0,-1984(gp) # 20000170 <Humidity_SMA>
    42b4:	81818713          	addi	a4,gp,-2024 # 20000148 <fractional_number>
    42b8:	81418693          	addi	a3,gp,-2028 # 20000144 <integer_number>
    42bc:	81218613          	addi	a2,gp,-2030 # 20000142 <sign_number>
    42c0:	4585                	li	a1,1
    42c2:	e1afd0ef          	jal	ra,18dc <Float_transform>
    42c6:	81818713          	addi	a4,gp,-2024 # 20000148 <fractional_number>
    42ca:	81418693          	addi	a3,gp,-2028 # 20000144 <integer_number>
    42ce:	81218613          	addi	a2,gp,-2030 # 20000142 <sign_number>
    42d2:	6799                	lui	a5,0x6
    42d4:	4d478593          	addi	a1,a5,1236 # 64d4 <_sbrk+0xdc>
    42d8:	200007b7          	lui	a5,0x20000
    42dc:	1ac78513          	addi	a0,a5,428 # 200001ac <tx_buffer>
    42e0:	f24fd0ef          	jal	ra,1a04 <Float_print_to_buf>
    42e4:	200007b7          	lui	a5,0x20000
    42e8:	1ac78713          	addi	a4,a5,428 # 200001ac <tx_buffer>
    42ec:	4681                	li	a3,0
    42ee:	4605                	li	a2,1
    42f0:	45f9                	li	a1,30
    42f2:	4501                	li	a0,0
    42f4:	f70fc0ef          	jal	ra,a64 <GMG12864_Decode_UTF8>
    42f8:	200007b7          	lui	a5,0x20000
    42fc:	1347a783          	lw	a5,308(a5) # 20000134 <Backlight>
    4300:	863e                	mv	a2,a5
    4302:	6799                	lui	a5,0x6
    4304:	4f878593          	addi	a1,a5,1272 # 64f8 <_sbrk+0x100>
    4308:	200007b7          	lui	a5,0x20000
    430c:	1ac78513          	addi	a0,a5,428 # 200001ac <tx_buffer>
    4310:	68a010ef          	jal	ra,599a <siprintf>
    4314:	200007b7          	lui	a5,0x20000
    4318:	1ac78713          	addi	a4,a5,428 # 200001ac <tx_buffer>
    431c:	4681                	li	a3,0
    431e:	4605                	li	a2,1
    4320:	03200593          	li	a1,50
    4324:	4501                	li	a0,0
    4326:	f3efc0ef          	jal	ra,a64 <GMG12864_Decode_UTF8>
    432a:	a8dd                	j	4420 <Task2_GMG12864_output+0x204>
    432c:	80c1c603          	lbu	a2,-2036(gp) # 2000013c <size_array>
    4330:	8441c783          	lbu	a5,-1980(gp) # 20000174 <y_min>
    4334:	873e                	mv	a4,a5
    4336:	200007b7          	lui	a5,0x20000
    433a:	1327c783          	lbu	a5,306(a5) # 20000132 <y_max>
    433e:	86be                	mv	a3,a5
    4340:	4785                	li	a5,1
    4342:	c03e                	sw	a5,0(sp)
    4344:	4885                	li	a7,1
    4346:	4805                	li	a6,1
    4348:	87b6                	mv	a5,a3
    434a:	81118693          	addi	a3,gp,-2031 # 20000141 <array_is_full>
    434e:	cfc18593          	addi	a1,gp,-772 # 2000062c <arr>
    4352:	81018513          	addi	a0,gp,-2032 # 20000140 <_edata>
    4356:	ebffc0ef          	jal	ra,1214 <GMG12864_Generate_a_Graph>
    435a:	83c1a503          	lw	a0,-1988(gp) # 2000016c <Temperature_SMA>
    435e:	81818713          	addi	a4,gp,-2024 # 20000148 <fractional_number>
    4362:	81418693          	addi	a3,gp,-2028 # 20000144 <integer_number>
    4366:	81218613          	addi	a2,gp,-2030 # 20000142 <sign_number>
    436a:	4585                	li	a1,1
    436c:	d70fd0ef          	jal	ra,18dc <Float_transform>
    4370:	81818713          	addi	a4,gp,-2024 # 20000148 <fractional_number>
    4374:	81418693          	addi	a3,gp,-2028 # 20000144 <integer_number>
    4378:	81218613          	addi	a2,gp,-2030 # 20000142 <sign_number>
    437c:	6799                	lui	a5,0x6
    437e:	52078593          	addi	a1,a5,1312 # 6520 <_sbrk+0x128>
    4382:	200007b7          	lui	a5,0x20000
    4386:	1ac78513          	addi	a0,a5,428 # 200001ac <tx_buffer>
    438a:	e7afd0ef          	jal	ra,1a04 <Float_print_to_buf>
    438e:	200007b7          	lui	a5,0x20000
    4392:	1ac78713          	addi	a4,a5,428 # 200001ac <tx_buffer>
    4396:	4681                	li	a3,0
    4398:	4601                	li	a2,0
    439a:	03a00593          	li	a1,58
    439e:	4501                	li	a0,0
    43a0:	ec4fc0ef          	jal	ra,a64 <GMG12864_Decode_UTF8>
    43a4:	a8b5                	j	4420 <Task2_GMG12864_output+0x204>
    43a6:	80c1c603          	lbu	a2,-2036(gp) # 2000013c <size_array>
    43aa:	8471c783          	lbu	a5,-1977(gp) # 20000177 <y_min1>
    43ae:	873e                	mv	a4,a5
    43b0:	200007b7          	lui	a5,0x20000
    43b4:	1337c783          	lbu	a5,307(a5) # 20000133 <y_max1>
    43b8:	86be                	mv	a3,a5
    43ba:	4785                	li	a5,1
    43bc:	c03e                	sw	a5,0(sp)
    43be:	4885                	li	a7,1
    43c0:	4805                	li	a6,1
    43c2:	87b6                	mv	a5,a3
    43c4:	84618693          	addi	a3,gp,-1978 # 20000176 <array_is_full_1>
    43c8:	eb418593          	addi	a1,gp,-332 # 200007e4 <arr1>
    43cc:	84518513          	addi	a0,gp,-1979 # 20000175 <cnt1>
    43d0:	e45fc0ef          	jal	ra,1214 <GMG12864_Generate_a_Graph>
    43d4:	8401a503          	lw	a0,-1984(gp) # 20000170 <Humidity_SMA>
    43d8:	81818713          	addi	a4,gp,-2024 # 20000148 <fractional_number>
    43dc:	81418693          	addi	a3,gp,-2028 # 20000144 <integer_number>
    43e0:	81218613          	addi	a2,gp,-2030 # 20000142 <sign_number>
    43e4:	4585                	li	a1,1
    43e6:	cf6fd0ef          	jal	ra,18dc <Float_transform>
    43ea:	81818713          	addi	a4,gp,-2024 # 20000148 <fractional_number>
    43ee:	81418693          	addi	a3,gp,-2028 # 20000144 <integer_number>
    43f2:	81218613          	addi	a2,gp,-2030 # 20000142 <sign_number>
    43f6:	6799                	lui	a5,0x6
    43f8:	54878593          	addi	a1,a5,1352 # 6548 <_sbrk+0x150>
    43fc:	200007b7          	lui	a5,0x20000
    4400:	1ac78513          	addi	a0,a5,428 # 200001ac <tx_buffer>
    4404:	e00fd0ef          	jal	ra,1a04 <Float_print_to_buf>
    4408:	200007b7          	lui	a5,0x20000
    440c:	1ac78713          	addi	a4,a5,428 # 200001ac <tx_buffer>
    4410:	4681                	li	a3,0
    4412:	4601                	li	a2,0
    4414:	03a00593          	li	a1,58
    4418:	4501                	li	a0,0
    441a:	e4afc0ef          	jal	ra,a64 <GMG12864_Decode_UTF8>
    441e:	0001                	nop
    4420:	9b0fc0ef          	jal	ra,5d0 <GMG12864_Update>
    4424:	0001                	nop
    4426:	40f2                	lw	ra,28(sp)
    4428:	4462                	lw	s0,24(sp)
    442a:	6105                	addi	sp,sp,32
    442c:	8082                	ret

0000442e <SMA_FILTER_Get_Value>:
    442e:	7179                	addi	sp,sp,-48
    4430:	d606                	sw	ra,44(sp)
    4432:	d422                	sw	s0,40(sp)
    4434:	1800                	addi	s0,sp,48
    4436:	fca42e23          	sw	a0,-36(s0)
    443a:	fcb42c23          	sw	a1,-40(s0)
    443e:	00000793          	li	a5,0
    4442:	fef42623          	sw	a5,-20(s0)
    4446:	fdc42783          	lw	a5,-36(s0)
    444a:	07c78793          	addi	a5,a5,124
    444e:	fd842703          	lw	a4,-40(s0)
    4452:	4318                	lw	a4,0(a4)
    4454:	c398                	sw	a4,0(a5)
    4456:	fe0405a3          	sb	zero,-21(s0)
    445a:	a025                	j	4482 <SMA_FILTER_Get_Value+0x54>
    445c:	feb44783          	lbu	a5,-21(s0)
    4460:	078a                	slli	a5,a5,0x2
    4462:	fdc42703          	lw	a4,-36(s0)
    4466:	97ba                	add	a5,a5,a4
    4468:	439c                	lw	a5,0(a5)
    446a:	85be                	mv	a1,a5
    446c:	fec42503          	lw	a0,-20(s0)
    4470:	232d                	jal	499a <__addsf3>
    4472:	87aa                	mv	a5,a0
    4474:	fef42623          	sw	a5,-20(s0)
    4478:	feb44783          	lbu	a5,-21(s0)
    447c:	0785                	addi	a5,a5,1
    447e:	fef405a3          	sb	a5,-21(s0)
    4482:	feb44703          	lbu	a4,-21(s0)
    4486:	47fd                	li	a5,31
    4488:	fce7fae3          	bgeu	a5,a4,445c <SMA_FILTER_Get_Value+0x2e>
    448c:	6799                	lui	a5,0x6
    448e:	5807a583          	lw	a1,1408(a5) # 6580 <_sbrk+0x188>
    4492:	fec42503          	lw	a0,-20(s0)
    4496:	06f000ef          	jal	ra,4d04 <__divsf3>
    449a:	87aa                	mv	a5,a0
    449c:	fef42623          	sw	a5,-20(s0)
    44a0:	fe040523          	sb	zero,-22(s0)
    44a4:	a02d                	j	44ce <SMA_FILTER_Get_Value+0xa0>
    44a6:	fea44783          	lbu	a5,-22(s0)
    44aa:	0785                	addi	a5,a5,1
    44ac:	078a                	slli	a5,a5,0x2
    44ae:	fdc42703          	lw	a4,-36(s0)
    44b2:	973e                	add	a4,a4,a5
    44b4:	fea44783          	lbu	a5,-22(s0)
    44b8:	078a                	slli	a5,a5,0x2
    44ba:	fdc42683          	lw	a3,-36(s0)
    44be:	97b6                	add	a5,a5,a3
    44c0:	4318                	lw	a4,0(a4)
    44c2:	c398                	sw	a4,0(a5)
    44c4:	fea44783          	lbu	a5,-22(s0)
    44c8:	0785                	addi	a5,a5,1
    44ca:	fef40523          	sb	a5,-22(s0)
    44ce:	fea44703          	lbu	a4,-22(s0)
    44d2:	47fd                	li	a5,31
    44d4:	fce7f9e3          	bgeu	a5,a4,44a6 <SMA_FILTER_Get_Value+0x78>
    44d8:	fec42783          	lw	a5,-20(s0)
    44dc:	853e                	mv	a0,a5
    44de:	50b2                	lw	ra,44(sp)
    44e0:	5422                	lw	s0,40(sp)
    44e2:	6145                	addi	sp,sp,48
    44e4:	8082                	ret

000044e6 <Button0_Callback>:
    44e6:	1141                	addi	sp,sp,-16
    44e8:	c622                	sw	s0,12(sp)
    44ea:	0800                	addi	s0,sp,16
    44ec:	200007b7          	lui	a5,0x20000
    44f0:	1347a783          	lw	a5,308(a5) # 20000134 <Backlight>
    44f4:	fff78713          	addi	a4,a5,-1
    44f8:	200007b7          	lui	a5,0x20000
    44fc:	12e7aa23          	sw	a4,308(a5) # 20000134 <Backlight>
    4500:	200007b7          	lui	a5,0x20000
    4504:	1347a783          	lw	a5,308(a5) # 20000134 <Backlight>
    4508:	00f04663          	bgtz	a5,4514 <Button0_Callback+0x2e>
    450c:	200007b7          	lui	a5,0x20000
    4510:	1207aa23          	sw	zero,308(a5) # 20000134 <Backlight>
    4514:	200007b7          	lui	a5,0x20000
    4518:	1347a703          	lw	a4,308(a5) # 20000134 <Backlight>
    451c:	0ff77593          	andi	a1,a4,255
    4520:	8591c683          	lbu	a3,-1959(gp) # 20000189 <Flash_data+0x1>
    4524:	8a81                	andi	a3,a3,0
    4526:	8636                	mv	a2,a3
    4528:	86ae                	mv	a3,a1
    452a:	8ed1                	or	a3,a3,a2
    452c:	84d18ca3          	sb	a3,-1959(gp) # 20000189 <Flash_data+0x1>
    4530:	00875693          	srli	a3,a4,0x8
    4534:	0ff6f593          	andi	a1,a3,255
    4538:	85a1c683          	lbu	a3,-1958(gp) # 2000018a <Flash_data+0x2>
    453c:	8a81                	andi	a3,a3,0
    453e:	8636                	mv	a2,a3
    4540:	86ae                	mv	a3,a1
    4542:	8ed1                	or	a3,a3,a2
    4544:	84d18d23          	sb	a3,-1958(gp) # 2000018a <Flash_data+0x2>
    4548:	01075693          	srli	a3,a4,0x10
    454c:	0ff6f593          	andi	a1,a3,255
    4550:	85b1c683          	lbu	a3,-1957(gp) # 2000018b <Flash_data+0x3>
    4554:	8a81                	andi	a3,a3,0
    4556:	8636                	mv	a2,a3
    4558:	86ae                	mv	a3,a1
    455a:	8ed1                	or	a3,a3,a2
    455c:	84d18da3          	sb	a3,-1957(gp) # 2000018b <Flash_data+0x3>
    4560:	01875613          	srli	a2,a4,0x18
    4564:	85c1c703          	lbu	a4,-1956(gp) # 2000018c <Flash_data+0x4>
    4568:	8b01                	andi	a4,a4,0
    456a:	86ba                	mv	a3,a4
    456c:	8732                	mv	a4,a2
    456e:	8f55                	or	a4,a4,a3
    4570:	84e18e23          	sb	a4,-1956(gp) # 2000018c <Flash_data+0x4>
    4574:	200007b7          	lui	a5,0x20000
    4578:	1347a683          	lw	a3,308(a5) # 20000134 <Backlight>
    457c:	400137b7          	lui	a5,0x40013
    4580:	c0078793          	addi	a5,a5,-1024 # 40012c00 <_eusrstack+0x2000dc00>
    4584:	20000737          	lui	a4,0x20000
    4588:	0686                	slli	a3,a3,0x1
    458a:	00070713          	mv	a4,a4
    458e:	9736                	add	a4,a4,a3
    4590:	231a                	lhu	a4,0(a4)
    4592:	bbda                	sh	a4,52(a5)
    4594:	4705                	li	a4,1
    4596:	84e18a23          	sb	a4,-1964(gp) # 20000184 <write_flash>
    459a:	3e800713          	li	a4,1000
    459e:	84e1a823          	sw	a4,-1968(gp) # 20000180 <TIMER_wait_before_write_flash>
    45a2:	0001                	nop
    45a4:	4432                	lw	s0,12(sp)
    45a6:	0141                	addi	sp,sp,16
    45a8:	8082                	ret

000045aa <Button1_Callback>:
    45aa:	1141                	addi	sp,sp,-16
    45ac:	c622                	sw	s0,12(sp)
    45ae:	0800                	addi	s0,sp,16
    45b0:	200007b7          	lui	a5,0x20000
    45b4:	1347a783          	lw	a5,308(a5) # 20000134 <Backlight>
    45b8:	00178713          	addi	a4,a5,1
    45bc:	200007b7          	lui	a5,0x20000
    45c0:	12e7aa23          	sw	a4,308(a5) # 20000134 <Backlight>
    45c4:	200007b7          	lui	a5,0x20000
    45c8:	1347a703          	lw	a4,308(a5) # 20000134 <Backlight>
    45cc:	06300793          	li	a5,99
    45d0:	00e7d863          	bge	a5,a4,45e0 <Button1_Callback+0x36>
    45d4:	200007b7          	lui	a5,0x20000
    45d8:	06400713          	li	a4,100
    45dc:	12e7aa23          	sw	a4,308(a5) # 20000134 <Backlight>
    45e0:	200007b7          	lui	a5,0x20000
    45e4:	1347a703          	lw	a4,308(a5) # 20000134 <Backlight>
    45e8:	0ff77593          	andi	a1,a4,255
    45ec:	8591c683          	lbu	a3,-1959(gp) # 20000189 <Flash_data+0x1>
    45f0:	8a81                	andi	a3,a3,0
    45f2:	8636                	mv	a2,a3
    45f4:	86ae                	mv	a3,a1
    45f6:	8ed1                	or	a3,a3,a2
    45f8:	84d18ca3          	sb	a3,-1959(gp) # 20000189 <Flash_data+0x1>
    45fc:	00875693          	srli	a3,a4,0x8
    4600:	0ff6f593          	andi	a1,a3,255
    4604:	85a1c683          	lbu	a3,-1958(gp) # 2000018a <Flash_data+0x2>
    4608:	8a81                	andi	a3,a3,0
    460a:	8636                	mv	a2,a3
    460c:	86ae                	mv	a3,a1
    460e:	8ed1                	or	a3,a3,a2
    4610:	84d18d23          	sb	a3,-1958(gp) # 2000018a <Flash_data+0x2>
    4614:	01075693          	srli	a3,a4,0x10
    4618:	0ff6f593          	andi	a1,a3,255
    461c:	85b1c683          	lbu	a3,-1957(gp) # 2000018b <Flash_data+0x3>
    4620:	8a81                	andi	a3,a3,0
    4622:	8636                	mv	a2,a3
    4624:	86ae                	mv	a3,a1
    4626:	8ed1                	or	a3,a3,a2
    4628:	84d18da3          	sb	a3,-1957(gp) # 2000018b <Flash_data+0x3>
    462c:	01875613          	srli	a2,a4,0x18
    4630:	85c1c703          	lbu	a4,-1956(gp) # 2000018c <Flash_data+0x4>
    4634:	8b01                	andi	a4,a4,0
    4636:	86ba                	mv	a3,a4
    4638:	8732                	mv	a4,a2
    463a:	8f55                	or	a4,a4,a3
    463c:	84e18e23          	sb	a4,-1956(gp) # 2000018c <Flash_data+0x4>
    4640:	200007b7          	lui	a5,0x20000
    4644:	1347a683          	lw	a3,308(a5) # 20000134 <Backlight>
    4648:	400137b7          	lui	a5,0x40013
    464c:	c0078793          	addi	a5,a5,-1024 # 40012c00 <_eusrstack+0x2000dc00>
    4650:	20000737          	lui	a4,0x20000
    4654:	0686                	slli	a3,a3,0x1
    4656:	00070713          	mv	a4,a4
    465a:	9736                	add	a4,a4,a3
    465c:	231a                	lhu	a4,0(a4)
    465e:	bbda                	sh	a4,52(a5)
    4660:	4705                	li	a4,1
    4662:	84e18a23          	sb	a4,-1964(gp) # 20000184 <write_flash>
    4666:	3e800713          	li	a4,1000
    466a:	84e1a823          	sw	a4,-1968(gp) # 20000180 <TIMER_wait_before_write_flash>
    466e:	0001                	nop
    4670:	4432                	lw	s0,12(sp)
    4672:	0141                	addi	sp,sp,16
    4674:	8082                	ret

00004676 <Button2_Callback>:
    4676:	1141                	addi	sp,sp,-16
    4678:	c622                	sw	s0,12(sp)
    467a:	0800                	addi	s0,sp,16
    467c:	84818783          	lb	a5,-1976(gp) # 20000178 <Graph_number>
    4680:	0ff7f793          	andi	a5,a5,255
    4684:	17fd                	addi	a5,a5,-1
    4686:	0ff7f793          	andi	a5,a5,255
    468a:	01879713          	slli	a4,a5,0x18
    468e:	8761                	srai	a4,a4,0x18
    4690:	84e18423          	sb	a4,-1976(gp) # 20000178 <Graph_number>
    4694:	84818783          	lb	a5,-1976(gp) # 20000178 <Graph_number>
    4698:	00f04463          	bgtz	a5,46a0 <Button2_Callback+0x2a>
    469c:	84018423          	sb	zero,-1976(gp) # 20000178 <Graph_number>
    46a0:	84818703          	lb	a4,-1976(gp) # 20000178 <Graph_number>
    46a4:	84e18c23          	sb	a4,-1960(gp) # 20000188 <Flash_data>
    46a8:	4705                	li	a4,1
    46aa:	84e18a23          	sb	a4,-1964(gp) # 20000184 <write_flash>
    46ae:	3e800713          	li	a4,1000
    46b2:	84e1a823          	sw	a4,-1968(gp) # 20000180 <TIMER_wait_before_write_flash>
    46b6:	0001                	nop
    46b8:	4432                	lw	s0,12(sp)
    46ba:	0141                	addi	sp,sp,16
    46bc:	8082                	ret

000046be <Button3_Callback>:
    46be:	1141                	addi	sp,sp,-16
    46c0:	c622                	sw	s0,12(sp)
    46c2:	0800                	addi	s0,sp,16
    46c4:	84818783          	lb	a5,-1976(gp) # 20000178 <Graph_number>
    46c8:	0ff7f793          	andi	a5,a5,255
    46cc:	0785                	addi	a5,a5,1
    46ce:	0ff7f793          	andi	a5,a5,255
    46d2:	01879713          	slli	a4,a5,0x18
    46d6:	8761                	srai	a4,a4,0x18
    46d8:	84e18423          	sb	a4,-1976(gp) # 20000178 <Graph_number>
    46dc:	84818703          	lb	a4,-1976(gp) # 20000178 <Graph_number>
    46e0:	4785                	li	a5,1
    46e2:	00e7d563          	bge	a5,a4,46ec <Button3_Callback+0x2e>
    46e6:	4709                	li	a4,2
    46e8:	84e18423          	sb	a4,-1976(gp) # 20000178 <Graph_number>
    46ec:	84818703          	lb	a4,-1976(gp) # 20000178 <Graph_number>
    46f0:	84e18c23          	sb	a4,-1960(gp) # 20000188 <Flash_data>
    46f4:	4705                	li	a4,1
    46f6:	84e18a23          	sb	a4,-1964(gp) # 20000184 <write_flash>
    46fa:	3e800713          	li	a4,1000
    46fe:	84e1a823          	sw	a4,-1968(gp) # 20000180 <TIMER_wait_before_write_flash>
    4702:	0001                	nop
    4704:	4432                	lw	s0,12(sp)
    4706:	0141                	addi	sp,sp,16
    4708:	8082                	ret

0000470a <TIM4_IRQHandler>:
    470a:	711d                	addi	sp,sp,-96
    470c:	ce86                	sw	ra,92(sp)
    470e:	cc96                	sw	t0,88(sp)
    4710:	ca9a                	sw	t1,84(sp)
    4712:	c89e                	sw	t2,80(sp)
    4714:	c6a2                	sw	s0,76(sp)
    4716:	c4aa                	sw	a0,72(sp)
    4718:	c2ae                	sw	a1,68(sp)
    471a:	c0b2                	sw	a2,64(sp)
    471c:	de36                	sw	a3,60(sp)
    471e:	dc3a                	sw	a4,56(sp)
    4720:	da3e                	sw	a5,52(sp)
    4722:	d842                	sw	a6,48(sp)
    4724:	d646                	sw	a7,44(sp)
    4726:	d472                	sw	t3,40(sp)
    4728:	d276                	sw	t4,36(sp)
    472a:	d07a                	sw	t5,32(sp)
    472c:	ce7e                	sw	t6,28(sp)
    472e:	1080                	addi	s0,sp,96
    4730:	400017b7          	lui	a5,0x40001
    4734:	80078793          	addi	a5,a5,-2048 # 40000800 <_eusrstack+0x1fffb800>
    4738:	2b9e                	lhu	a5,16(a5)
    473a:	07c2                	slli	a5,a5,0x10
    473c:	83c1                	srli	a5,a5,0x10
    473e:	8b85                	andi	a5,a5,1
    4740:	c38d                	beqz	a5,4762 <TIM4_IRQHandler+0x58>
    4742:	400017b7          	lui	a5,0x40001
    4746:	80078793          	addi	a5,a5,-2048 # 40000800 <_eusrstack+0x1fffb800>
    474a:	2b9e                	lhu	a5,16(a5)
    474c:	01079713          	slli	a4,a5,0x10
    4750:	8341                	srli	a4,a4,0x10
    4752:	400017b7          	lui	a5,0x40001
    4756:	80078793          	addi	a5,a5,-2048 # 40000800 <_eusrstack+0x1fffb800>
    475a:	9b79                	andi	a4,a4,-2
    475c:	0742                	slli	a4,a4,0x10
    475e:	8341                	srli	a4,a4,0x10
    4760:	ab9a                	sh	a4,16(a5)
    4762:	8441c783          	lbu	a5,-1980(gp) # 20000174 <y_min>
    4766:	873e                	mv	a4,a5
    4768:	200007b7          	lui	a5,0x20000
    476c:	1327c783          	lbu	a5,306(a5) # 20000132 <y_max>
    4770:	86be                	mv	a3,a5
    4772:	83c1a783          	lw	a5,-1988(gp) # 2000016c <Temperature_SMA>
    4776:	863e                	mv	a2,a5
    4778:	85b6                	mv	a1,a3
    477a:	853a                	mv	a0,a4
    477c:	fbafc0ef          	jal	ra,f36 <GMG12864_Value_for_Plot>
    4780:	87aa                	mv	a5,a0
    4782:	faf407a3          	sb	a5,-81(s0)
    4786:	80c1c603          	lbu	a2,-2036(gp) # 2000013c <size_array>
    478a:	faf44783          	lbu	a5,-81(s0)
    478e:	873e                	mv	a4,a5
    4790:	81118693          	addi	a3,gp,-2031 # 20000141 <array_is_full>
    4794:	cfc18593          	addi	a1,gp,-772 # 2000062c <arr>
    4798:	81018513          	addi	a0,gp,-2032 # 20000140 <_edata>
    479c:	90ffc0ef          	jal	ra,10aa <GMG12864_Fill_the_array_Plot>
    47a0:	8471c783          	lbu	a5,-1977(gp) # 20000177 <y_min1>
    47a4:	873e                	mv	a4,a5
    47a6:	200007b7          	lui	a5,0x20000
    47aa:	1337c783          	lbu	a5,307(a5) # 20000133 <y_max1>
    47ae:	86be                	mv	a3,a5
    47b0:	8401a783          	lw	a5,-1984(gp) # 20000170 <Humidity_SMA>
    47b4:	863e                	mv	a2,a5
    47b6:	85b6                	mv	a1,a3
    47b8:	853a                	mv	a0,a4
    47ba:	f7cfc0ef          	jal	ra,f36 <GMG12864_Value_for_Plot>
    47be:	87aa                	mv	a5,a0
    47c0:	faf40723          	sb	a5,-82(s0)
    47c4:	80c1c603          	lbu	a2,-2036(gp) # 2000013c <size_array>
    47c8:	fae44783          	lbu	a5,-82(s0)
    47cc:	873e                	mv	a4,a5
    47ce:	84618693          	addi	a3,gp,-1978 # 20000176 <array_is_full_1>
    47d2:	eb418593          	addi	a1,gp,-332 # 200007e4 <arr1>
    47d6:	84518513          	addi	a0,gp,-1979 # 20000175 <cnt1>
    47da:	8d1fc0ef          	jal	ra,10aa <GMG12864_Fill_the_array_Plot>
    47de:	0001                	nop
    47e0:	40f6                	lw	ra,92(sp)
    47e2:	42e6                	lw	t0,88(sp)
    47e4:	4356                	lw	t1,84(sp)
    47e6:	43c6                	lw	t2,80(sp)
    47e8:	4436                	lw	s0,76(sp)
    47ea:	4526                	lw	a0,72(sp)
    47ec:	4596                	lw	a1,68(sp)
    47ee:	4606                	lw	a2,64(sp)
    47f0:	56f2                	lw	a3,60(sp)
    47f2:	5762                	lw	a4,56(sp)
    47f4:	57d2                	lw	a5,52(sp)
    47f6:	5842                	lw	a6,48(sp)
    47f8:	58b2                	lw	a7,44(sp)
    47fa:	5e22                	lw	t3,40(sp)
    47fc:	5e92                	lw	t4,36(sp)
    47fe:	5f02                	lw	t5,32(sp)
    4800:	4ff2                	lw	t6,28(sp)
    4802:	6125                	addi	sp,sp,96
    4804:	30200073          	mret

00004808 <main>:
    4808:	1141                	addi	sp,sp,-16
    480a:	c606                	sw	ra,12(sp)
    480c:	c422                	sw	s0,8(sp)
    480e:	0800                	addi	s0,sp,16
    4810:	89ffd0ef          	jal	ra,20ae <RVMSIS_Debug_init>
    4814:	90bfd0ef          	jal	ra,211e <RVMSIS_RCC_SystemClock_144MHz>
    4818:	aa1fd0ef          	jal	ra,22b8 <RVMSIS_SysTick_Timer_init>
    481c:	ee2fe0ef          	jal	ra,2efe <RVMSIS_I2C1_Init>
    4820:	b3efd0ef          	jal	ra,1b5e <HDC1080_init>
    4824:	f4cff0ef          	jal	ra,3f70 <GPIO_Initialization>
    4828:	2049                	jal	48aa <ButtonsInit>
    482a:	b40fe0ef          	jal	ra,2b6a <RVMSIS_TIM3_init>
    482e:	816fe0ef          	jal	ra,2844 <RVMSIS_TIM1_init>
    4832:	9d6fe0ef          	jal	ra,2a08 <RVMSIS_TIM1_PWM_CHANNEL1_init>
    4836:	82eff0ef          	jal	ra,3864 <RVMSIS_SPI1_init>
    483a:	fd4ff0ef          	jal	ra,400e <Flash_init>
    483e:	b9bfb0ef          	jal	ra,3d8 <GMG12864_Init>
    4842:	caafe0ef          	jal	ra,2cec <RVMSIS_TIM4_init>
    4846:	9a3fb0ef          	jal	ra,1e8 <GMG12864_logo_demonstration>
    484a:	8341c783          	lbu	a5,-1996(gp) # 20000164 <Task1>
    484e:	cf91                	beqz	a5,486a <main+0x62>
    4850:	8381a783          	lw	a5,-1992(gp) # 20000168 <I2C1_Polling_Timer>
    4854:	eb99                	bnez	a5,486a <main+0x62>
    4856:	899ff0ef          	jal	ra,40ee <Task1_Pooling_HDC1080>
    485a:	03200593          	li	a1,50
    485e:	83818513          	addi	a0,gp,-1992 # 20000168 <I2C1_Polling_Timer>
    4862:	b7efd0ef          	jal	ra,1be0 <Software_timer>
    4866:	82018a23          	sb	zero,-1996(gp) # 20000164 <Task1>
    486a:	8491c783          	lbu	a5,-1975(gp) # 20000179 <Task2>
    486e:	cf91                	beqz	a5,488a <main+0x82>
    4870:	84c1a783          	lw	a5,-1972(gp) # 2000017c <GMG12864_Timer>
    4874:	eb99                	bnez	a5,488a <main+0x82>
    4876:	9a7ff0ef          	jal	ra,421c <Task2_GMG12864_output>
    487a:	06400593          	li	a1,100
    487e:	84c18513          	addi	a0,gp,-1972 # 2000017c <GMG12864_Timer>
    4882:	b5efd0ef          	jal	ra,1be0 <Software_timer>
    4886:	840184a3          	sb	zero,-1975(gp) # 20000179 <Task2>
    488a:	8501a783          	lw	a5,-1968(gp) # 20000180 <TIMER_wait_before_write_flash>
    488e:	ffd5                	bnez	a5,484a <main+0x42>
    4890:	8541c783          	lbu	a5,-1964(gp) # 20000184 <write_flash>
    4894:	dbdd                	beqz	a5,484a <main+0x42>
    4896:	84018a23          	sb	zero,-1964(gp) # 20000184 <write_flash>
    489a:	4615                	li	a2,5
    489c:	85818593          	addi	a1,gp,-1960 # 20000188 <Flash_data>
    48a0:	0800f537          	lui	a0,0x800f
    48a4:	c8cff0ef          	jal	ra,3d30 <RVMSIS_FLASH_Page_write>
    48a8:	b74d                	j	484a <main+0x42>

000048aa <ButtonsInit>:
    48aa:	1141                	addi	sp,sp,-16
    48ac:	c622                	sw	s0,12(sp)
    48ae:	0800                	addi	s0,sp,16
    48b0:	86018023          	sb	zero,-1952(gp) # 20000190 <Button0>
    48b4:	86018793          	addi	a5,gp,-1952 # 20000190 <Button0>
    48b8:	000780a3          	sb	zero,1(a5)
    48bc:	86018793          	addi	a5,gp,-1952 # 20000190 <Button0>
    48c0:	00078123          	sb	zero,2(a5)
    48c4:	86018223          	sb	zero,-1948(gp) # 20000194 <Button1>
    48c8:	86418793          	addi	a5,gp,-1948 # 20000194 <Button1>
    48cc:	000780a3          	sb	zero,1(a5)
    48d0:	86418793          	addi	a5,gp,-1948 # 20000194 <Button1>
    48d4:	00078123          	sb	zero,2(a5)
    48d8:	86018423          	sb	zero,-1944(gp) # 20000198 <Button2>
    48dc:	86818793          	addi	a5,gp,-1944 # 20000198 <Button2>
    48e0:	000780a3          	sb	zero,1(a5)
    48e4:	86818793          	addi	a5,gp,-1944 # 20000198 <Button2>
    48e8:	00078123          	sb	zero,2(a5)
    48ec:	86018623          	sb	zero,-1940(gp) # 2000019c <Button3>
    48f0:	86c18793          	addi	a5,gp,-1940 # 2000019c <Button3>
    48f4:	000780a3          	sb	zero,1(a5)
    48f8:	86c18793          	addi	a5,gp,-1940 # 2000019c <Button3>
    48fc:	00078123          	sb	zero,2(a5)
    4900:	0001                	nop
    4902:	4432                	lw	s0,12(sp)
    4904:	0141                	addi	sp,sp,16
    4906:	8082                	ret

00004908 <ButtonAction>:
    4908:	7179                	addi	sp,sp,-48
    490a:	d606                	sw	ra,44(sp)
    490c:	d422                	sw	s0,40(sp)
    490e:	1800                	addi	s0,sp,48
    4910:	fea42623          	sw	a0,-20(s0)
    4914:	feb42423          	sw	a1,-24(s0)
    4918:	fec42223          	sw	a2,-28(s0)
    491c:	87b6                	mv	a5,a3
    491e:	fce42e23          	sw	a4,-36(s0)
    4922:	fef401a3          	sb	a5,-29(s0)
    4926:	fe344703          	lbu	a4,-29(s0)
    492a:	fe842783          	lw	a5,-24(s0)
    492e:	a398                	sb	a4,0(a5)
    4930:	fe842783          	lw	a5,-24(s0)
    4934:	239c                	lbu	a5,0(a5)
    4936:	ef89                	bnez	a5,4950 <ButtonAction+0x48>
    4938:	fec42783          	lw	a5,-20(s0)
    493c:	239c                	lbu	a5,0(a5)
    493e:	cb89                	beqz	a5,4950 <ButtonAction+0x48>
    4940:	fdc42783          	lw	a5,-36(s0)
    4944:	9782                	jalr	a5
    4946:	fe442783          	lw	a5,-28(s0)
    494a:	00078023          	sb	zero,0(a5)
    494e:	a81d                	j	4984 <ButtonAction+0x7c>
    4950:	fe842783          	lw	a5,-24(s0)
    4954:	239c                	lbu	a5,0(a5)
    4956:	e79d                	bnez	a5,4984 <ButtonAction+0x7c>
    4958:	fe442783          	lw	a5,-28(s0)
    495c:	239c                	lbu	a5,0(a5)
    495e:	0785                	addi	a5,a5,1
    4960:	0ff7f713          	andi	a4,a5,255
    4964:	fe442783          	lw	a5,-28(s0)
    4968:	a398                	sb	a4,0(a5)
    496a:	fe442783          	lw	a5,-28(s0)
    496e:	2398                	lbu	a4,0(a5)
    4970:	47a5                	li	a5,9
    4972:	00e7f963          	bgeu	a5,a4,4984 <ButtonAction+0x7c>
    4976:	fe442783          	lw	a5,-28(s0)
    497a:	4729                	li	a4,10
    497c:	a398                	sb	a4,0(a5)
    497e:	fdc42783          	lw	a5,-36(s0)
    4982:	9782                	jalr	a5
    4984:	fe842783          	lw	a5,-24(s0)
    4988:	2398                	lbu	a4,0(a5)
    498a:	fec42783          	lw	a5,-20(s0)
    498e:	a398                	sb	a4,0(a5)
    4990:	0001                	nop
    4992:	50b2                	lw	ra,44(sp)
    4994:	5422                	lw	s0,40(sp)
    4996:	6145                	addi	sp,sp,48
    4998:	8082                	ret

0000499a <__addsf3>:
    499a:	1141                	addi	sp,sp,-16
    499c:	00800737          	lui	a4,0x800
    49a0:	177d                	addi	a4,a4,-1
    49a2:	0175d813          	srli	a6,a1,0x17
    49a6:	c226                	sw	s1,4(sp)
    49a8:	01755493          	srli	s1,a0,0x17
    49ac:	00a77333          	and	t1,a4,a0
    49b0:	0ff4f493          	andi	s1,s1,255
    49b4:	00b776b3          	and	a3,a4,a1
    49b8:	c04a                	sw	s2,0(sp)
    49ba:	0ff87813          	andi	a6,a6,255
    49be:	01f55913          	srli	s2,a0,0x1f
    49c2:	c606                	sw	ra,12(sp)
    49c4:	c422                	sw	s0,8(sp)
    49c6:	81fd                	srli	a1,a1,0x1f
    49c8:	879a                	mv	a5,t1
    49ca:	8526                	mv	a0,s1
    49cc:	864a                	mv	a2,s2
    49ce:	00331e13          	slli	t3,t1,0x3
    49d2:	00369e93          	slli	t4,a3,0x3
    49d6:	410488b3          	sub	a7,s1,a6
    49da:	0eb90a63          	beq	s2,a1,4ace <__addsf3+0x134>
    49de:	0d105063          	blez	a7,4a9e <__addsf3+0x104>
    49e2:	14080463          	beqz	a6,4b2a <__addsf3+0x190>
    49e6:	0ff00793          	li	a5,255
    49ea:	14f48b63          	beq	s1,a5,4b40 <__addsf3+0x1a6>
    49ee:	040007b7          	lui	a5,0x4000
    49f2:	00feeeb3          	or	t4,t4,a5
    49f6:	47ed                	li	a5,27
    49f8:	2917c163          	blt	a5,a7,4c7a <__addsf3+0x2e0>
    49fc:	02000793          	li	a5,32
    4a00:	411787b3          	sub	a5,a5,a7
    4a04:	00fe97b3          	sll	a5,t4,a5
    4a08:	011ed8b3          	srl	a7,t4,a7
    4a0c:	00f037b3          	snez	a5,a5
    4a10:	00f8e7b3          	or	a5,a7,a5
    4a14:	40fe07b3          	sub	a5,t3,a5
    4a18:	00579713          	slli	a4,a5,0x5
    4a1c:	18075e63          	bgez	a4,4bb8 <__addsf3+0x21e>
    4a20:	04000437          	lui	s0,0x4000
    4a24:	147d                	addi	s0,s0,-1
    4a26:	8c7d                	and	s0,s0,a5
    4a28:	8522                	mv	a0,s0
    4a2a:	703000ef          	jal	ra,592c <__clzsi2>
    4a2e:	156d                	addi	a0,a0,-5
    4a30:	00a417b3          	sll	a5,s0,a0
    4a34:	1a954863          	blt	a0,s1,4be4 <__addsf3+0x24a>
    4a38:	8d05                	sub	a0,a0,s1
    4a3a:	00150413          	addi	s0,a0,1 # 800f001 <_data_lma+0x80081f9>
    4a3e:	02000713          	li	a4,32
    4a42:	8f01                	sub	a4,a4,s0
    4a44:	00e79733          	sll	a4,a5,a4
    4a48:	00e03733          	snez	a4,a4
    4a4c:	0087d7b3          	srl	a5,a5,s0
    4a50:	8fd9                	or	a5,a5,a4
    4a52:	4481                	li	s1,0
    4a54:	0077f713          	andi	a4,a5,7
    4a58:	c719                	beqz	a4,4a66 <__addsf3+0xcc>
    4a5a:	00f7f713          	andi	a4,a5,15
    4a5e:	4691                	li	a3,4
    4a60:	00d70363          	beq	a4,a3,4a66 <__addsf3+0xcc>
    4a64:	0791                	addi	a5,a5,4
    4a66:	00579713          	slli	a4,a5,0x5
    4a6a:	14075b63          	bgez	a4,4bc0 <__addsf3+0x226>
    4a6e:	0485                	addi	s1,s1,1
    4a70:	0ff00713          	li	a4,255
    4a74:	864a                	mv	a2,s2
    4a76:	16e48363          	beq	s1,a4,4bdc <__addsf3+0x242>
    4a7a:	079a                	slli	a5,a5,0x6
    4a7c:	83a5                	srli	a5,a5,0x9
    4a7e:	0ff4f513          	andi	a0,s1,255
    4a82:	40b2                	lw	ra,12(sp)
    4a84:	4422                	lw	s0,8(sp)
    4a86:	07a6                	slli	a5,a5,0x9
    4a88:	01751493          	slli	s1,a0,0x17
    4a8c:	0097d513          	srli	a0,a5,0x9
    4a90:	8d45                	or	a0,a0,s1
    4a92:	067e                	slli	a2,a2,0x1f
    4a94:	4492                	lw	s1,4(sp)
    4a96:	4902                	lw	s2,0(sp)
    4a98:	8d51                	or	a0,a0,a2
    4a9a:	0141                	addi	sp,sp,16
    4a9c:	8082                	ret
    4a9e:	0a089963          	bnez	a7,4b50 <__addsf3+0x1b6>
    4aa2:	00148713          	addi	a4,s1,1
    4aa6:	0fe77713          	andi	a4,a4,254
    4aaa:	14071763          	bnez	a4,4bf8 <__addsf3+0x25e>
    4aae:	22049063          	bnez	s1,4cce <__addsf3+0x334>
    4ab2:	1e0e0d63          	beqz	t3,4cac <__addsf3+0x312>
    4ab6:	fc0e86e3          	beqz	t4,4a82 <__addsf3+0xe8>
    4aba:	41de07b3          	sub	a5,t3,t4
    4abe:	00579713          	slli	a4,a5,0x5
    4ac2:	22075063          	bgez	a4,4ce2 <__addsf3+0x348>
    4ac6:	41ce87b3          	sub	a5,t4,t3
    4aca:	892e                	mv	s2,a1
    4acc:	b761                	j	4a54 <__addsf3+0xba>
    4ace:	0b105c63          	blez	a7,4b86 <__addsf3+0x1ec>
    4ad2:	08080e63          	beqz	a6,4b6e <__addsf3+0x1d4>
    4ad6:	0ff00793          	li	a5,255
    4ada:	06f48363          	beq	s1,a5,4b40 <__addsf3+0x1a6>
    4ade:	040007b7          	lui	a5,0x4000
    4ae2:	00feeeb3          	or	t4,t4,a5
    4ae6:	47ed                	li	a5,27
    4ae8:	1f17c963          	blt	a5,a7,4cda <__addsf3+0x340>
    4aec:	02000793          	li	a5,32
    4af0:	411787b3          	sub	a5,a5,a7
    4af4:	00fe97b3          	sll	a5,t4,a5
    4af8:	011ed8b3          	srl	a7,t4,a7
    4afc:	00f037b3          	snez	a5,a5
    4b00:	00f8e7b3          	or	a5,a7,a5
    4b04:	97f2                	add	a5,a5,t3
    4b06:	00579713          	slli	a4,a5,0x5
    4b0a:	0a075763          	bgez	a4,4bb8 <__addsf3+0x21e>
    4b0e:	0485                	addi	s1,s1,1
    4b10:	0ff00713          	li	a4,255
    4b14:	0ce48463          	beq	s1,a4,4bdc <__addsf3+0x242>
    4b18:	7e0006b7          	lui	a3,0x7e000
    4b1c:	0017d713          	srli	a4,a5,0x1
    4b20:	16fd                	addi	a3,a3,-1
    4b22:	8b85                	andi	a5,a5,1
    4b24:	8f75                	and	a4,a4,a3
    4b26:	8fd9                	or	a5,a5,a4
    4b28:	b735                	j	4a54 <__addsf3+0xba>
    4b2a:	080e8d63          	beqz	t4,4bc4 <__addsf3+0x22a>
    4b2e:	18fd                	addi	a7,a7,-1
    4b30:	41de07b3          	sub	a5,t3,t4
    4b34:	ee0882e3          	beqz	a7,4a18 <__addsf3+0x7e>
    4b38:	0ff00793          	li	a5,255
    4b3c:	eaf49de3          	bne	s1,a5,49f6 <__addsf3+0x5c>
    4b40:	08030d63          	beqz	t1,4bda <__addsf3+0x240>
    4b44:	4601                	li	a2,0
    4b46:	0ff00513          	li	a0,255
    4b4a:	004007b7          	lui	a5,0x400
    4b4e:	bf15                	j	4a82 <__addsf3+0xe8>
    4b50:	40980733          	sub	a4,a6,s1
    4b54:	e8ed                	bnez	s1,4c46 <__addsf3+0x2ac>
    4b56:	140e0263          	beqz	t3,4c9a <__addsf3+0x300>
    4b5a:	177d                	addi	a4,a4,-1
    4b5c:	18070863          	beqz	a4,4cec <__addsf3+0x352>
    4b60:	0ff00793          	li	a5,255
    4b64:	0ef81963          	bne	a6,a5,4c56 <__addsf3+0x2bc>
    4b68:	892e                	mv	s2,a1
    4b6a:	8336                	mv	t1,a3
    4b6c:	bfd1                	j	4b40 <__addsf3+0x1a6>
    4b6e:	040e8b63          	beqz	t4,4bc4 <__addsf3+0x22a>
    4b72:	18fd                	addi	a7,a7,-1
    4b74:	01de07b3          	add	a5,t3,t4
    4b78:	f80887e3          	beqz	a7,4b06 <__addsf3+0x16c>
    4b7c:	0ff00793          	li	a5,255
    4b80:	f6f493e3          	bne	s1,a5,4ae6 <__addsf3+0x14c>
    4b84:	bf75                	j	4b40 <__addsf3+0x1a6>
    4b86:	08089563          	bnez	a7,4c10 <__addsf3+0x276>
    4b8a:	0485                	addi	s1,s1,1
    4b8c:	0fe4f713          	andi	a4,s1,254
    4b90:	12071363          	bnez	a4,4cb6 <__addsf3+0x31c>
    4b94:	10051763          	bnez	a0,4ca2 <__addsf3+0x308>
    4b98:	140e0f63          	beqz	t3,4cf6 <__addsf3+0x35c>
    4b9c:	ee0e83e3          	beqz	t4,4a82 <__addsf3+0xe8>
    4ba0:	01de07b3          	add	a5,t3,t4
    4ba4:	00579713          	slli	a4,a5,0x5
    4ba8:	4481                	li	s1,0
    4baa:	00075763          	bgez	a4,4bb8 <__addsf3+0x21e>
    4bae:	fc000737          	lui	a4,0xfc000
    4bb2:	177d                	addi	a4,a4,-1
    4bb4:	8ff9                	and	a5,a5,a4
    4bb6:	4485                	li	s1,1
    4bb8:	0077f713          	andi	a4,a5,7
    4bbc:	e8071fe3          	bnez	a4,4a5a <__addsf3+0xc0>
    4bc0:	0037d313          	srli	t1,a5,0x3
    4bc4:	0ff00793          	li	a5,255
    4bc8:	f6f48ce3          	beq	s1,a5,4b40 <__addsf3+0x1a6>
    4bcc:	00931793          	slli	a5,t1,0x9
    4bd0:	83a5                	srli	a5,a5,0x9
    4bd2:	0ff4f513          	andi	a0,s1,255
    4bd6:	864a                	mv	a2,s2
    4bd8:	b56d                	j	4a82 <__addsf3+0xe8>
    4bda:	864a                	mv	a2,s2
    4bdc:	0ff00513          	li	a0,255
    4be0:	4781                	li	a5,0
    4be2:	b545                	j	4a82 <__addsf3+0xe8>
    4be4:	fc000737          	lui	a4,0xfc000
    4be8:	177d                	addi	a4,a4,-1
    4bea:	8ff9                	and	a5,a5,a4
    4bec:	0077f713          	andi	a4,a5,7
    4bf0:	8c89                	sub	s1,s1,a0
    4bf2:	e60714e3          	bnez	a4,4a5a <__addsf3+0xc0>
    4bf6:	b7e9                	j	4bc0 <__addsf3+0x226>
    4bf8:	41de0433          	sub	s0,t3,t4
    4bfc:	00541793          	slli	a5,s0,0x5
    4c00:	0c07c363          	bltz	a5,4cc6 <__addsf3+0x32c>
    4c04:	e20412e3          	bnez	s0,4a28 <__addsf3+0x8e>
    4c08:	4601                	li	a2,0
    4c0a:	4501                	li	a0,0
    4c0c:	4781                	li	a5,0
    4c0e:	bd95                	j	4a82 <__addsf3+0xe8>
    4c10:	40980733          	sub	a4,a6,s1
    4c14:	c4ad                	beqz	s1,4c7e <__addsf3+0x2e4>
    4c16:	0ff00793          	li	a5,255
    4c1a:	f4f808e3          	beq	a6,a5,4b6a <__addsf3+0x1d0>
    4c1e:	040007b7          	lui	a5,0x4000
    4c22:	00fe6e33          	or	t3,t3,a5
    4c26:	47ed                	li	a5,27
    4c28:	0ce7cc63          	blt	a5,a4,4d00 <__addsf3+0x366>
    4c2c:	02000793          	li	a5,32
    4c30:	8f99                	sub	a5,a5,a4
    4c32:	00fe17b3          	sll	a5,t3,a5
    4c36:	00ee5733          	srl	a4,t3,a4
    4c3a:	00f037b3          	snez	a5,a5
    4c3e:	8fd9                	or	a5,a5,a4
    4c40:	97f6                	add	a5,a5,t4
    4c42:	84c2                	mv	s1,a6
    4c44:	b5c9                	j	4b06 <__addsf3+0x16c>
    4c46:	0ff00793          	li	a5,255
    4c4a:	f0f80fe3          	beq	a6,a5,4b68 <__addsf3+0x1ce>
    4c4e:	040007b7          	lui	a5,0x4000
    4c52:	00fe6e33          	or	t3,t3,a5
    4c56:	47ed                	li	a5,27
    4c58:	08e7c363          	blt	a5,a4,4cde <__addsf3+0x344>
    4c5c:	02000693          	li	a3,32
    4c60:	8e99                	sub	a3,a3,a4
    4c62:	00de16b3          	sll	a3,t3,a3
    4c66:	00ee57b3          	srl	a5,t3,a4
    4c6a:	00d03733          	snez	a4,a3
    4c6e:	8fd9                	or	a5,a5,a4
    4c70:	40fe87b3          	sub	a5,t4,a5
    4c74:	84c2                	mv	s1,a6
    4c76:	892e                	mv	s2,a1
    4c78:	b345                	j	4a18 <__addsf3+0x7e>
    4c7a:	4785                	li	a5,1
    4c7c:	bb61                	j	4a14 <__addsf3+0x7a>
    4c7e:	060e0e63          	beqz	t3,4cfa <__addsf3+0x360>
    4c82:	177d                	addi	a4,a4,-1
    4c84:	01de07b3          	add	a5,t3,t4
    4c88:	84c2                	mv	s1,a6
    4c8a:	e6070ee3          	beqz	a4,4b06 <__addsf3+0x16c>
    4c8e:	0ff00793          	li	a5,255
    4c92:	f8f81ae3          	bne	a6,a5,4c26 <__addsf3+0x28c>
    4c96:	8336                	mv	t1,a3
    4c98:	b565                	j	4b40 <__addsf3+0x1a6>
    4c9a:	8336                	mv	t1,a3
    4c9c:	84c2                	mv	s1,a6
    4c9e:	892e                	mv	s2,a1
    4ca0:	b715                	j	4bc4 <__addsf3+0x22a>
    4ca2:	ec0e04e3          	beqz	t3,4b6a <__addsf3+0x1d0>
    4ca6:	e80e8de3          	beqz	t4,4b40 <__addsf3+0x1a6>
    4caa:	bd69                	j	4b44 <__addsf3+0x1aa>
    4cac:	020e8d63          	beqz	t4,4ce6 <__addsf3+0x34c>
    4cb0:	862e                	mv	a2,a1
    4cb2:	87b6                	mv	a5,a3
    4cb4:	b3f9                	j	4a82 <__addsf3+0xe8>
    4cb6:	0ff00793          	li	a5,255
    4cba:	f2f481e3          	beq	s1,a5,4bdc <__addsf3+0x242>
    4cbe:	01de07b3          	add	a5,t3,t4
    4cc2:	8385                	srli	a5,a5,0x1
    4cc4:	bdd5                	j	4bb8 <__addsf3+0x21e>
    4cc6:	41ce8433          	sub	s0,t4,t3
    4cca:	892e                	mv	s2,a1
    4ccc:	bbb1                	j	4a28 <__addsf3+0x8e>
    4cce:	fc0e1ce3          	bnez	t3,4ca6 <__addsf3+0x30c>
    4cd2:	e60e89e3          	beqz	t4,4b44 <__addsf3+0x1aa>
    4cd6:	892e                	mv	s2,a1
    4cd8:	bd49                	j	4b6a <__addsf3+0x1d0>
    4cda:	4785                	li	a5,1
    4cdc:	b525                	j	4b04 <__addsf3+0x16a>
    4cde:	4785                	li	a5,1
    4ce0:	bf41                	j	4c70 <__addsf3+0x2d6>
    4ce2:	ec079be3          	bnez	a5,4bb8 <__addsf3+0x21e>
    4ce6:	4601                	li	a2,0
    4ce8:	4781                	li	a5,0
    4cea:	bb61                	j	4a82 <__addsf3+0xe8>
    4cec:	41ce87b3          	sub	a5,t4,t3
    4cf0:	84c2                	mv	s1,a6
    4cf2:	892e                	mv	s2,a1
    4cf4:	b315                	j	4a18 <__addsf3+0x7e>
    4cf6:	87b6                	mv	a5,a3
    4cf8:	b369                	j	4a82 <__addsf3+0xe8>
    4cfa:	8336                	mv	t1,a3
    4cfc:	84c2                	mv	s1,a6
    4cfe:	b5d9                	j	4bc4 <__addsf3+0x22a>
    4d00:	4785                	li	a5,1
    4d02:	bf3d                	j	4c40 <__addsf3+0x2a6>

00004d04 <__divsf3>:
    4d04:	7139                	addi	sp,sp,-64
    4d06:	01755793          	srli	a5,a0,0x17
    4d0a:	d84a                	sw	s2,48(sp)
    4d0c:	d256                	sw	s5,36(sp)
    4d0e:	ce5e                	sw	s7,28(sp)
    4d10:	00951a93          	slli	s5,a0,0x9
    4d14:	01f55913          	srli	s2,a0,0x1f
    4d18:	de06                	sw	ra,60(sp)
    4d1a:	dc22                	sw	s0,56(sp)
    4d1c:	da26                	sw	s1,52(sp)
    4d1e:	d64e                	sw	s3,44(sp)
    4d20:	d452                	sw	s4,40(sp)
    4d22:	d05a                	sw	s6,32(sp)
    4d24:	0ff7f793          	andi	a5,a5,255
    4d28:	009ada93          	srli	s5,s5,0x9
    4d2c:	8bca                	mv	s7,s2
    4d2e:	12078263          	beqz	a5,4e52 <__divsf3+0x14e>
    4d32:	0ff00713          	li	a4,255
    4d36:	12e78463          	beq	a5,a4,4e5e <__divsf3+0x15a>
    4d3a:	0a8e                	slli	s5,s5,0x3
    4d3c:	04000737          	lui	a4,0x4000
    4d40:	00eaeab3          	or	s5,s5,a4
    4d44:	f8178a13          	addi	s4,a5,-127 # 3ffff81 <_data_lma+0x3ff9179>
    4d48:	4401                	li	s0,0
    4d4a:	4b01                	li	s6,0
    4d4c:	0175d793          	srli	a5,a1,0x17
    4d50:	00959493          	slli	s1,a1,0x9
    4d54:	0ff7f793          	andi	a5,a5,255
    4d58:	80a5                	srli	s1,s1,0x9
    4d5a:	01f5d993          	srli	s3,a1,0x1f
    4d5e:	c7fd                	beqz	a5,4e4c <__divsf3+0x148>
    4d60:	0ff00713          	li	a4,255
    4d64:	02e78763          	beq	a5,a4,4d92 <__divsf3+0x8e>
    4d68:	048e                	slli	s1,s1,0x3
    4d6a:	f8178793          	addi	a5,a5,-127
    4d6e:	04000737          	lui	a4,0x4000
    4d72:	8cd9                	or	s1,s1,a4
    4d74:	40fa0a33          	sub	s4,s4,a5
    4d78:	4681                	li	a3,0
    4d7a:	8c55                	or	s0,s0,a3
    4d7c:	00002717          	auipc	a4,0x2
    4d80:	e9070713          	addi	a4,a4,-368 # 6c0c <solderingiron+0x174>
    4d84:	040a                	slli	s0,s0,0x2
    4d86:	943a                	add	s0,s0,a4
    4d88:	401c                	lw	a5,0(s0)
    4d8a:	01394933          	xor	s2,s2,s3
    4d8e:	97ba                	add	a5,a5,a4
    4d90:	8782                	jr	a5
    4d92:	f01a0a13          	addi	s4,s4,-255
    4d96:	e8f9                	bnez	s1,4e6c <__divsf3+0x168>
    4d98:	4689                	li	a3,2
    4d9a:	8c55                	or	s0,s0,a3
    4d9c:	00002717          	auipc	a4,0x2
    4da0:	eb070713          	addi	a4,a4,-336 # 6c4c <solderingiron+0x1b4>
    4da4:	040a                	slli	s0,s0,0x2
    4da6:	943a                	add	s0,s0,a4
    4da8:	401c                	lw	a5,0(s0)
    4daa:	01394933          	xor	s2,s2,s3
    4dae:	97ba                	add	a5,a5,a4
    4db0:	8782                	jr	a5
    4db2:	4901                	li	s2,0
    4db4:	0ff00713          	li	a4,255
    4db8:	004007b7          	lui	a5,0x400
    4dbc:	00979513          	slli	a0,a5,0x9
    4dc0:	50f2                	lw	ra,60(sp)
    4dc2:	5462                	lw	s0,56(sp)
    4dc4:	01771793          	slli	a5,a4,0x17
    4dc8:	8125                	srli	a0,a0,0x9
    4dca:	097e                	slli	s2,s2,0x1f
    4dcc:	8d5d                	or	a0,a0,a5
    4dce:	01256533          	or	a0,a0,s2
    4dd2:	54d2                	lw	s1,52(sp)
    4dd4:	5942                	lw	s2,48(sp)
    4dd6:	59b2                	lw	s3,44(sp)
    4dd8:	5a22                	lw	s4,40(sp)
    4dda:	5a92                	lw	s5,36(sp)
    4ddc:	5b02                	lw	s6,32(sp)
    4dde:	4bf2                	lw	s7,28(sp)
    4de0:	6121                	addi	sp,sp,64
    4de2:	8082                	ret
    4de4:	0ff00713          	li	a4,255
    4de8:	4781                	li	a5,0
    4dea:	bfc9                	j	4dbc <__divsf3+0xb8>
    4dec:	8aa6                	mv	s5,s1
    4dee:	8bce                	mv	s7,s3
    4df0:	8b36                	mv	s6,a3
    4df2:	4789                	li	a5,2
    4df4:	1afb0b63          	beq	s6,a5,4faa <__divsf3+0x2a6>
    4df8:	478d                	li	a5,3
    4dfa:	fafb0ce3          	beq	s6,a5,4db2 <__divsf3+0xae>
    4dfe:	4785                	li	a5,1
    4e00:	0afb0a63          	beq	s6,a5,4eb4 <__divsf3+0x1b0>
    4e04:	07fa0713          	addi	a4,s4,127
    4e08:	001bf913          	andi	s2,s7,1
    4e0c:	12e05763          	blez	a4,4f3a <__divsf3+0x236>
    4e10:	007af793          	andi	a5,s5,7
    4e14:	c799                	beqz	a5,4e22 <__divsf3+0x11e>
    4e16:	00faf793          	andi	a5,s5,15
    4e1a:	4691                	li	a3,4
    4e1c:	00d78363          	beq	a5,a3,4e22 <__divsf3+0x11e>
    4e20:	0a91                	addi	s5,s5,4
    4e22:	004a9793          	slli	a5,s5,0x4
    4e26:	0007d963          	bgez	a5,4e38 <__divsf3+0x134>
    4e2a:	f80007b7          	lui	a5,0xf8000
    4e2e:	17fd                	addi	a5,a5,-1
    4e30:	00fafab3          	and	s5,s5,a5
    4e34:	080a0713          	addi	a4,s4,128
    4e38:	0fe00793          	li	a5,254
    4e3c:	fae7c4e3          	blt	a5,a4,4de4 <__divsf3+0xe0>
    4e40:	006a9793          	slli	a5,s5,0x6
    4e44:	83a5                	srli	a5,a5,0x9
    4e46:	0ff77713          	andi	a4,a4,255
    4e4a:	bf8d                	j	4dbc <__divsf3+0xb8>
    4e4c:	e4b9                	bnez	s1,4e9a <__divsf3+0x196>
    4e4e:	4685                	li	a3,1
    4e50:	b7a9                	j	4d9a <__divsf3+0x96>
    4e52:	020a9463          	bnez	s5,4e7a <__divsf3+0x176>
    4e56:	4411                	li	s0,4
    4e58:	4a01                	li	s4,0
    4e5a:	4b05                	li	s6,1
    4e5c:	bdc5                	j	4d4c <__divsf3+0x48>
    4e5e:	000a9963          	bnez	s5,4e70 <__divsf3+0x16c>
    4e62:	4421                	li	s0,8
    4e64:	0ff00a13          	li	s4,255
    4e68:	4b09                	li	s6,2
    4e6a:	b5cd                	j	4d4c <__divsf3+0x48>
    4e6c:	468d                	li	a3,3
    4e6e:	b731                	j	4d7a <__divsf3+0x76>
    4e70:	4431                	li	s0,12
    4e72:	0ff00a13          	li	s4,255
    4e76:	4b0d                	li	s6,3
    4e78:	bdd1                	j	4d4c <__divsf3+0x48>
    4e7a:	8556                	mv	a0,s5
    4e7c:	c62e                	sw	a1,12(sp)
    4e7e:	2af000ef          	jal	ra,592c <__clzsi2>
    4e82:	ffb50793          	addi	a5,a0,-5
    4e86:	00fa9ab3          	sll	s5,s5,a5
    4e8a:	f8a00793          	li	a5,-118
    4e8e:	40a78a33          	sub	s4,a5,a0
    4e92:	4401                	li	s0,0
    4e94:	4b01                	li	s6,0
    4e96:	45b2                	lw	a1,12(sp)
    4e98:	bd55                	j	4d4c <__divsf3+0x48>
    4e9a:	8526                	mv	a0,s1
    4e9c:	291000ef          	jal	ra,592c <__clzsi2>
    4ea0:	ffb50713          	addi	a4,a0,-5
    4ea4:	00aa07b3          	add	a5,s4,a0
    4ea8:	00e494b3          	sll	s1,s1,a4
    4eac:	07678a13          	addi	s4,a5,118 # f8000076 <_eusrstack+0xd7ffb076>
    4eb0:	4681                	li	a3,0
    4eb2:	b5e1                	j	4d7a <__divsf3+0x76>
    4eb4:	001bf913          	andi	s2,s7,1
    4eb8:	4701                	li	a4,0
    4eba:	4781                	li	a5,0
    4ebc:	b701                	j	4dbc <__divsf3+0xb8>
    4ebe:	6641                	lui	a2,0x10
    4ec0:	00549513          	slli	a0,s1,0x5
    4ec4:	167d                	addi	a2,a2,-1
    4ec6:	01055793          	srli	a5,a0,0x10
    4eca:	8e69                	and	a2,a2,a0
    4ecc:	0a9afa63          	bgeu	s5,s1,4f80 <__divsf3+0x27c>
    4ed0:	02fad5b3          	divu	a1,s5,a5
    4ed4:	1a7d                	addi	s4,s4,-1
    4ed6:	86d6                	mv	a3,s5
    4ed8:	4701                	li	a4,0
    4eda:	02c58833          	mul	a6,a1,a2
    4ede:	02f6f6b3          	remu	a3,a3,a5
    4ee2:	06c2                	slli	a3,a3,0x10
    4ee4:	8f55                	or	a4,a4,a3
    4ee6:	01077b63          	bgeu	a4,a6,4efc <__divsf3+0x1f8>
    4eea:	972a                	add	a4,a4,a0
    4eec:	fff58693          	addi	a3,a1,-1
    4ef0:	0aa76863          	bltu	a4,a0,4fa0 <__divsf3+0x29c>
    4ef4:	0b077663          	bgeu	a4,a6,4fa0 <__divsf3+0x29c>
    4ef8:	15f9                	addi	a1,a1,-2
    4efa:	972a                	add	a4,a4,a0
    4efc:	41070733          	sub	a4,a4,a6
    4f00:	02f756b3          	divu	a3,a4,a5
    4f04:	02f77733          	remu	a4,a4,a5
    4f08:	02c68ab3          	mul	s5,a3,a2
    4f0c:	01071793          	slli	a5,a4,0x10
    4f10:	0157fb63          	bgeu	a5,s5,4f26 <__divsf3+0x222>
    4f14:	97aa                	add	a5,a5,a0
    4f16:	fff68713          	addi	a4,a3,-1 # 7dffffff <_eusrstack+0x5dffafff>
    4f1a:	08a7e163          	bltu	a5,a0,4f9c <__divsf3+0x298>
    4f1e:	0757ff63          	bgeu	a5,s5,4f9c <__divsf3+0x298>
    4f22:	16f9                	addi	a3,a3,-2
    4f24:	97aa                	add	a5,a5,a0
    4f26:	05c2                	slli	a1,a1,0x10
    4f28:	41578ab3          	sub	s5,a5,s5
    4f2c:	8dd5                	or	a1,a1,a3
    4f2e:	01503ab3          	snez	s5,s5
    4f32:	0155eab3          	or	s5,a1,s5
    4f36:	8bca                	mv	s7,s2
    4f38:	b5f1                	j	4e04 <__divsf3+0x100>
    4f3a:	4685                	li	a3,1
    4f3c:	8e99                	sub	a3,a3,a4
    4f3e:	c711                	beqz	a4,4f4a <__divsf3+0x246>
    4f40:	466d                	li	a2,27
    4f42:	4701                	li	a4,0
    4f44:	4781                	li	a5,0
    4f46:	e6d64be3          	blt	a2,a3,4dbc <__divsf3+0xb8>
    4f4a:	09ea0a13          	addi	s4,s4,158
    4f4e:	014a9a33          	sll	s4,s5,s4
    4f52:	00dad7b3          	srl	a5,s5,a3
    4f56:	01403ab3          	snez	s5,s4
    4f5a:	0157e7b3          	or	a5,a5,s5
    4f5e:	0077f713          	andi	a4,a5,7
    4f62:	c719                	beqz	a4,4f70 <__divsf3+0x26c>
    4f64:	00f7f713          	andi	a4,a5,15
    4f68:	4691                	li	a3,4
    4f6a:	00d70363          	beq	a4,a3,4f70 <__divsf3+0x26c>
    4f6e:	0791                	addi	a5,a5,4
    4f70:	00579713          	slli	a4,a5,0x5
    4f74:	02074863          	bltz	a4,4fa4 <__divsf3+0x2a0>
    4f78:	079a                	slli	a5,a5,0x6
    4f7a:	83a5                	srli	a5,a5,0x9
    4f7c:	4701                	li	a4,0
    4f7e:	bd3d                	j	4dbc <__divsf3+0xb8>
    4f80:	001ad693          	srli	a3,s5,0x1
    4f84:	02f6d5b3          	divu	a1,a3,a5
    4f88:	01fa9713          	slli	a4,s5,0x1f
    4f8c:	8341                	srli	a4,a4,0x10
    4f8e:	02c58833          	mul	a6,a1,a2
    4f92:	b7b1                	j	4ede <__divsf3+0x1da>
    4f94:	8bce                	mv	s7,s3
    4f96:	8b36                	mv	s6,a3
    4f98:	4a81                	li	s5,0
    4f9a:	bda1                	j	4df2 <__divsf3+0xee>
    4f9c:	86ba                	mv	a3,a4
    4f9e:	b761                	j	4f26 <__divsf3+0x222>
    4fa0:	85b6                	mv	a1,a3
    4fa2:	bfa9                	j	4efc <__divsf3+0x1f8>
    4fa4:	4705                	li	a4,1
    4fa6:	4781                	li	a5,0
    4fa8:	bd11                	j	4dbc <__divsf3+0xb8>
    4faa:	001bf913          	andi	s2,s7,1
    4fae:	0ff00713          	li	a4,255
    4fb2:	4781                	li	a5,0
    4fb4:	b521                	j	4dbc <__divsf3+0xb8>

00004fb6 <__gesf2>:
    4fb6:	01755693          	srli	a3,a0,0x17
    4fba:	008007b7          	lui	a5,0x800
    4fbe:	17fd                	addi	a5,a5,-1
    4fc0:	0175d613          	srli	a2,a1,0x17
    4fc4:	0ff6f693          	andi	a3,a3,255
    4fc8:	0ff00813          	li	a6,255
    4fcc:	00a7f8b3          	and	a7,a5,a0
    4fd0:	01f55713          	srli	a4,a0,0x1f
    4fd4:	8fed                	and	a5,a5,a1
    4fd6:	0ff67613          	andi	a2,a2,255
    4fda:	81fd                	srli	a1,a1,0x1f
    4fdc:	03068163          	beq	a3,a6,4ffe <__gesf2+0x48>
    4fe0:	01060c63          	beq	a2,a6,4ff8 <__gesf2+0x42>
    4fe4:	e28d                	bnez	a3,5006 <__gesf2+0x50>
    4fe6:	e211                	bnez	a2,4fea <__gesf2+0x34>
    4fe8:	c3b1                	beqz	a5,502c <__gesf2+0x76>
    4fea:	02088e63          	beqz	a7,5026 <__gesf2+0x70>
    4fee:	04b70563          	beq	a4,a1,5038 <__gesf2+0x82>
    4ff2:	4505                	li	a0,1
    4ff4:	e71d                	bnez	a4,5022 <__gesf2+0x6c>
    4ff6:	8082                	ret
    4ff8:	d7f5                	beqz	a5,4fe4 <__gesf2+0x2e>
    4ffa:	5579                	li	a0,-2
    4ffc:	8082                	ret
    4ffe:	fe089ee3          	bnez	a7,4ffa <__gesf2+0x44>
    5002:	02d60963          	beq	a2,a3,5034 <__gesf2+0x7e>
    5006:	e211                	bnez	a2,500a <__gesf2+0x54>
    5008:	d7ed                	beqz	a5,4ff2 <__gesf2+0x3c>
    500a:	feb714e3          	bne	a4,a1,4ff2 <__gesf2+0x3c>
    500e:	fed642e3          	blt	a2,a3,4ff2 <__gesf2+0x3c>
    5012:	00c6c763          	blt	a3,a2,5020 <__gesf2+0x6a>
    5016:	fd17eee3          	bltu	a5,a7,4ff2 <__gesf2+0x3c>
    501a:	4501                	li	a0,0
    501c:	fcf8fde3          	bgeu	a7,a5,4ff6 <__gesf2+0x40>
    5020:	e701                	bnez	a4,5028 <__gesf2+0x72>
    5022:	557d                	li	a0,-1
    5024:	8082                	ret
    5026:	ddf5                	beqz	a1,5022 <__gesf2+0x6c>
    5028:	4505                	li	a0,1
    502a:	8082                	ret
    502c:	4501                	li	a0,0
    502e:	fc0892e3          	bnez	a7,4ff2 <__gesf2+0x3c>
    5032:	8082                	ret
    5034:	dbf9                	beqz	a5,500a <__gesf2+0x54>
    5036:	b7d1                	j	4ffa <__gesf2+0x44>
    5038:	4681                	li	a3,0
    503a:	bfe1                	j	5012 <__gesf2+0x5c>

0000503c <__lesf2>:
    503c:	01755693          	srli	a3,a0,0x17
    5040:	008007b7          	lui	a5,0x800
    5044:	17fd                	addi	a5,a5,-1
    5046:	0175d613          	srli	a2,a1,0x17
    504a:	0ff6f693          	andi	a3,a3,255
    504e:	0ff00813          	li	a6,255
    5052:	00a7f8b3          	and	a7,a5,a0
    5056:	01f55713          	srli	a4,a0,0x1f
    505a:	8fed                	and	a5,a5,a1
    505c:	0ff67613          	andi	a2,a2,255
    5060:	81fd                	srli	a1,a1,0x1f
    5062:	03068763          	beq	a3,a6,5090 <__lesf2+0x54>
    5066:	01060963          	beq	a2,a6,5078 <__lesf2+0x3c>
    506a:	ea85                	bnez	a3,509a <__lesf2+0x5e>
    506c:	ea11                	bnez	a2,5080 <__lesf2+0x44>
    506e:	eb89                	bnez	a5,5080 <__lesf2+0x44>
    5070:	4501                	li	a0,0
    5072:	00089b63          	bnez	a7,5088 <__lesf2+0x4c>
    5076:	8082                	ret
    5078:	4509                	li	a0,2
    507a:	fff5                	bnez	a5,5076 <__lesf2+0x3a>
    507c:	dae5                	beqz	a3,506c <__lesf2+0x30>
    507e:	a831                	j	509a <__lesf2+0x5e>
    5080:	02088c63          	beqz	a7,50b8 <__lesf2+0x7c>
    5084:	04b70063          	beq	a4,a1,50c4 <__lesf2+0x88>
    5088:	4505                	li	a0,1
    508a:	d775                	beqz	a4,5076 <__lesf2+0x3a>
    508c:	557d                	li	a0,-1
    508e:	8082                	ret
    5090:	4509                	li	a0,2
    5092:	02089863          	bnez	a7,50c2 <__lesf2+0x86>
    5096:	02d60463          	beq	a2,a3,50be <__lesf2+0x82>
    509a:	e211                	bnez	a2,509e <__lesf2+0x62>
    509c:	d7f5                	beqz	a5,5088 <__lesf2+0x4c>
    509e:	feb715e3          	bne	a4,a1,5088 <__lesf2+0x4c>
    50a2:	fed643e3          	blt	a2,a3,5088 <__lesf2+0x4c>
    50a6:	00c6c763          	blt	a3,a2,50b4 <__lesf2+0x78>
    50aa:	fd17efe3          	bltu	a5,a7,5088 <__lesf2+0x4c>
    50ae:	4501                	li	a0,0
    50b0:	fcf8f3e3          	bgeu	a7,a5,5076 <__lesf2+0x3a>
    50b4:	e319                	bnez	a4,50ba <__lesf2+0x7e>
    50b6:	bfd9                	j	508c <__lesf2+0x50>
    50b8:	d9f1                	beqz	a1,508c <__lesf2+0x50>
    50ba:	4505                	li	a0,1
    50bc:	8082                	ret
    50be:	d3e5                	beqz	a5,509e <__lesf2+0x62>
    50c0:	8082                	ret
    50c2:	8082                	ret
    50c4:	4681                	li	a3,0
    50c6:	b7c5                	j	50a6 <__lesf2+0x6a>

000050c8 <__mulsf3>:
    50c8:	7179                	addi	sp,sp,-48
    50ca:	d422                	sw	s0,40(sp)
    50cc:	01755413          	srli	s0,a0,0x17
    50d0:	ce4e                	sw	s3,28(sp)
    50d2:	cc52                	sw	s4,24(sp)
    50d4:	00951993          	slli	s3,a0,0x9
    50d8:	d606                	sw	ra,44(sp)
    50da:	d226                	sw	s1,36(sp)
    50dc:	d04a                	sw	s2,32(sp)
    50de:	ca56                	sw	s5,20(sp)
    50e0:	c85a                	sw	s6,16(sp)
    50e2:	0ff47413          	andi	s0,s0,255
    50e6:	0099d993          	srli	s3,s3,0x9
    50ea:	01f55a13          	srli	s4,a0,0x1f
    50ee:	c469                	beqz	s0,51b8 <__mulsf3+0xf0>
    50f0:	0ff00793          	li	a5,255
    50f4:	0ef40863          	beq	s0,a5,51e4 <__mulsf3+0x11c>
    50f8:	00399793          	slli	a5,s3,0x3
    50fc:	04000737          	lui	a4,0x4000
    5100:	00e7e9b3          	or	s3,a5,a4
    5104:	f8140413          	addi	s0,s0,-127 # 3ffff81 <_data_lma+0x3ff9179>
    5108:	4481                	li	s1,0
    510a:	4b01                	li	s6,0
    510c:	0175d713          	srli	a4,a1,0x17
    5110:	00959a93          	slli	s5,a1,0x9
    5114:	0ff77713          	andi	a4,a4,255
    5118:	009ada93          	srli	s5,s5,0x9
    511c:	01f5d913          	srli	s2,a1,0x1f
    5120:	cf45                	beqz	a4,51d8 <__mulsf3+0x110>
    5122:	0ff00793          	li	a5,255
    5126:	02f70c63          	beq	a4,a5,515e <__mulsf3+0x96>
    512a:	0a8e                	slli	s5,s5,0x3
    512c:	f8170713          	addi	a4,a4,-127 # 3ffff81 <_data_lma+0x3ff9179>
    5130:	040007b7          	lui	a5,0x4000
    5134:	00faeab3          	or	s5,s5,a5
    5138:	943a                	add	s0,s0,a4
    513a:	4601                	li	a2,0
    513c:	012a4533          	xor	a0,s4,s2
    5140:	47bd                	li	a5,15
    5142:	86aa                	mv	a3,a0
    5144:	00140593          	addi	a1,s0,1
    5148:	1097e063          	bltu	a5,s1,5248 <__mulsf3+0x180>
    514c:	00002717          	auipc	a4,0x2
    5150:	b4070713          	addi	a4,a4,-1216 # 6c8c <solderingiron+0x1f4>
    5154:	048a                	slli	s1,s1,0x2
    5156:	94ba                	add	s1,s1,a4
    5158:	409c                	lw	a5,0(s1)
    515a:	97ba                	add	a5,a5,a4
    515c:	8782                	jr	a5
    515e:	0ff40413          	addi	s0,s0,255
    5162:	0c0a9663          	bnez	s5,522e <__mulsf3+0x166>
    5166:	0024e493          	ori	s1,s1,2
    516a:	4609                	li	a2,2
    516c:	bfc1                	j	513c <__mulsf3+0x74>
    516e:	4501                	li	a0,0
    5170:	0ff00713          	li	a4,255
    5174:	004007b7          	lui	a5,0x400
    5178:	50b2                	lw	ra,44(sp)
    517a:	5422                	lw	s0,40(sp)
    517c:	07a6                	slli	a5,a5,0x9
    517e:	075e                	slli	a4,a4,0x17
    5180:	83a5                	srli	a5,a5,0x9
    5182:	057e                	slli	a0,a0,0x1f
    5184:	8fd9                	or	a5,a5,a4
    5186:	5492                	lw	s1,36(sp)
    5188:	5902                	lw	s2,32(sp)
    518a:	49f2                	lw	s3,28(sp)
    518c:	4a62                	lw	s4,24(sp)
    518e:	4ad2                	lw	s5,20(sp)
    5190:	4b42                	lw	s6,16(sp)
    5192:	8d5d                	or	a0,a0,a5
    5194:	6145                	addi	sp,sp,48
    5196:	8082                	ret
    5198:	86ca                	mv	a3,s2
    519a:	89d6                	mv	s3,s5
    519c:	8b32                	mv	s6,a2
    519e:	4789                	li	a5,2
    51a0:	08fb0f63          	beq	s6,a5,523e <__mulsf3+0x176>
    51a4:	478d                	li	a5,3
    51a6:	fcfb04e3          	beq	s6,a5,516e <__mulsf3+0xa6>
    51aa:	4785                	li	a5,1
    51ac:	8536                	mv	a0,a3
    51ae:	1afb1063          	bne	s6,a5,534e <__mulsf3+0x286>
    51b2:	4701                	li	a4,0
    51b4:	4781                	li	a5,0
    51b6:	b7c9                	j	5178 <__mulsf3+0xb0>
    51b8:	04099d63          	bnez	s3,5212 <__mulsf3+0x14a>
    51bc:	0175d713          	srli	a4,a1,0x17
    51c0:	00959a93          	slli	s5,a1,0x9
    51c4:	0ff77713          	andi	a4,a4,255
    51c8:	4491                	li	s1,4
    51ca:	4401                	li	s0,0
    51cc:	4b05                	li	s6,1
    51ce:	009ada93          	srli	s5,s5,0x9
    51d2:	01f5d913          	srli	s2,a1,0x1f
    51d6:	f731                	bnez	a4,5122 <__mulsf3+0x5a>
    51d8:	000a9d63          	bnez	s5,51f2 <__mulsf3+0x12a>
    51dc:	0014e493          	ori	s1,s1,1
    51e0:	4605                	li	a2,1
    51e2:	bfa9                	j	513c <__mulsf3+0x74>
    51e4:	02099263          	bnez	s3,5208 <__mulsf3+0x140>
    51e8:	44a1                	li	s1,8
    51ea:	0ff00413          	li	s0,255
    51ee:	4b09                	li	s6,2
    51f0:	bf31                	j	510c <__mulsf3+0x44>
    51f2:	8556                	mv	a0,s5
    51f4:	2f25                	jal	592c <__clzsi2>
    51f6:	ffb50793          	addi	a5,a0,-5
    51fa:	8c09                	sub	s0,s0,a0
    51fc:	00fa9ab3          	sll	s5,s5,a5
    5200:	f8a40413          	addi	s0,s0,-118
    5204:	4601                	li	a2,0
    5206:	bf1d                	j	513c <__mulsf3+0x74>
    5208:	44b1                	li	s1,12
    520a:	0ff00413          	li	s0,255
    520e:	4b0d                	li	s6,3
    5210:	bdf5                	j	510c <__mulsf3+0x44>
    5212:	854e                	mv	a0,s3
    5214:	c62e                	sw	a1,12(sp)
    5216:	2f19                	jal	592c <__clzsi2>
    5218:	ffb50793          	addi	a5,a0,-5
    521c:	f8a00413          	li	s0,-118
    5220:	00f999b3          	sll	s3,s3,a5
    5224:	8c09                	sub	s0,s0,a0
    5226:	4481                	li	s1,0
    5228:	4b01                	li	s6,0
    522a:	45b2                	lw	a1,12(sp)
    522c:	b5c5                	j	510c <__mulsf3+0x44>
    522e:	0034e493          	ori	s1,s1,3
    5232:	460d                	li	a2,3
    5234:	b721                	j	513c <__mulsf3+0x74>
    5236:	4789                	li	a5,2
    5238:	86d2                	mv	a3,s4
    523a:	f6fb15e3          	bne	s6,a5,51a4 <__mulsf3+0xdc>
    523e:	8536                	mv	a0,a3
    5240:	0ff00713          	li	a4,255
    5244:	4781                	li	a5,0
    5246:	bf0d                	j	5178 <__mulsf3+0xb0>
    5248:	6341                	lui	t1,0x10
    524a:	fff30693          	addi	a3,t1,-1 # ffff <_data_lma+0x91f7>
    524e:	0109d613          	srli	a2,s3,0x10
    5252:	010ad893          	srli	a7,s5,0x10
    5256:	00d9f7b3          	and	a5,s3,a3
    525a:	00dafab3          	and	s5,s5,a3
    525e:	03578833          	mul	a6,a5,s5
    5262:	02f889b3          	mul	s3,a7,a5
    5266:	01085713          	srli	a4,a6,0x10
    526a:	03560ab3          	mul	s5,a2,s5
    526e:	99d6                	add	s3,s3,s5
    5270:	974e                	add	a4,a4,s3
    5272:	03160633          	mul	a2,a2,a7
    5276:	01577363          	bgeu	a4,s5,527c <__mulsf3+0x1b4>
    527a:	961a                	add	a2,a2,t1
    527c:	67c1                	lui	a5,0x10
    527e:	17fd                	addi	a5,a5,-1
    5280:	00f776b3          	and	a3,a4,a5
    5284:	00f87833          	and	a6,a6,a5
    5288:	06c2                	slli	a3,a3,0x10
    528a:	96c2                	add	a3,a3,a6
    528c:	00669993          	slli	s3,a3,0x6
    5290:	01075793          	srli	a5,a4,0x10
    5294:	013039b3          	snez	s3,s3
    5298:	82e9                	srli	a3,a3,0x1a
    529a:	97b2                	add	a5,a5,a2
    529c:	079a                	slli	a5,a5,0x6
    529e:	00d9e6b3          	or	a3,s3,a3
    52a2:	00d7e9b3          	or	s3,a5,a3
    52a6:	00499793          	slli	a5,s3,0x4
    52aa:	0007d963          	bgez	a5,52bc <__mulsf3+0x1f4>
    52ae:	0019d713          	srli	a4,s3,0x1
    52b2:	0019f793          	andi	a5,s3,1
    52b6:	00f769b3          	or	s3,a4,a5
    52ba:	842e                	mv	s0,a1
    52bc:	07f40713          	addi	a4,s0,127
    52c0:	04e05063          	blez	a4,5300 <__mulsf3+0x238>
    52c4:	0079f793          	andi	a5,s3,7
    52c8:	c799                	beqz	a5,52d6 <__mulsf3+0x20e>
    52ca:	00f9f793          	andi	a5,s3,15
    52ce:	4691                	li	a3,4
    52d0:	00d78363          	beq	a5,a3,52d6 <__mulsf3+0x20e>
    52d4:	0991                	addi	s3,s3,4
    52d6:	00499793          	slli	a5,s3,0x4
    52da:	0007d963          	bgez	a5,52ec <__mulsf3+0x224>
    52de:	f80007b7          	lui	a5,0xf8000
    52e2:	17fd                	addi	a5,a5,-1
    52e4:	00f9f9b3          	and	s3,s3,a5
    52e8:	08040713          	addi	a4,s0,128
    52ec:	0fe00793          	li	a5,254
    52f0:	04e7cb63          	blt	a5,a4,5346 <__mulsf3+0x27e>
    52f4:	00699793          	slli	a5,s3,0x6
    52f8:	83a5                	srli	a5,a5,0x9
    52fa:	0ff77713          	andi	a4,a4,255
    52fe:	bdad                	j	5178 <__mulsf3+0xb0>
    5300:	4785                	li	a5,1
    5302:	40e786b3          	sub	a3,a5,a4
    5306:	c711                	beqz	a4,5312 <__mulsf3+0x24a>
    5308:	466d                	li	a2,27
    530a:	4701                	li	a4,0
    530c:	4781                	li	a5,0
    530e:	e6d645e3          	blt	a2,a3,5178 <__mulsf3+0xb0>
    5312:	09e40713          	addi	a4,s0,158
    5316:	00e99733          	sll	a4,s3,a4
    531a:	00e03733          	snez	a4,a4
    531e:	00d9d7b3          	srl	a5,s3,a3
    5322:	8fd9                	or	a5,a5,a4
    5324:	0077f713          	andi	a4,a5,7
    5328:	c719                	beqz	a4,5336 <__mulsf3+0x26e>
    532a:	00f7f713          	andi	a4,a5,15
    532e:	4691                	li	a3,4
    5330:	00d70363          	beq	a4,a3,5336 <__mulsf3+0x26e>
    5334:	0791                	addi	a5,a5,4
    5336:	00579713          	slli	a4,a5,0x5
    533a:	00074c63          	bltz	a4,5352 <__mulsf3+0x28a>
    533e:	079a                	slli	a5,a5,0x6
    5340:	83a5                	srli	a5,a5,0x9
    5342:	4701                	li	a4,0
    5344:	bd15                	j	5178 <__mulsf3+0xb0>
    5346:	0ff00713          	li	a4,255
    534a:	4781                	li	a5,0
    534c:	b535                	j	5178 <__mulsf3+0xb0>
    534e:	842e                	mv	s0,a1
    5350:	b7b5                	j	52bc <__mulsf3+0x1f4>
    5352:	4705                	li	a4,1
    5354:	4781                	li	a5,0
    5356:	b50d                	j	5178 <__mulsf3+0xb0>

00005358 <__subsf3>:
    5358:	00800737          	lui	a4,0x800
    535c:	1141                	addi	sp,sp,-16
    535e:	177d                	addi	a4,a4,-1
    5360:	01755693          	srli	a3,a0,0x17
    5364:	0175d813          	srli	a6,a1,0x17
    5368:	00a777b3          	and	a5,a4,a0
    536c:	0ff6f693          	andi	a3,a3,255
    5370:	01f55e93          	srli	t4,a0,0x1f
    5374:	00b77633          	and	a2,a4,a1
    5378:	c226                	sw	s1,4(sp)
    537a:	c04a                	sw	s2,0(sp)
    537c:	0ff87813          	andi	a6,a6,255
    5380:	c606                	sw	ra,12(sp)
    5382:	c422                	sw	s0,8(sp)
    5384:	0ff00313          	li	t1,255
    5388:	8e3e                	mv	t3,a5
    538a:	8936                	mv	s2,a3
    538c:	84f6                	mv	s1,t4
    538e:	00379f13          	slli	t5,a5,0x3
    5392:	81fd                	srli	a1,a1,0x1f
    5394:	00361513          	slli	a0,a2,0x3
    5398:	410688b3          	sub	a7,a3,a6
    539c:	10680263          	beq	a6,t1,54a0 <__subsf3+0x148>
    53a0:	0015c593          	xori	a1,a1,1
    53a4:	10be8c63          	beq	t4,a1,54bc <__subsf3+0x164>
    53a8:	0d105463          	blez	a7,5470 <__subsf3+0x118>
    53ac:	10081063          	bnez	a6,54ac <__subsf3+0x154>
    53b0:	1e050463          	beqz	a0,5598 <__subsf3+0x240>
    53b4:	18fd                	addi	a7,a7,-1
    53b6:	40af07b3          	sub	a5,t5,a0
    53ba:	02088663          	beqz	a7,53e6 <__subsf3+0x8e>
    53be:	0ff00793          	li	a5,255
    53c2:	16f68863          	beq	a3,a5,5532 <__subsf3+0x1da>
    53c6:	47ed                	li	a5,27
    53c8:	2917c763          	blt	a5,a7,5656 <__subsf3+0x2fe>
    53cc:	02000713          	li	a4,32
    53d0:	41170733          	sub	a4,a4,a7
    53d4:	00e51733          	sll	a4,a0,a4
    53d8:	011557b3          	srl	a5,a0,a7
    53dc:	00e03733          	snez	a4,a4
    53e0:	8fd9                	or	a5,a5,a4
    53e2:	40ff07b3          	sub	a5,t5,a5
    53e6:	00579713          	slli	a4,a5,0x5
    53ea:	1a075163          	bgez	a4,558c <__subsf3+0x234>
    53ee:	04000437          	lui	s0,0x4000
    53f2:	147d                	addi	s0,s0,-1
    53f4:	8c7d                	and	s0,s0,a5
    53f6:	8522                	mv	a0,s0
    53f8:	2b15                	jal	592c <__clzsi2>
    53fa:	156d                	addi	a0,a0,-5
    53fc:	00a417b3          	sll	a5,s0,a0
    5400:	1b254e63          	blt	a0,s2,55bc <__subsf3+0x264>
    5404:	41250533          	sub	a0,a0,s2
    5408:	00150413          	addi	s0,a0,1
    540c:	02000713          	li	a4,32
    5410:	8f01                	sub	a4,a4,s0
    5412:	00e79733          	sll	a4,a5,a4
    5416:	00e03733          	snez	a4,a4
    541a:	0087d7b3          	srl	a5,a5,s0
    541e:	8fd9                	or	a5,a5,a4
    5420:	4901                	li	s2,0
    5422:	0077f713          	andi	a4,a5,7
    5426:	c719                	beqz	a4,5434 <__subsf3+0xdc>
    5428:	00f7f713          	andi	a4,a5,15
    542c:	4691                	li	a3,4
    542e:	00d70363          	beq	a4,a3,5434 <__subsf3+0xdc>
    5432:	0791                	addi	a5,a5,4
    5434:	00579713          	slli	a4,a5,0x5
    5438:	14075e63          	bgez	a4,5594 <__subsf3+0x23c>
    543c:	00190693          	addi	a3,s2,1
    5440:	0ff00713          	li	a4,255
    5444:	0014fe93          	andi	t4,s1,1
    5448:	16e68663          	beq	a3,a4,55b4 <__subsf3+0x25c>
    544c:	079a                	slli	a5,a5,0x6
    544e:	83a5                	srli	a5,a5,0x9
    5450:	0ff6f693          	andi	a3,a3,255
    5454:	07a6                	slli	a5,a5,0x9
    5456:	40b2                	lw	ra,12(sp)
    5458:	4422                	lw	s0,8(sp)
    545a:	0097d513          	srli	a0,a5,0x9
    545e:	06de                	slli	a3,a3,0x17
    5460:	01fe9793          	slli	a5,t4,0x1f
    5464:	8d55                	or	a0,a0,a3
    5466:	4492                	lw	s1,4(sp)
    5468:	4902                	lw	s2,0(sp)
    546a:	8d5d                	or	a0,a0,a5
    546c:	0141                	addi	sp,sp,16
    546e:	8082                	ret
    5470:	0a089263          	bnez	a7,5514 <__subsf3+0x1bc>
    5474:	00168713          	addi	a4,a3,1
    5478:	0fe77713          	andi	a4,a4,254
    547c:	14071b63          	bnez	a4,55d2 <__subsf3+0x27a>
    5480:	22069463          	bnez	a3,56a8 <__subsf3+0x350>
    5484:	200f0263          	beqz	t5,5688 <__subsf3+0x330>
    5488:	d571                	beqz	a0,5454 <__subsf3+0xfc>
    548a:	40af07b3          	sub	a5,t5,a0
    548e:	00579713          	slli	a4,a5,0x5
    5492:	22075563          	bgez	a4,56bc <__subsf3+0x364>
    5496:	41e507b3          	sub	a5,a0,t5
    549a:	4901                	li	s2,0
    549c:	84ae                	mv	s1,a1
    549e:	b751                	j	5422 <__subsf3+0xca>
    54a0:	f00500e3          	beqz	a0,53a0 <__subsf3+0x48>
    54a4:	0abe8a63          	beq	t4,a1,5558 <__subsf3+0x200>
    54a8:	fd1054e3          	blez	a7,5470 <__subsf3+0x118>
    54ac:	0ff00793          	li	a5,255
    54b0:	08f68163          	beq	a3,a5,5532 <__subsf3+0x1da>
    54b4:	040007b7          	lui	a5,0x4000
    54b8:	8d5d                	or	a0,a0,a5
    54ba:	b731                	j	53c6 <__subsf3+0x6e>
    54bc:	09105e63          	blez	a7,5558 <__subsf3+0x200>
    54c0:	08080163          	beqz	a6,5542 <__subsf3+0x1ea>
    54c4:	0ff00793          	li	a5,255
    54c8:	06f68563          	beq	a3,a5,5532 <__subsf3+0x1da>
    54cc:	040007b7          	lui	a5,0x4000
    54d0:	8d5d                	or	a0,a0,a5
    54d2:	47ed                	li	a5,27
    54d4:	1f17c063          	blt	a5,a7,56b4 <__subsf3+0x35c>
    54d8:	02000713          	li	a4,32
    54dc:	41170733          	sub	a4,a4,a7
    54e0:	00e51733          	sll	a4,a0,a4
    54e4:	011557b3          	srl	a5,a0,a7
    54e8:	00e03733          	snez	a4,a4
    54ec:	8fd9                	or	a5,a5,a4
    54ee:	97fa                	add	a5,a5,t5
    54f0:	00579713          	slli	a4,a5,0x5
    54f4:	08075c63          	bgez	a4,558c <__subsf3+0x234>
    54f8:	0905                	addi	s2,s2,1
    54fa:	0ff00713          	li	a4,255
    54fe:	0ae90b63          	beq	s2,a4,55b4 <__subsf3+0x25c>
    5502:	7e0006b7          	lui	a3,0x7e000
    5506:	0017d713          	srli	a4,a5,0x1
    550a:	16fd                	addi	a3,a3,-1
    550c:	8b85                	andi	a5,a5,1
    550e:	8f75                	and	a4,a4,a3
    5510:	8fd9                	or	a5,a5,a4
    5512:	bf01                	j	5422 <__subsf3+0xca>
    5514:	40d80733          	sub	a4,a6,a3
    5518:	10069563          	bnez	a3,5622 <__subsf3+0x2ca>
    551c:	140f0d63          	beqz	t5,5676 <__subsf3+0x31e>
    5520:	177d                	addi	a4,a4,-1
    5522:	1a070363          	beqz	a4,56c8 <__subsf3+0x370>
    5526:	0ff00793          	li	a5,255
    552a:	10f81463          	bne	a6,a5,5632 <__subsf3+0x2da>
    552e:	84ae                	mv	s1,a1
    5530:	8e32                	mv	t3,a2
    5532:	060e0f63          	beqz	t3,55b0 <__subsf3+0x258>
    5536:	4e81                	li	t4,0
    5538:	0ff00693          	li	a3,255
    553c:	004007b7          	lui	a5,0x400
    5540:	bf11                	j	5454 <__subsf3+0xfc>
    5542:	c939                	beqz	a0,5598 <__subsf3+0x240>
    5544:	18fd                	addi	a7,a7,-1
    5546:	00af07b3          	add	a5,t5,a0
    554a:	fa0883e3          	beqz	a7,54f0 <__subsf3+0x198>
    554e:	0ff00793          	li	a5,255
    5552:	f8f690e3          	bne	a3,a5,54d2 <__subsf3+0x17a>
    5556:	bff1                	j	5532 <__subsf3+0x1da>
    5558:	08089963          	bnez	a7,55ea <__subsf3+0x292>
    555c:	00168913          	addi	s2,a3,1 # 7e000001 <_eusrstack+0x5dffb001>
    5560:	0fe97713          	andi	a4,s2,254
    5564:	12071663          	bnez	a4,5690 <__subsf3+0x338>
    5568:	10069b63          	bnez	a3,567e <__subsf3+0x326>
    556c:	160f0363          	beqz	t5,56d2 <__subsf3+0x37a>
    5570:	ee0502e3          	beqz	a0,5454 <__subsf3+0xfc>
    5574:	00af07b3          	add	a5,t5,a0
    5578:	00579713          	slli	a4,a5,0x5
    557c:	4901                	li	s2,0
    557e:	00075763          	bgez	a4,558c <__subsf3+0x234>
    5582:	fc000737          	lui	a4,0xfc000
    5586:	177d                	addi	a4,a4,-1
    5588:	8ff9                	and	a5,a5,a4
    558a:	4905                	li	s2,1
    558c:	0077f713          	andi	a4,a5,7
    5590:	e8071ce3          	bnez	a4,5428 <__subsf3+0xd0>
    5594:	0037de13          	srli	t3,a5,0x3
    5598:	0ff00793          	li	a5,255
    559c:	f8f90be3          	beq	s2,a5,5532 <__subsf3+0x1da>
    55a0:	009e1793          	slli	a5,t3,0x9
    55a4:	83a5                	srli	a5,a5,0x9
    55a6:	0ff97693          	andi	a3,s2,255
    55aa:	0014fe93          	andi	t4,s1,1
    55ae:	b55d                	j	5454 <__subsf3+0xfc>
    55b0:	0014fe93          	andi	t4,s1,1
    55b4:	0ff00693          	li	a3,255
    55b8:	4781                	li	a5,0
    55ba:	bd69                	j	5454 <__subsf3+0xfc>
    55bc:	fc000737          	lui	a4,0xfc000
    55c0:	177d                	addi	a4,a4,-1
    55c2:	8ff9                	and	a5,a5,a4
    55c4:	0077f713          	andi	a4,a5,7
    55c8:	40a90933          	sub	s2,s2,a0
    55cc:	e4071ee3          	bnez	a4,5428 <__subsf3+0xd0>
    55d0:	b7d1                	j	5594 <__subsf3+0x23c>
    55d2:	40af0433          	sub	s0,t5,a0
    55d6:	00541793          	slli	a5,s0,0x5
    55da:	0c07c363          	bltz	a5,56a0 <__subsf3+0x348>
    55de:	e0041ce3          	bnez	s0,53f6 <__subsf3+0x9e>
    55e2:	4e81                	li	t4,0
    55e4:	4681                	li	a3,0
    55e6:	4781                	li	a5,0
    55e8:	b5b5                	j	5454 <__subsf3+0xfc>
    55ea:	40d80733          	sub	a4,a6,a3
    55ee:	c6b5                	beqz	a3,565a <__subsf3+0x302>
    55f0:	0ff00793          	li	a5,255
    55f4:	f2f80ee3          	beq	a6,a5,5530 <__subsf3+0x1d8>
    55f8:	040007b7          	lui	a5,0x4000
    55fc:	00ff6f33          	or	t5,t5,a5
    5600:	47ed                	li	a5,27
    5602:	0ce7cd63          	blt	a5,a4,56dc <__subsf3+0x384>
    5606:	02000793          	li	a5,32
    560a:	8f99                	sub	a5,a5,a4
    560c:	00ff17b3          	sll	a5,t5,a5
    5610:	00ef5733          	srl	a4,t5,a4
    5614:	00f037b3          	snez	a5,a5
    5618:	8f5d                	or	a4,a4,a5
    561a:	00a707b3          	add	a5,a4,a0
    561e:	8942                	mv	s2,a6
    5620:	bdc1                	j	54f0 <__subsf3+0x198>
    5622:	0ff00793          	li	a5,255
    5626:	f0f804e3          	beq	a6,a5,552e <__subsf3+0x1d6>
    562a:	040007b7          	lui	a5,0x4000
    562e:	00ff6f33          	or	t5,t5,a5
    5632:	47ed                	li	a5,27
    5634:	08e7c263          	blt	a5,a4,56b8 <__subsf3+0x360>
    5638:	02000793          	li	a5,32
    563c:	8f99                	sub	a5,a5,a4
    563e:	00ff17b3          	sll	a5,t5,a5
    5642:	00ef5733          	srl	a4,t5,a4
    5646:	00f037b3          	snez	a5,a5
    564a:	8fd9                	or	a5,a5,a4
    564c:	40f507b3          	sub	a5,a0,a5
    5650:	8942                	mv	s2,a6
    5652:	84ae                	mv	s1,a1
    5654:	bb49                	j	53e6 <__subsf3+0x8e>
    5656:	4785                	li	a5,1
    5658:	b369                	j	53e2 <__subsf3+0x8a>
    565a:	060f0e63          	beqz	t5,56d6 <__subsf3+0x37e>
    565e:	177d                	addi	a4,a4,-1
    5660:	00af07b3          	add	a5,t5,a0
    5664:	8942                	mv	s2,a6
    5666:	e80705e3          	beqz	a4,54f0 <__subsf3+0x198>
    566a:	0ff00793          	li	a5,255
    566e:	f8f819e3          	bne	a6,a5,5600 <__subsf3+0x2a8>
    5672:	8e32                	mv	t3,a2
    5674:	bd7d                	j	5532 <__subsf3+0x1da>
    5676:	8e32                	mv	t3,a2
    5678:	8942                	mv	s2,a6
    567a:	84ae                	mv	s1,a1
    567c:	bf31                	j	5598 <__subsf3+0x240>
    567e:	ea0f09e3          	beqz	t5,5530 <__subsf3+0x1d8>
    5682:	ea0508e3          	beqz	a0,5532 <__subsf3+0x1da>
    5686:	bd45                	j	5536 <__subsf3+0x1de>
    5688:	cd0d                	beqz	a0,56c2 <__subsf3+0x36a>
    568a:	8eae                	mv	t4,a1
    568c:	87b2                	mv	a5,a2
    568e:	b3d9                	j	5454 <__subsf3+0xfc>
    5690:	0ff00793          	li	a5,255
    5694:	f2f900e3          	beq	s2,a5,55b4 <__subsf3+0x25c>
    5698:	00af07b3          	add	a5,t5,a0
    569c:	8385                	srli	a5,a5,0x1
    569e:	b5fd                	j	558c <__subsf3+0x234>
    56a0:	41e50433          	sub	s0,a0,t5
    56a4:	84ae                	mv	s1,a1
    56a6:	bb81                	j	53f6 <__subsf3+0x9e>
    56a8:	fc0f1de3          	bnez	t5,5682 <__subsf3+0x32a>
    56ac:	e80505e3          	beqz	a0,5536 <__subsf3+0x1de>
    56b0:	84ae                	mv	s1,a1
    56b2:	bdbd                	j	5530 <__subsf3+0x1d8>
    56b4:	4785                	li	a5,1
    56b6:	bd25                	j	54ee <__subsf3+0x196>
    56b8:	4785                	li	a5,1
    56ba:	bf49                	j	564c <__subsf3+0x2f4>
    56bc:	4901                	li	s2,0
    56be:	ec0797e3          	bnez	a5,558c <__subsf3+0x234>
    56c2:	4e81                	li	t4,0
    56c4:	4781                	li	a5,0
    56c6:	b379                	j	5454 <__subsf3+0xfc>
    56c8:	41e507b3          	sub	a5,a0,t5
    56cc:	8942                	mv	s2,a6
    56ce:	84ae                	mv	s1,a1
    56d0:	bb19                	j	53e6 <__subsf3+0x8e>
    56d2:	87b2                	mv	a5,a2
    56d4:	b341                	j	5454 <__subsf3+0xfc>
    56d6:	8e32                	mv	t3,a2
    56d8:	8942                	mv	s2,a6
    56da:	bd7d                	j	5598 <__subsf3+0x240>
    56dc:	4705                	li	a4,1
    56de:	bf35                	j	561a <__subsf3+0x2c2>

000056e0 <__fixsfsi>:
    56e0:	00800637          	lui	a2,0x800
    56e4:	01755713          	srli	a4,a0,0x17
    56e8:	fff60793          	addi	a5,a2,-1 # 7fffff <_data_lma+0x7f91f7>
    56ec:	0ff77713          	andi	a4,a4,255
    56f0:	07e00593          	li	a1,126
    56f4:	00a7f6b3          	and	a3,a5,a0
    56f8:	01f55793          	srli	a5,a0,0x1f
    56fc:	00e5fc63          	bgeu	a1,a4,5714 <__fixsfsi+0x34>
    5700:	09d00593          	li	a1,157
    5704:	00e5fa63          	bgeu	a1,a4,5718 <__fixsfsi+0x38>
    5708:	80000537          	lui	a0,0x80000
    570c:	fff54513          	not	a0,a0
    5710:	953e                	add	a0,a0,a5
    5712:	8082                	ret
    5714:	4501                	li	a0,0
    5716:	8082                	ret
    5718:	09500593          	li	a1,149
    571c:	8ed1                	or	a3,a3,a2
    571e:	00e5cd63          	blt	a1,a4,5738 <__fixsfsi+0x58>
    5722:	09600613          	li	a2,150
    5726:	40e60733          	sub	a4,a2,a4
    572a:	00e6d733          	srl	a4,a3,a4
    572e:	40e00533          	neg	a0,a4
    5732:	f3f5                	bnez	a5,5716 <__fixsfsi+0x36>
    5734:	853a                	mv	a0,a4
    5736:	8082                	ret
    5738:	f6a70713          	addi	a4,a4,-150 # fbffff6a <_eusrstack+0xdbffaf6a>
    573c:	00e69733          	sll	a4,a3,a4
    5740:	b7fd                	j	572e <__fixsfsi+0x4e>

00005742 <__fixunssfsi>:
    5742:	01755713          	srli	a4,a0,0x17
    5746:	00800637          	lui	a2,0x800
    574a:	fff60793          	addi	a5,a2,-1 # 7fffff <_data_lma+0x7f91f7>
    574e:	0ff77713          	andi	a4,a4,255
    5752:	07e00593          	li	a1,126
    5756:	00a7f6b3          	and	a3,a5,a0
    575a:	01f55793          	srli	a5,a0,0x1f
    575e:	4501                	li	a0,0
    5760:	00e5f463          	bgeu	a1,a4,5768 <__fixunssfsi+0x26>
    5764:	c399                	beqz	a5,576a <__fixunssfsi+0x28>
    5766:	8082                	ret
    5768:	8082                	ret
    576a:	09e00793          	li	a5,158
    576e:	557d                	li	a0,-1
    5770:	fee7ebe3          	bltu	a5,a4,5766 <__fixunssfsi+0x24>
    5774:	09500593          	li	a1,149
    5778:	00c6e7b3          	or	a5,a3,a2
    577c:	00e5d763          	bge	a1,a4,578a <__fixunssfsi+0x48>
    5780:	f6a70713          	addi	a4,a4,-150
    5784:	00e79533          	sll	a0,a5,a4
    5788:	8082                	ret
    578a:	09600513          	li	a0,150
    578e:	40e50733          	sub	a4,a0,a4
    5792:	00e7d533          	srl	a0,a5,a4
    5796:	8082                	ret

00005798 <__floatsisf>:
    5798:	1141                	addi	sp,sp,-16
    579a:	c606                	sw	ra,12(sp)
    579c:	c422                	sw	s0,8(sp)
    579e:	c226                	sw	s1,4(sp)
    57a0:	cd0d                	beqz	a0,57da <__floatsisf+0x42>
    57a2:	41f55793          	srai	a5,a0,0x1f
    57a6:	00a7c433          	xor	s0,a5,a0
    57aa:	8c1d                	sub	s0,s0,a5
    57ac:	84aa                	mv	s1,a0
    57ae:	8522                	mv	a0,s0
    57b0:	2ab5                	jal	592c <__clzsi2>
    57b2:	09e00793          	li	a5,158
    57b6:	40a78733          	sub	a4,a5,a0
    57ba:	09600793          	li	a5,150
    57be:	80fd                	srli	s1,s1,0x1f
    57c0:	02e7cc63          	blt	a5,a4,57f8 <__floatsisf+0x60>
    57c4:	46a1                	li	a3,8
    57c6:	0ff77793          	andi	a5,a4,255
    57ca:	00a6d563          	bge	a3,a0,57d4 <__floatsisf+0x3c>
    57ce:	1561                	addi	a0,a0,-8
    57d0:	00a41433          	sll	s0,s0,a0
    57d4:	0426                	slli	s0,s0,0x9
    57d6:	8025                	srli	s0,s0,0x9
    57d8:	a021                	j	57e0 <__floatsisf+0x48>
    57da:	4481                	li	s1,0
    57dc:	4781                	li	a5,0
    57de:	4401                	li	s0,0
    57e0:	0426                	slli	s0,s0,0x9
    57e2:	00945513          	srli	a0,s0,0x9
    57e6:	40b2                	lw	ra,12(sp)
    57e8:	4422                	lw	s0,8(sp)
    57ea:	07de                	slli	a5,a5,0x17
    57ec:	04fe                	slli	s1,s1,0x1f
    57ee:	8d5d                	or	a0,a0,a5
    57f0:	8d45                	or	a0,a0,s1
    57f2:	4492                	lw	s1,4(sp)
    57f4:	0141                	addi	sp,sp,16
    57f6:	8082                	ret
    57f8:	09900793          	li	a5,153
    57fc:	00e7dd63          	bge	a5,a4,5816 <__floatsisf+0x7e>
    5800:	01b50793          	addi	a5,a0,27 # 8000001b <_eusrstack+0x5fffb01b>
    5804:	4695                	li	a3,5
    5806:	00f417b3          	sll	a5,s0,a5
    580a:	8e89                	sub	a3,a3,a0
    580c:	00d45433          	srl	s0,s0,a3
    5810:	00f037b3          	snez	a5,a5
    5814:	8c5d                	or	s0,s0,a5
    5816:	4795                	li	a5,5
    5818:	00a7d663          	bge	a5,a0,5824 <__floatsisf+0x8c>
    581c:	ffb50793          	addi	a5,a0,-5
    5820:	00f41433          	sll	s0,s0,a5
    5824:	fc0006b7          	lui	a3,0xfc000
    5828:	16fd                	addi	a3,a3,-1
    582a:	00747793          	andi	a5,s0,7
    582e:	00d47633          	and	a2,s0,a3
    5832:	c385                	beqz	a5,5852 <__floatsisf+0xba>
    5834:	00f47793          	andi	a5,s0,15
    5838:	4591                	li	a1,4
    583a:	00b78c63          	beq	a5,a1,5852 <__floatsisf+0xba>
    583e:	0611                	addi	a2,a2,4
    5840:	00561793          	slli	a5,a2,0x5
    5844:	0007d763          	bgez	a5,5852 <__floatsisf+0xba>
    5848:	09f00793          	li	a5,159
    584c:	8e75                	and	a2,a2,a3
    584e:	40a78733          	sub	a4,a5,a0
    5852:	00661413          	slli	s0,a2,0x6
    5856:	8025                	srli	s0,s0,0x9
    5858:	0ff77793          	andi	a5,a4,255
    585c:	b751                	j	57e0 <__floatsisf+0x48>

0000585e <__floatunsisf>:
    585e:	1141                	addi	sp,sp,-16
    5860:	c606                	sw	ra,12(sp)
    5862:	c422                	sw	s0,8(sp)
    5864:	cd15                	beqz	a0,58a0 <__floatunsisf+0x42>
    5866:	842a                	mv	s0,a0
    5868:	20d1                	jal	592c <__clzsi2>
    586a:	09e00793          	li	a5,158
    586e:	40a78733          	sub	a4,a5,a0
    5872:	09600793          	li	a5,150
    5876:	04e7c063          	blt	a5,a4,58b6 <__floatunsisf+0x58>
    587a:	46a1                	li	a3,8
    587c:	0ff77793          	andi	a5,a4,255
    5880:	00a6d563          	bge	a3,a0,588a <__floatunsisf+0x2c>
    5884:	1561                	addi	a0,a0,-8
    5886:	00a41433          	sll	s0,s0,a0
    588a:	0426                	slli	s0,s0,0x9
    588c:	8025                	srli	s0,s0,0x9
    588e:	0426                	slli	s0,s0,0x9
    5890:	00945513          	srli	a0,s0,0x9
    5894:	40b2                	lw	ra,12(sp)
    5896:	4422                	lw	s0,8(sp)
    5898:	07de                	slli	a5,a5,0x17
    589a:	8d5d                	or	a0,a0,a5
    589c:	0141                	addi	sp,sp,16
    589e:	8082                	ret
    58a0:	4401                	li	s0,0
    58a2:	0426                	slli	s0,s0,0x9
    58a4:	00945513          	srli	a0,s0,0x9
    58a8:	40b2                	lw	ra,12(sp)
    58aa:	4422                	lw	s0,8(sp)
    58ac:	4781                	li	a5,0
    58ae:	07de                	slli	a5,a5,0x17
    58b0:	8d5d                	or	a0,a0,a5
    58b2:	0141                	addi	sp,sp,16
    58b4:	8082                	ret
    58b6:	09900793          	li	a5,153
    58ba:	00e7dd63          	bge	a5,a4,58d4 <__floatunsisf+0x76>
    58be:	01b50793          	addi	a5,a0,27
    58c2:	4695                	li	a3,5
    58c4:	00f417b3          	sll	a5,s0,a5
    58c8:	8e89                	sub	a3,a3,a0
    58ca:	00f037b3          	snez	a5,a5
    58ce:	00d45433          	srl	s0,s0,a3
    58d2:	8c5d                	or	s0,s0,a5
    58d4:	4795                	li	a5,5
    58d6:	00a7d663          	bge	a5,a0,58e2 <__floatunsisf+0x84>
    58da:	ffb50793          	addi	a5,a0,-5
    58de:	00f41433          	sll	s0,s0,a5
    58e2:	fc0006b7          	lui	a3,0xfc000
    58e6:	16fd                	addi	a3,a3,-1
    58e8:	00747793          	andi	a5,s0,7
    58ec:	00d47633          	and	a2,s0,a3
    58f0:	c385                	beqz	a5,5910 <__floatunsisf+0xb2>
    58f2:	00f47793          	andi	a5,s0,15
    58f6:	4591                	li	a1,4
    58f8:	00b78c63          	beq	a5,a1,5910 <__floatunsisf+0xb2>
    58fc:	0611                	addi	a2,a2,4
    58fe:	00561793          	slli	a5,a2,0x5
    5902:	0007d763          	bgez	a5,5910 <__floatunsisf+0xb2>
    5906:	09f00793          	li	a5,159
    590a:	8e75                	and	a2,a2,a3
    590c:	40a78733          	sub	a4,a5,a0
    5910:	00661413          	slli	s0,a2,0x6
    5914:	8025                	srli	s0,s0,0x9
    5916:	0426                	slli	s0,s0,0x9
    5918:	00945513          	srli	a0,s0,0x9
    591c:	40b2                	lw	ra,12(sp)
    591e:	4422                	lw	s0,8(sp)
    5920:	0ff77793          	andi	a5,a4,255
    5924:	07de                	slli	a5,a5,0x17
    5926:	8d5d                	or	a0,a0,a5
    5928:	0141                	addi	sp,sp,16
    592a:	8082                	ret

0000592c <__clzsi2>:
    592c:	67c1                	lui	a5,0x10
    592e:	02f57c63          	bgeu	a0,a5,5966 <__clzsi2+0x3a>
    5932:	0ff00793          	li	a5,255
    5936:	02000713          	li	a4,32
    593a:	00a7eb63          	bltu	a5,a0,5950 <__clzsi2+0x24>
    593e:	00001797          	auipc	a5,0x1
    5942:	38e78793          	addi	a5,a5,910 # 6ccc <__clz_tab>
    5946:	97aa                	add	a5,a5,a0
    5948:	2388                	lbu	a0,0(a5)
    594a:	40a70533          	sub	a0,a4,a0
    594e:	8082                	ret
    5950:	8121                	srli	a0,a0,0x8
    5952:	00001797          	auipc	a5,0x1
    5956:	37a78793          	addi	a5,a5,890 # 6ccc <__clz_tab>
    595a:	97aa                	add	a5,a5,a0
    595c:	2388                	lbu	a0,0(a5)
    595e:	4761                	li	a4,24
    5960:	40a70533          	sub	a0,a4,a0
    5964:	8082                	ret
    5966:	010007b7          	lui	a5,0x1000
    596a:	00f56d63          	bltu	a0,a5,5984 <__clzsi2+0x58>
    596e:	8161                	srli	a0,a0,0x18
    5970:	00001797          	auipc	a5,0x1
    5974:	35c78793          	addi	a5,a5,860 # 6ccc <__clz_tab>
    5978:	97aa                	add	a5,a5,a0
    597a:	2388                	lbu	a0,0(a5)
    597c:	4721                	li	a4,8
    597e:	40a70533          	sub	a0,a4,a0
    5982:	8082                	ret
    5984:	8141                	srli	a0,a0,0x10
    5986:	00001797          	auipc	a5,0x1
    598a:	34678793          	addi	a5,a5,838 # 6ccc <__clz_tab>
    598e:	97aa                	add	a5,a5,a0
    5990:	2388                	lbu	a0,0(a5)
    5992:	4741                	li	a4,16
    5994:	40a70533          	sub	a0,a4,a0
    5998:	8082                	ret

0000599a <siprintf>:
    599a:	7135                	addi	sp,sp,-160
    599c:	cb3e                	sw	a5,148(sp)
    599e:	800007b7          	lui	a5,0x80000
    59a2:	fff7c793          	not	a5,a5
    59a6:	ce3e                	sw	a5,28(sp)
    59a8:	c83e                	sw	a5,16(sp)
    59aa:	77c1                	lui	a5,0xffff0
    59ac:	20878793          	addi	a5,a5,520 # ffff0208 <_eusrstack+0xdffeb208>
    59b0:	c532                	sw	a2,136(sp)
    59b2:	c736                	sw	a3,140(sp)
    59b4:	c93a                	sw	a4,144(sp)
    59b6:	cd42                	sw	a6,152(sp)
    59b8:	cf46                	sw	a7,156(sp)
    59ba:	ca3e                	sw	a5,20(sp)
    59bc:	80818793          	addi	a5,gp,-2040 # 20000138 <_impure_ptr>
    59c0:	c42a                	sw	a0,8(sp)
    59c2:	cc2a                	sw	a0,24(sp)
    59c4:	4388                	lw	a0,0(a5)
    59c6:	0134                	addi	a3,sp,136
    59c8:	862e                	mv	a2,a1
    59ca:	002c                	addi	a1,sp,8
    59cc:	de86                	sw	ra,124(sp)
    59ce:	c236                	sw	a3,4(sp)
    59d0:	28fd                	jal	5ace <_svfiprintf_r>
    59d2:	47a2                	lw	a5,8(sp)
    59d4:	00078023          	sb	zero,0(a5)
    59d8:	50f6                	lw	ra,124(sp)
    59da:	610d                	addi	sp,sp,160
    59dc:	8082                	ret

000059de <strlen>:
    59de:	87aa                	mv	a5,a0
    59e0:	0785                	addi	a5,a5,1
    59e2:	fff7c703          	lbu	a4,-1(a5)
    59e6:	ff6d                	bnez	a4,59e0 <strlen+0x2>
    59e8:	40a78533          	sub	a0,a5,a0
    59ec:	157d                	addi	a0,a0,-1
    59ee:	8082                	ret

000059f0 <__ssputs_r>:
    59f0:	1101                	addi	sp,sp,-32
    59f2:	c84a                	sw	s2,16(sp)
    59f4:	0085a903          	lw	s2,8(a1)
    59f8:	cc22                	sw	s0,24(sp)
    59fa:	c452                	sw	s4,8(sp)
    59fc:	c05a                	sw	s6,0(sp)
    59fe:	ce06                	sw	ra,28(sp)
    5a00:	ca26                	sw	s1,20(sp)
    5a02:	c64e                	sw	s3,12(sp)
    5a04:	c256                	sw	s5,4(sp)
    5a06:	842e                	mv	s0,a1
    5a08:	8b32                	mv	s6,a2
    5a0a:	8a36                	mv	s4,a3
    5a0c:	0926e863          	bltu	a3,s2,5a9c <__ssputs_r+0xac>
    5a10:	25de                	lhu	a5,12(a1)
    5a12:	4807f713          	andi	a4,a5,1152
    5a16:	c349                	beqz	a4,5a98 <__ssputs_r+0xa8>
    5a18:	4004                	lw	s1,0(s0)
    5a1a:	498c                	lw	a1,16(a1)
    5a1c:	4858                	lw	a4,20(s0)
    5a1e:	8aaa                	mv	s5,a0
    5a20:	40b489b3          	sub	s3,s1,a1
    5a24:	448d                	li	s1,3
    5a26:	02e484b3          	mul	s1,s1,a4
    5a2a:	4709                	li	a4,2
    5a2c:	02e4c4b3          	div	s1,s1,a4
    5a30:	00168713          	addi	a4,a3,1 # fc000001 <_eusrstack+0xdbffb001>
    5a34:	974e                	add	a4,a4,s3
    5a36:	00e4f363          	bgeu	s1,a4,5a3c <__ssputs_r+0x4c>
    5a3a:	84ba                	mv	s1,a4
    5a3c:	4007f793          	andi	a5,a5,1024
    5a40:	cfad                	beqz	a5,5aba <__ssputs_r+0xca>
    5a42:	85a6                	mv	a1,s1
    5a44:	8556                	mv	a0,s5
    5a46:	04d000ef          	jal	ra,6292 <_malloc_r>
    5a4a:	892a                	mv	s2,a0
    5a4c:	e11d                	bnez	a0,5a72 <__ssputs_r+0x82>
    5a4e:	47b1                	li	a5,12
    5a50:	00faa023          	sw	a5,0(s5)
    5a54:	245e                	lhu	a5,12(s0)
    5a56:	557d                	li	a0,-1
    5a58:	0407e793          	ori	a5,a5,64
    5a5c:	a45e                	sh	a5,12(s0)
    5a5e:	40f2                	lw	ra,28(sp)
    5a60:	4462                	lw	s0,24(sp)
    5a62:	44d2                	lw	s1,20(sp)
    5a64:	4942                	lw	s2,16(sp)
    5a66:	49b2                	lw	s3,12(sp)
    5a68:	4a22                	lw	s4,8(sp)
    5a6a:	4a92                	lw	s5,4(sp)
    5a6c:	4b02                	lw	s6,0(sp)
    5a6e:	6105                	addi	sp,sp,32
    5a70:	8082                	ret
    5a72:	480c                	lw	a1,16(s0)
    5a74:	864e                	mv	a2,s3
    5a76:	2541                	jal	60f6 <memcpy>
    5a78:	245e                	lhu	a5,12(s0)
    5a7a:	b7f7f793          	andi	a5,a5,-1153
    5a7e:	0807e793          	ori	a5,a5,128
    5a82:	a45e                	sh	a5,12(s0)
    5a84:	01242823          	sw	s2,16(s0) # 4000010 <_data_lma+0x3ff9208>
    5a88:	c844                	sw	s1,20(s0)
    5a8a:	994e                	add	s2,s2,s3
    5a8c:	413484b3          	sub	s1,s1,s3
    5a90:	01242023          	sw	s2,0(s0)
    5a94:	c404                	sw	s1,8(s0)
    5a96:	8952                	mv	s2,s4
    5a98:	012a7363          	bgeu	s4,s2,5a9e <__ssputs_r+0xae>
    5a9c:	8952                	mv	s2,s4
    5a9e:	4008                	lw	a0,0(s0)
    5aa0:	864a                	mv	a2,s2
    5aa2:	85da                	mv	a1,s6
    5aa4:	2711                	jal	61a8 <memmove>
    5aa6:	441c                	lw	a5,8(s0)
    5aa8:	4501                	li	a0,0
    5aaa:	412787b3          	sub	a5,a5,s2
    5aae:	c41c                	sw	a5,8(s0)
    5ab0:	401c                	lw	a5,0(s0)
    5ab2:	993e                	add	s2,s2,a5
    5ab4:	01242023          	sw	s2,0(s0)
    5ab8:	b75d                	j	5a5e <__ssputs_r+0x6e>
    5aba:	8626                	mv	a2,s1
    5abc:	8556                	mv	a0,s5
    5abe:	0a3000ef          	jal	ra,6360 <_realloc_r>
    5ac2:	892a                	mv	s2,a0
    5ac4:	f161                	bnez	a0,5a84 <__ssputs_r+0x94>
    5ac6:	480c                	lw	a1,16(s0)
    5ac8:	8556                	mv	a0,s5
    5aca:	2715                	jal	61ee <_free_r>
    5acc:	b749                	j	5a4e <__ssputs_r+0x5e>

00005ace <_svfiprintf_r>:
    5ace:	25de                	lhu	a5,12(a1)
    5ad0:	7171                	addi	sp,sp,-176
    5ad2:	d326                	sw	s1,164(sp)
    5ad4:	d14a                	sw	s2,160(sp)
    5ad6:	cf4e                	sw	s3,156(sp)
    5ad8:	d706                	sw	ra,172(sp)
    5ada:	d522                	sw	s0,168(sp)
    5adc:	cd52                	sw	s4,152(sp)
    5ade:	cb56                	sw	s5,148(sp)
    5ae0:	c95a                	sw	s6,144(sp)
    5ae2:	c75e                	sw	s7,140(sp)
    5ae4:	c562                	sw	s8,136(sp)
    5ae6:	c366                	sw	s9,132(sp)
    5ae8:	0807f793          	andi	a5,a5,128
    5aec:	89aa                	mv	s3,a0
    5aee:	892e                	mv	s2,a1
    5af0:	84b2                	mv	s1,a2
    5af2:	c3b1                	beqz	a5,5b36 <_svfiprintf_r+0x68>
    5af4:	499c                	lw	a5,16(a1)
    5af6:	e3a1                	bnez	a5,5b36 <_svfiprintf_r+0x68>
    5af8:	04000593          	li	a1,64
    5afc:	c636                	sw	a3,12(sp)
    5afe:	2f51                	jal	6292 <_malloc_r>
    5b00:	00a92023          	sw	a0,0(s2)
    5b04:	00a92823          	sw	a0,16(s2)
    5b08:	46b2                	lw	a3,12(sp)
    5b0a:	e115                	bnez	a0,5b2e <_svfiprintf_r+0x60>
    5b0c:	47b1                	li	a5,12
    5b0e:	00f9a023          	sw	a5,0(s3)
    5b12:	557d                	li	a0,-1
    5b14:	50ba                	lw	ra,172(sp)
    5b16:	542a                	lw	s0,168(sp)
    5b18:	549a                	lw	s1,164(sp)
    5b1a:	590a                	lw	s2,160(sp)
    5b1c:	49fa                	lw	s3,156(sp)
    5b1e:	4a6a                	lw	s4,152(sp)
    5b20:	4ada                	lw	s5,148(sp)
    5b22:	4b4a                	lw	s6,144(sp)
    5b24:	4bba                	lw	s7,140(sp)
    5b26:	4c2a                	lw	s8,136(sp)
    5b28:	4c9a                	lw	s9,132(sp)
    5b2a:	614d                	addi	sp,sp,176
    5b2c:	8082                	ret
    5b2e:	04000793          	li	a5,64
    5b32:	00f92a23          	sw	a5,20(s2)
    5b36:	02000793          	li	a5,32
    5b3a:	02f10ca3          	sb	a5,57(sp)
    5b3e:	03000793          	li	a5,48
    5b42:	da02                	sw	zero,52(sp)
    5b44:	02f10d23          	sb	a5,58(sp)
    5b48:	ce36                	sw	a3,28(sp)
    5b4a:	02500b93          	li	s7,37
    5b4e:	00001a97          	auipc	s5,0x1
    5b52:	27ea8a93          	addi	s5,s5,638 # 6dcc <__clz_tab+0x100>
    5b56:	4c05                	li	s8,1
    5b58:	4b29                	li	s6,10
    5b5a:	8426                	mv	s0,s1
    5b5c:	201c                	lbu	a5,0(s0)
    5b5e:	c399                	beqz	a5,5b64 <_svfiprintf_r+0x96>
    5b60:	09779863          	bne	a5,s7,5bf0 <_svfiprintf_r+0x122>
    5b64:	40940cb3          	sub	s9,s0,s1
    5b68:	000c8e63          	beqz	s9,5b84 <_svfiprintf_r+0xb6>
    5b6c:	86e6                	mv	a3,s9
    5b6e:	8626                	mv	a2,s1
    5b70:	85ca                	mv	a1,s2
    5b72:	854e                	mv	a0,s3
    5b74:	e7dff0ef          	jal	ra,59f0 <__ssputs_r>
    5b78:	57fd                	li	a5,-1
    5b7a:	18f50863          	beq	a0,a5,5d0a <_svfiprintf_r+0x23c>
    5b7e:	56d2                	lw	a3,52(sp)
    5b80:	96e6                	add	a3,a3,s9
    5b82:	da36                	sw	a3,52(sp)
    5b84:	201c                	lbu	a5,0(s0)
    5b86:	18078263          	beqz	a5,5d0a <_svfiprintf_r+0x23c>
    5b8a:	57fd                	li	a5,-1
    5b8c:	00140493          	addi	s1,s0,1
    5b90:	d002                	sw	zero,32(sp)
    5b92:	d602                	sw	zero,44(sp)
    5b94:	d23e                	sw	a5,36(sp)
    5b96:	d402                	sw	zero,40(sp)
    5b98:	060101a3          	sb	zero,99(sp)
    5b9c:	dc82                	sw	zero,120(sp)
    5b9e:	208c                	lbu	a1,0(s1)
    5ba0:	4615                	li	a2,5
    5ba2:	8556                	mv	a0,s5
    5ba4:	2b2d                	jal	60de <memchr>
    5ba6:	00148413          	addi	s0,s1,1
    5baa:	5782                	lw	a5,32(sp)
    5bac:	e521                	bnez	a0,5bf4 <_svfiprintf_r+0x126>
    5bae:	0107f713          	andi	a4,a5,16
    5bb2:	c709                	beqz	a4,5bbc <_svfiprintf_r+0xee>
    5bb4:	02000713          	li	a4,32
    5bb8:	06e101a3          	sb	a4,99(sp)
    5bbc:	0087f713          	andi	a4,a5,8
    5bc0:	c709                	beqz	a4,5bca <_svfiprintf_r+0xfc>
    5bc2:	02b00713          	li	a4,43
    5bc6:	06e101a3          	sb	a4,99(sp)
    5bca:	2094                	lbu	a3,0(s1)
    5bcc:	02a00713          	li	a4,42
    5bd0:	02e68a63          	beq	a3,a4,5c04 <_svfiprintf_r+0x136>
    5bd4:	57b2                	lw	a5,44(sp)
    5bd6:	8426                	mv	s0,s1
    5bd8:	4681                	li	a3,0
    5bda:	4625                	li	a2,9
    5bdc:	2018                	lbu	a4,0(s0)
    5bde:	00140593          	addi	a1,s0,1
    5be2:	fd070713          	addi	a4,a4,-48
    5be6:	06e67263          	bgeu	a2,a4,5c4a <_svfiprintf_r+0x17c>
    5bea:	c68d                	beqz	a3,5c14 <_svfiprintf_r+0x146>
    5bec:	d63e                	sw	a5,44(sp)
    5bee:	a01d                	j	5c14 <_svfiprintf_r+0x146>
    5bf0:	0405                	addi	s0,s0,1
    5bf2:	b7ad                	j	5b5c <_svfiprintf_r+0x8e>
    5bf4:	41550533          	sub	a0,a0,s5
    5bf8:	00ac1533          	sll	a0,s8,a0
    5bfc:	8fc9                	or	a5,a5,a0
    5bfe:	d03e                	sw	a5,32(sp)
    5c00:	84a2                	mv	s1,s0
    5c02:	bf71                	j	5b9e <_svfiprintf_r+0xd0>
    5c04:	4772                	lw	a4,28(sp)
    5c06:	00470693          	addi	a3,a4,4
    5c0a:	4318                	lw	a4,0(a4)
    5c0c:	ce36                	sw	a3,28(sp)
    5c0e:	02074763          	bltz	a4,5c3c <_svfiprintf_r+0x16e>
    5c12:	d63a                	sw	a4,44(sp)
    5c14:	2018                	lbu	a4,0(s0)
    5c16:	02e00793          	li	a5,46
    5c1a:	04f71d63          	bne	a4,a5,5c74 <_svfiprintf_r+0x1a6>
    5c1e:	3018                	lbu	a4,1(s0)
    5c20:	02a00793          	li	a5,42
    5c24:	02f71b63          	bne	a4,a5,5c5a <_svfiprintf_r+0x18c>
    5c28:	47f2                	lw	a5,28(sp)
    5c2a:	0409                	addi	s0,s0,2
    5c2c:	00478713          	addi	a4,a5,4
    5c30:	439c                	lw	a5,0(a5)
    5c32:	ce3a                	sw	a4,28(sp)
    5c34:	0207c163          	bltz	a5,5c56 <_svfiprintf_r+0x188>
    5c38:	d23e                	sw	a5,36(sp)
    5c3a:	a82d                	j	5c74 <_svfiprintf_r+0x1a6>
    5c3c:	40e00733          	neg	a4,a4
    5c40:	0027e793          	ori	a5,a5,2
    5c44:	d63a                	sw	a4,44(sp)
    5c46:	d03e                	sw	a5,32(sp)
    5c48:	b7f1                	j	5c14 <_svfiprintf_r+0x146>
    5c4a:	036787b3          	mul	a5,a5,s6
    5c4e:	4685                	li	a3,1
    5c50:	842e                	mv	s0,a1
    5c52:	97ba                	add	a5,a5,a4
    5c54:	b761                	j	5bdc <_svfiprintf_r+0x10e>
    5c56:	57fd                	li	a5,-1
    5c58:	b7c5                	j	5c38 <_svfiprintf_r+0x16a>
    5c5a:	0405                	addi	s0,s0,1
    5c5c:	d202                	sw	zero,36(sp)
    5c5e:	4681                	li	a3,0
    5c60:	4781                	li	a5,0
    5c62:	4625                	li	a2,9
    5c64:	2018                	lbu	a4,0(s0)
    5c66:	00140593          	addi	a1,s0,1
    5c6a:	fd070713          	addi	a4,a4,-48
    5c6e:	06e67463          	bgeu	a2,a4,5cd6 <_svfiprintf_r+0x208>
    5c72:	f2f9                	bnez	a3,5c38 <_svfiprintf_r+0x16a>
    5c74:	200c                	lbu	a1,0(s0)
    5c76:	460d                	li	a2,3
    5c78:	00001517          	auipc	a0,0x1
    5c7c:	15c50513          	addi	a0,a0,348 # 6dd4 <__clz_tab+0x108>
    5c80:	29b9                	jal	60de <memchr>
    5c82:	cd11                	beqz	a0,5c9e <_svfiprintf_r+0x1d0>
    5c84:	00001797          	auipc	a5,0x1
    5c88:	15078793          	addi	a5,a5,336 # 6dd4 <__clz_tab+0x108>
    5c8c:	8d1d                	sub	a0,a0,a5
    5c8e:	04000793          	li	a5,64
    5c92:	00a797b3          	sll	a5,a5,a0
    5c96:	5502                	lw	a0,32(sp)
    5c98:	0405                	addi	s0,s0,1
    5c9a:	8d5d                	or	a0,a0,a5
    5c9c:	d02a                	sw	a0,32(sp)
    5c9e:	200c                	lbu	a1,0(s0)
    5ca0:	4619                	li	a2,6
    5ca2:	00001517          	auipc	a0,0x1
    5ca6:	13650513          	addi	a0,a0,310 # 6dd8 <__clz_tab+0x10c>
    5caa:	00140493          	addi	s1,s0,1
    5cae:	02b10c23          	sb	a1,56(sp)
    5cb2:	2135                	jal	60de <memchr>
    5cb4:	c525                	beqz	a0,5d1c <_svfiprintf_r+0x24e>
    5cb6:	ffffa797          	auipc	a5,0xffffa
    5cba:	34a78793          	addi	a5,a5,842 # 0 <_sinit>
    5cbe:	e795                	bnez	a5,5cea <_svfiprintf_r+0x21c>
    5cc0:	5702                	lw	a4,32(sp)
    5cc2:	47f2                	lw	a5,28(sp)
    5cc4:	10077713          	andi	a4,a4,256
    5cc8:	cf09                	beqz	a4,5ce2 <_svfiprintf_r+0x214>
    5cca:	0791                	addi	a5,a5,4
    5ccc:	ce3e                	sw	a5,28(sp)
    5cce:	57d2                	lw	a5,52(sp)
    5cd0:	97d2                	add	a5,a5,s4
    5cd2:	da3e                	sw	a5,52(sp)
    5cd4:	b559                	j	5b5a <_svfiprintf_r+0x8c>
    5cd6:	036787b3          	mul	a5,a5,s6
    5cda:	4685                	li	a3,1
    5cdc:	842e                	mv	s0,a1
    5cde:	97ba                	add	a5,a5,a4
    5ce0:	b751                	j	5c64 <_svfiprintf_r+0x196>
    5ce2:	079d                	addi	a5,a5,7
    5ce4:	9be1                	andi	a5,a5,-8
    5ce6:	07a1                	addi	a5,a5,8
    5ce8:	b7d5                	j	5ccc <_svfiprintf_r+0x1fe>
    5cea:	0878                	addi	a4,sp,28
    5cec:	00000697          	auipc	a3,0x0
    5cf0:	d0468693          	addi	a3,a3,-764 # 59f0 <__ssputs_r>
    5cf4:	864a                	mv	a2,s2
    5cf6:	100c                	addi	a1,sp,32
    5cf8:	854e                	mv	a0,s3
    5cfa:	00000097          	auipc	ra,0x0
    5cfe:	000000e7          	jalr	zero # 0 <_sinit>
    5d02:	57fd                	li	a5,-1
    5d04:	8a2a                	mv	s4,a0
    5d06:	fcf514e3          	bne	a0,a5,5cce <_svfiprintf_r+0x200>
    5d0a:	00c95783          	lhu	a5,12(s2)
    5d0e:	557d                	li	a0,-1
    5d10:	0407f793          	andi	a5,a5,64
    5d14:	e00790e3          	bnez	a5,5b14 <_svfiprintf_r+0x46>
    5d18:	5552                	lw	a0,52(sp)
    5d1a:	bbed                	j	5b14 <_svfiprintf_r+0x46>
    5d1c:	0878                	addi	a4,sp,28
    5d1e:	00000697          	auipc	a3,0x0
    5d22:	cd268693          	addi	a3,a3,-814 # 59f0 <__ssputs_r>
    5d26:	864a                	mv	a2,s2
    5d28:	100c                	addi	a1,sp,32
    5d2a:	854e                	mv	a0,s3
    5d2c:	2a01                	jal	5e3c <_printf_i>
    5d2e:	bfd1                	j	5d02 <_svfiprintf_r+0x234>

00005d30 <_printf_common>:
    5d30:	7179                	addi	sp,sp,-48
    5d32:	ca56                	sw	s5,20(sp)
    5d34:	499c                	lw	a5,16(a1)
    5d36:	8aba                	mv	s5,a4
    5d38:	4598                	lw	a4,8(a1)
    5d3a:	d422                	sw	s0,40(sp)
    5d3c:	d226                	sw	s1,36(sp)
    5d3e:	ce4e                	sw	s3,28(sp)
    5d40:	cc52                	sw	s4,24(sp)
    5d42:	d606                	sw	ra,44(sp)
    5d44:	d04a                	sw	s2,32(sp)
    5d46:	c85a                	sw	s6,16(sp)
    5d48:	c65e                	sw	s7,12(sp)
    5d4a:	89aa                	mv	s3,a0
    5d4c:	842e                	mv	s0,a1
    5d4e:	84b2                	mv	s1,a2
    5d50:	8a36                	mv	s4,a3
    5d52:	00e7d363          	bge	a5,a4,5d58 <_printf_common+0x28>
    5d56:	87ba                	mv	a5,a4
    5d58:	c09c                	sw	a5,0(s1)
    5d5a:	04344703          	lbu	a4,67(s0)
    5d5e:	c319                	beqz	a4,5d64 <_printf_common+0x34>
    5d60:	0785                	addi	a5,a5,1
    5d62:	c09c                	sw	a5,0(s1)
    5d64:	401c                	lw	a5,0(s0)
    5d66:	0207f793          	andi	a5,a5,32
    5d6a:	c781                	beqz	a5,5d72 <_printf_common+0x42>
    5d6c:	409c                	lw	a5,0(s1)
    5d6e:	0789                	addi	a5,a5,2
    5d70:	c09c                	sw	a5,0(s1)
    5d72:	00042903          	lw	s2,0(s0)
    5d76:	00697913          	andi	s2,s2,6
    5d7a:	00091a63          	bnez	s2,5d8e <_printf_common+0x5e>
    5d7e:	01940b13          	addi	s6,s0,25
    5d82:	5bfd                	li	s7,-1
    5d84:	445c                	lw	a5,12(s0)
    5d86:	4098                	lw	a4,0(s1)
    5d88:	8f99                	sub	a5,a5,a4
    5d8a:	04f94c63          	blt	s2,a5,5de2 <_printf_common+0xb2>
    5d8e:	401c                	lw	a5,0(s0)
    5d90:	04344683          	lbu	a3,67(s0)
    5d94:	0207f793          	andi	a5,a5,32
    5d98:	00d036b3          	snez	a3,a3
    5d9c:	eba5                	bnez	a5,5e0c <_printf_common+0xdc>
    5d9e:	04340613          	addi	a2,s0,67
    5da2:	85d2                	mv	a1,s4
    5da4:	854e                	mv	a0,s3
    5da6:	9a82                	jalr	s5
    5da8:	57fd                	li	a5,-1
    5daa:	04f50363          	beq	a0,a5,5df0 <_printf_common+0xc0>
    5dae:	401c                	lw	a5,0(s0)
    5db0:	4611                	li	a2,4
    5db2:	4098                	lw	a4,0(s1)
    5db4:	8b99                	andi	a5,a5,6
    5db6:	4454                	lw	a3,12(s0)
    5db8:	4481                	li	s1,0
    5dba:	00c79763          	bne	a5,a2,5dc8 <_printf_common+0x98>
    5dbe:	40e684b3          	sub	s1,a3,a4
    5dc2:	0004d363          	bgez	s1,5dc8 <_printf_common+0x98>
    5dc6:	4481                	li	s1,0
    5dc8:	441c                	lw	a5,8(s0)
    5dca:	4818                	lw	a4,16(s0)
    5dcc:	00f75463          	bge	a4,a5,5dd4 <_printf_common+0xa4>
    5dd0:	8f99                	sub	a5,a5,a4
    5dd2:	94be                	add	s1,s1,a5
    5dd4:	4901                	li	s2,0
    5dd6:	0469                	addi	s0,s0,26
    5dd8:	5b7d                	li	s6,-1
    5dda:	05249863          	bne	s1,s2,5e2a <_printf_common+0xfa>
    5dde:	4501                	li	a0,0
    5de0:	a809                	j	5df2 <_printf_common+0xc2>
    5de2:	4685                	li	a3,1
    5de4:	865a                	mv	a2,s6
    5de6:	85d2                	mv	a1,s4
    5de8:	854e                	mv	a0,s3
    5dea:	9a82                	jalr	s5
    5dec:	01751e63          	bne	a0,s7,5e08 <_printf_common+0xd8>
    5df0:	557d                	li	a0,-1
    5df2:	50b2                	lw	ra,44(sp)
    5df4:	5422                	lw	s0,40(sp)
    5df6:	5492                	lw	s1,36(sp)
    5df8:	5902                	lw	s2,32(sp)
    5dfa:	49f2                	lw	s3,28(sp)
    5dfc:	4a62                	lw	s4,24(sp)
    5dfe:	4ad2                	lw	s5,20(sp)
    5e00:	4b42                	lw	s6,16(sp)
    5e02:	4bb2                	lw	s7,12(sp)
    5e04:	6145                	addi	sp,sp,48
    5e06:	8082                	ret
    5e08:	0905                	addi	s2,s2,1
    5e0a:	bfad                	j	5d84 <_printf_common+0x54>
    5e0c:	00d40733          	add	a4,s0,a3
    5e10:	03000613          	li	a2,48
    5e14:	04c701a3          	sb	a2,67(a4)
    5e18:	04544703          	lbu	a4,69(s0)
    5e1c:	00168793          	addi	a5,a3,1
    5e20:	97a2                	add	a5,a5,s0
    5e22:	0689                	addi	a3,a3,2
    5e24:	04e781a3          	sb	a4,67(a5)
    5e28:	bf9d                	j	5d9e <_printf_common+0x6e>
    5e2a:	4685                	li	a3,1
    5e2c:	8622                	mv	a2,s0
    5e2e:	85d2                	mv	a1,s4
    5e30:	854e                	mv	a0,s3
    5e32:	9a82                	jalr	s5
    5e34:	fb650ee3          	beq	a0,s6,5df0 <_printf_common+0xc0>
    5e38:	0905                	addi	s2,s2,1
    5e3a:	b745                	j	5dda <_printf_common+0xaa>

00005e3c <_printf_i>:
    5e3c:	7179                	addi	sp,sp,-48
    5e3e:	d422                	sw	s0,40(sp)
    5e40:	d226                	sw	s1,36(sp)
    5e42:	d04a                	sw	s2,32(sp)
    5e44:	ce4e                	sw	s3,28(sp)
    5e46:	d606                	sw	ra,44(sp)
    5e48:	cc52                	sw	s4,24(sp)
    5e4a:	ca56                	sw	s5,20(sp)
    5e4c:	c85a                	sw	s6,16(sp)
    5e4e:	89b6                	mv	s3,a3
    5e50:	2d94                	lbu	a3,24(a1)
    5e52:	06900793          	li	a5,105
    5e56:	8932                	mv	s2,a2
    5e58:	84aa                	mv	s1,a0
    5e5a:	842e                	mv	s0,a1
    5e5c:	04358613          	addi	a2,a1,67
    5e60:	02f68d63          	beq	a3,a5,5e9a <_printf_i+0x5e>
    5e64:	06d7e263          	bltu	a5,a3,5ec8 <_printf_i+0x8c>
    5e68:	05800793          	li	a5,88
    5e6c:	18f68663          	beq	a3,a5,5ff8 <_printf_i+0x1bc>
    5e70:	00d7ed63          	bltu	a5,a3,5e8a <_printf_i+0x4e>
    5e74:	20068e63          	beqz	a3,6090 <_printf_i+0x254>
    5e78:	04300793          	li	a5,67
    5e7c:	0af68e63          	beq	a3,a5,5f38 <_printf_i+0xfc>
    5e80:	04240a93          	addi	s5,s0,66
    5e84:	04d40123          	sb	a3,66(s0)
    5e88:	a0c9                	j	5f4a <_printf_i+0x10e>
    5e8a:	06300793          	li	a5,99
    5e8e:	0af68563          	beq	a3,a5,5f38 <_printf_i+0xfc>
    5e92:	06400793          	li	a5,100
    5e96:	fef695e3          	bne	a3,a5,5e80 <_printf_i+0x44>
    5e9a:	401c                	lw	a5,0(s0)
    5e9c:	4308                	lw	a0,0(a4)
    5e9e:	0807f693          	andi	a3,a5,128
    5ea2:	00450593          	addi	a1,a0,4
    5ea6:	c6c5                	beqz	a3,5f4e <_printf_i+0x112>
    5ea8:	411c                	lw	a5,0(a0)
    5eaa:	c30c                	sw	a1,0(a4)
    5eac:	0007d863          	bgez	a5,5ebc <_printf_i+0x80>
    5eb0:	02d00713          	li	a4,45
    5eb4:	40f007b3          	neg	a5,a5
    5eb8:	04e401a3          	sb	a4,67(s0)
    5ebc:	00001697          	auipc	a3,0x1
    5ec0:	f2468693          	addi	a3,a3,-220 # 6de0 <__clz_tab+0x114>
    5ec4:	4729                	li	a4,10
    5ec6:	a865                	j	5f7e <_printf_i+0x142>
    5ec8:	07000793          	li	a5,112
    5ecc:	16f68263          	beq	a3,a5,6030 <_printf_i+0x1f4>
    5ed0:	02d7e563          	bltu	a5,a3,5efa <_printf_i+0xbe>
    5ed4:	06e00793          	li	a5,110
    5ed8:	18f68963          	beq	a3,a5,606a <_printf_i+0x22e>
    5edc:	06f00793          	li	a5,111
    5ee0:	faf690e3          	bne	a3,a5,5e80 <_printf_i+0x44>
    5ee4:	400c                	lw	a1,0(s0)
    5ee6:	431c                	lw	a5,0(a4)
    5ee8:	0805f813          	andi	a6,a1,128
    5eec:	00478513          	addi	a0,a5,4
    5ef0:	06080763          	beqz	a6,5f5e <_printf_i+0x122>
    5ef4:	c308                	sw	a0,0(a4)
    5ef6:	439c                	lw	a5,0(a5)
    5ef8:	a885                	j	5f68 <_printf_i+0x12c>
    5efa:	07500793          	li	a5,117
    5efe:	fef683e3          	beq	a3,a5,5ee4 <_printf_i+0xa8>
    5f02:	07800793          	li	a5,120
    5f06:	12f68963          	beq	a3,a5,6038 <_printf_i+0x1fc>
    5f0a:	07300793          	li	a5,115
    5f0e:	f6f699e3          	bne	a3,a5,5e80 <_printf_i+0x44>
    5f12:	431c                	lw	a5,0(a4)
    5f14:	41d0                	lw	a2,4(a1)
    5f16:	4581                	li	a1,0
    5f18:	00478693          	addi	a3,a5,4
    5f1c:	c314                	sw	a3,0(a4)
    5f1e:	0007aa83          	lw	s5,0(a5)
    5f22:	8556                	mv	a0,s5
    5f24:	2a6d                	jal	60de <memchr>
    5f26:	c501                	beqz	a0,5f2e <_printf_i+0xf2>
    5f28:	41550533          	sub	a0,a0,s5
    5f2c:	c048                	sw	a0,4(s0)
    5f2e:	405c                	lw	a5,4(s0)
    5f30:	c81c                	sw	a5,16(s0)
    5f32:	040401a3          	sb	zero,67(s0)
    5f36:	a861                	j	5fce <_printf_i+0x192>
    5f38:	431c                	lw	a5,0(a4)
    5f3a:	04240a93          	addi	s5,s0,66
    5f3e:	00478693          	addi	a3,a5,4
    5f42:	439c                	lw	a5,0(a5)
    5f44:	c314                	sw	a3,0(a4)
    5f46:	04f40123          	sb	a5,66(s0)
    5f4a:	4785                	li	a5,1
    5f4c:	b7d5                	j	5f30 <_printf_i+0xf4>
    5f4e:	0407f693          	andi	a3,a5,64
    5f52:	411c                	lw	a5,0(a0)
    5f54:	c30c                	sw	a1,0(a4)
    5f56:	dab9                	beqz	a3,5eac <_printf_i+0x70>
    5f58:	07c2                	slli	a5,a5,0x10
    5f5a:	87c1                	srai	a5,a5,0x10
    5f5c:	bf81                	j	5eac <_printf_i+0x70>
    5f5e:	0405f593          	andi	a1,a1,64
    5f62:	c308                	sw	a0,0(a4)
    5f64:	d9c9                	beqz	a1,5ef6 <_printf_i+0xba>
    5f66:	239e                	lhu	a5,0(a5)
    5f68:	06f00713          	li	a4,111
    5f6c:	0ee68763          	beq	a3,a4,605a <_printf_i+0x21e>
    5f70:	00001697          	auipc	a3,0x1
    5f74:	e7068693          	addi	a3,a3,-400 # 6de0 <__clz_tab+0x114>
    5f78:	4729                	li	a4,10
    5f7a:	040401a3          	sb	zero,67(s0)
    5f7e:	404c                	lw	a1,4(s0)
    5f80:	c40c                	sw	a1,8(s0)
    5f82:	0005c563          	bltz	a1,5f8c <_printf_i+0x150>
    5f86:	4008                	lw	a0,0(s0)
    5f88:	996d                	andi	a0,a0,-5
    5f8a:	c008                	sw	a0,0(s0)
    5f8c:	e399                	bnez	a5,5f92 <_printf_i+0x156>
    5f8e:	8ab2                	mv	s5,a2
    5f90:	cd89                	beqz	a1,5faa <_printf_i+0x16e>
    5f92:	8ab2                	mv	s5,a2
    5f94:	02e7f5b3          	remu	a1,a5,a4
    5f98:	1afd                	addi	s5,s5,-1
    5f9a:	95b6                	add	a1,a1,a3
    5f9c:	218c                	lbu	a1,0(a1)
    5f9e:	00ba8023          	sb	a1,0(s5)
    5fa2:	02e7d5b3          	divu	a1,a5,a4
    5fa6:	0ce7f063          	bgeu	a5,a4,6066 <_printf_i+0x22a>
    5faa:	47a1                	li	a5,8
    5fac:	00f71e63          	bne	a4,a5,5fc8 <_printf_i+0x18c>
    5fb0:	401c                	lw	a5,0(s0)
    5fb2:	8b85                	andi	a5,a5,1
    5fb4:	cb91                	beqz	a5,5fc8 <_printf_i+0x18c>
    5fb6:	4058                	lw	a4,4(s0)
    5fb8:	481c                	lw	a5,16(s0)
    5fba:	00e7c763          	blt	a5,a4,5fc8 <_printf_i+0x18c>
    5fbe:	03000793          	li	a5,48
    5fc2:	fefa8fa3          	sb	a5,-1(s5)
    5fc6:	1afd                	addi	s5,s5,-1
    5fc8:	41560633          	sub	a2,a2,s5
    5fcc:	c810                	sw	a2,16(s0)
    5fce:	874e                	mv	a4,s3
    5fd0:	86ca                	mv	a3,s2
    5fd2:	0070                	addi	a2,sp,12
    5fd4:	85a2                	mv	a1,s0
    5fd6:	8526                	mv	a0,s1
    5fd8:	d59ff0ef          	jal	ra,5d30 <_printf_common>
    5fdc:	5a7d                	li	s4,-1
    5fde:	0b451d63          	bne	a0,s4,6098 <_printf_i+0x25c>
    5fe2:	557d                	li	a0,-1
    5fe4:	50b2                	lw	ra,44(sp)
    5fe6:	5422                	lw	s0,40(sp)
    5fe8:	5492                	lw	s1,36(sp)
    5fea:	5902                	lw	s2,32(sp)
    5fec:	49f2                	lw	s3,28(sp)
    5fee:	4a62                	lw	s4,24(sp)
    5ff0:	4ad2                	lw	s5,20(sp)
    5ff2:	4b42                	lw	s6,16(sp)
    5ff4:	6145                	addi	sp,sp,48
    5ff6:	8082                	ret
    5ff8:	04d582a3          	sb	a3,69(a1)
    5ffc:	00001697          	auipc	a3,0x1
    6000:	de468693          	addi	a3,a3,-540 # 6de0 <__clz_tab+0x114>
    6004:	400c                	lw	a1,0(s0)
    6006:	4308                	lw	a0,0(a4)
    6008:	0805f813          	andi	a6,a1,128
    600c:	411c                	lw	a5,0(a0)
    600e:	0511                	addi	a0,a0,4
    6010:	02080d63          	beqz	a6,604a <_printf_i+0x20e>
    6014:	c308                	sw	a0,0(a4)
    6016:	0015f713          	andi	a4,a1,1
    601a:	c701                	beqz	a4,6022 <_printf_i+0x1e6>
    601c:	0205e593          	ori	a1,a1,32
    6020:	c00c                	sw	a1,0(s0)
    6022:	4741                	li	a4,16
    6024:	fbb9                	bnez	a5,5f7a <_printf_i+0x13e>
    6026:	400c                	lw	a1,0(s0)
    6028:	fdf5f593          	andi	a1,a1,-33
    602c:	c00c                	sw	a1,0(s0)
    602e:	b7b1                	j	5f7a <_printf_i+0x13e>
    6030:	419c                	lw	a5,0(a1)
    6032:	0207e793          	ori	a5,a5,32
    6036:	c19c                	sw	a5,0(a1)
    6038:	07800793          	li	a5,120
    603c:	04f402a3          	sb	a5,69(s0)
    6040:	00001697          	auipc	a3,0x1
    6044:	db468693          	addi	a3,a3,-588 # 6df4 <__clz_tab+0x128>
    6048:	bf75                	j	6004 <_printf_i+0x1c8>
    604a:	0405f813          	andi	a6,a1,64
    604e:	c308                	sw	a0,0(a4)
    6050:	fc0803e3          	beqz	a6,6016 <_printf_i+0x1da>
    6054:	07c2                	slli	a5,a5,0x10
    6056:	83c1                	srli	a5,a5,0x10
    6058:	bf7d                	j	6016 <_printf_i+0x1da>
    605a:	00001697          	auipc	a3,0x1
    605e:	d8668693          	addi	a3,a3,-634 # 6de0 <__clz_tab+0x114>
    6062:	4721                	li	a4,8
    6064:	bf19                	j	5f7a <_printf_i+0x13e>
    6066:	87ae                	mv	a5,a1
    6068:	b735                	j	5f94 <_printf_i+0x158>
    606a:	4194                	lw	a3,0(a1)
    606c:	431c                	lw	a5,0(a4)
    606e:	49cc                	lw	a1,20(a1)
    6070:	0806f813          	andi	a6,a3,128
    6074:	00478513          	addi	a0,a5,4
    6078:	00080663          	beqz	a6,6084 <_printf_i+0x248>
    607c:	c308                	sw	a0,0(a4)
    607e:	439c                	lw	a5,0(a5)
    6080:	c38c                	sw	a1,0(a5)
    6082:	a039                	j	6090 <_printf_i+0x254>
    6084:	c308                	sw	a0,0(a4)
    6086:	0406f693          	andi	a3,a3,64
    608a:	439c                	lw	a5,0(a5)
    608c:	daf5                	beqz	a3,6080 <_printf_i+0x244>
    608e:	a38e                	sh	a1,0(a5)
    6090:	00042823          	sw	zero,16(s0)
    6094:	8ab2                	mv	s5,a2
    6096:	bf25                	j	5fce <_printf_i+0x192>
    6098:	4814                	lw	a3,16(s0)
    609a:	8656                	mv	a2,s5
    609c:	85ca                	mv	a1,s2
    609e:	8526                	mv	a0,s1
    60a0:	9982                	jalr	s3
    60a2:	f54500e3          	beq	a0,s4,5fe2 <_printf_i+0x1a6>
    60a6:	401c                	lw	a5,0(s0)
    60a8:	8b89                	andi	a5,a5,2
    60aa:	e78d                	bnez	a5,60d4 <_printf_i+0x298>
    60ac:	47b2                	lw	a5,12(sp)
    60ae:	4448                	lw	a0,12(s0)
    60b0:	f2f55ae3          	bge	a0,a5,5fe4 <_printf_i+0x1a8>
    60b4:	853e                	mv	a0,a5
    60b6:	b73d                	j	5fe4 <_printf_i+0x1a8>
    60b8:	4685                	li	a3,1
    60ba:	8656                	mv	a2,s5
    60bc:	85ca                	mv	a1,s2
    60be:	8526                	mv	a0,s1
    60c0:	9982                	jalr	s3
    60c2:	f36500e3          	beq	a0,s6,5fe2 <_printf_i+0x1a6>
    60c6:	0a05                	addi	s4,s4,1
    60c8:	445c                	lw	a5,12(s0)
    60ca:	4732                	lw	a4,12(sp)
    60cc:	8f99                	sub	a5,a5,a4
    60ce:	fefa45e3          	blt	s4,a5,60b8 <_printf_i+0x27c>
    60d2:	bfe9                	j	60ac <_printf_i+0x270>
    60d4:	4a01                	li	s4,0
    60d6:	01940a93          	addi	s5,s0,25
    60da:	5b7d                	li	s6,-1
    60dc:	b7f5                	j	60c8 <_printf_i+0x28c>

000060de <memchr>:
    60de:	0ff5f593          	andi	a1,a1,255
    60e2:	962a                	add	a2,a2,a0
    60e4:	00c51463          	bne	a0,a2,60ec <memchr+0xe>
    60e8:	4501                	li	a0,0
    60ea:	8082                	ret
    60ec:	211c                	lbu	a5,0(a0)
    60ee:	feb78ee3          	beq	a5,a1,60ea <memchr+0xc>
    60f2:	0505                	addi	a0,a0,1
    60f4:	bfc5                	j	60e4 <memchr+0x6>

000060f6 <memcpy>:
    60f6:	00a5c7b3          	xor	a5,a1,a0
    60fa:	8b8d                	andi	a5,a5,3
    60fc:	00c50733          	add	a4,a0,a2
    6100:	e781                	bnez	a5,6108 <memcpy+0x12>
    6102:	478d                	li	a5,3
    6104:	00c7ed63          	bltu	a5,a2,611e <memcpy+0x28>
    6108:	87aa                	mv	a5,a0
    610a:	08e57e63          	bgeu	a0,a4,61a6 <memcpy+0xb0>
    610e:	2194                	lbu	a3,0(a1)
    6110:	0785                	addi	a5,a5,1
    6112:	0585                	addi	a1,a1,1
    6114:	fed78fa3          	sb	a3,-1(a5)
    6118:	fee7ebe3          	bltu	a5,a4,610e <memcpy+0x18>
    611c:	8082                	ret
    611e:	00357693          	andi	a3,a0,3
    6122:	87aa                	mv	a5,a0
    6124:	ca89                	beqz	a3,6136 <memcpy+0x40>
    6126:	2194                	lbu	a3,0(a1)
    6128:	0785                	addi	a5,a5,1
    612a:	0585                	addi	a1,a1,1
    612c:	fed78fa3          	sb	a3,-1(a5)
    6130:	0037f693          	andi	a3,a5,3
    6134:	bfc5                	j	6124 <memcpy+0x2e>
    6136:	ffc77693          	andi	a3,a4,-4
    613a:	fe068613          	addi	a2,a3,-32
    613e:	06c7f063          	bgeu	a5,a2,619e <memcpy+0xa8>
    6142:	0005a383          	lw	t2,0(a1)
    6146:	0045a283          	lw	t0,4(a1)
    614a:	0085af83          	lw	t6,8(a1)
    614e:	00c5af03          	lw	t5,12(a1)
    6152:	0105ae83          	lw	t4,16(a1)
    6156:	0145ae03          	lw	t3,20(a1)
    615a:	0185a303          	lw	t1,24(a1)
    615e:	01c5a883          	lw	a7,28(a1)
    6162:	02458593          	addi	a1,a1,36
    6166:	0077a023          	sw	t2,0(a5)
    616a:	ffc5a803          	lw	a6,-4(a1)
    616e:	0057a223          	sw	t0,4(a5)
    6172:	01f7a423          	sw	t6,8(a5)
    6176:	01e7a623          	sw	t5,12(a5)
    617a:	01d7a823          	sw	t4,16(a5)
    617e:	01c7aa23          	sw	t3,20(a5)
    6182:	0067ac23          	sw	t1,24(a5)
    6186:	0117ae23          	sw	a7,28(a5)
    618a:	02478793          	addi	a5,a5,36
    618e:	ff07ae23          	sw	a6,-4(a5)
    6192:	b775                	j	613e <memcpy+0x48>
    6194:	4190                	lw	a2,0(a1)
    6196:	0791                	addi	a5,a5,4
    6198:	0591                	addi	a1,a1,4
    619a:	fec7ae23          	sw	a2,-4(a5)
    619e:	fed7ebe3          	bltu	a5,a3,6194 <memcpy+0x9e>
    61a2:	f6e7e6e3          	bltu	a5,a4,610e <memcpy+0x18>
    61a6:	8082                	ret

000061a8 <memmove>:
    61a8:	04a5f163          	bgeu	a1,a0,61ea <memmove+0x42>
    61ac:	00c586b3          	add	a3,a1,a2
    61b0:	02d57d63          	bgeu	a0,a3,61ea <memmove+0x42>
    61b4:	fff64593          	not	a1,a2
    61b8:	4781                	li	a5,0
    61ba:	17fd                	addi	a5,a5,-1
    61bc:	00f59363          	bne	a1,a5,61c2 <memmove+0x1a>
    61c0:	8082                	ret
    61c2:	00f68733          	add	a4,a3,a5
    61c6:	00074803          	lbu	a6,0(a4)
    61ca:	00c78733          	add	a4,a5,a2
    61ce:	972a                	add	a4,a4,a0
    61d0:	01070023          	sb	a6,0(a4)
    61d4:	b7dd                	j	61ba <memmove+0x12>
    61d6:	00f58733          	add	a4,a1,a5
    61da:	2314                	lbu	a3,0(a4)
    61dc:	00f50733          	add	a4,a0,a5
    61e0:	0785                	addi	a5,a5,1
    61e2:	a314                	sb	a3,0(a4)
    61e4:	fef619e3          	bne	a2,a5,61d6 <memmove+0x2e>
    61e8:	8082                	ret
    61ea:	4781                	li	a5,0
    61ec:	bfe5                	j	61e4 <memmove+0x3c>

000061ee <_free_r>:
    61ee:	c1cd                	beqz	a1,6290 <_free_r+0xa2>
    61f0:	ffc5a783          	lw	a5,-4(a1)
    61f4:	1141                	addi	sp,sp,-16
    61f6:	c422                	sw	s0,8(sp)
    61f8:	c606                	sw	ra,12(sp)
    61fa:	c226                	sw	s1,4(sp)
    61fc:	ffc58413          	addi	s0,a1,-4
    6200:	0007d363          	bgez	a5,6206 <_free_r+0x18>
    6204:	943e                	add	s0,s0,a5
    6206:	84aa                	mv	s1,a0
    6208:	2ae1                	jal	63e0 <__malloc_lock>
    620a:	87018793          	addi	a5,gp,-1936 # 200001a0 <__malloc_free_list>
    620e:	439c                	lw	a5,0(a5)
    6210:	eb99                	bnez	a5,6226 <_free_r+0x38>
    6212:	00042223          	sw	zero,4(s0)
    6216:	8681a823          	sw	s0,-1936(gp) # 200001a0 <__malloc_free_list>
    621a:	4422                	lw	s0,8(sp)
    621c:	40b2                	lw	ra,12(sp)
    621e:	8526                	mv	a0,s1
    6220:	4492                	lw	s1,4(sp)
    6222:	0141                	addi	sp,sp,16
    6224:	aa7d                	j	63e2 <__malloc_unlock>
    6226:	00f47e63          	bgeu	s0,a5,6242 <_free_r+0x54>
    622a:	4014                	lw	a3,0(s0)
    622c:	00d40733          	add	a4,s0,a3
    6230:	00e79663          	bne	a5,a4,623c <_free_r+0x4e>
    6234:	4398                	lw	a4,0(a5)
    6236:	43dc                	lw	a5,4(a5)
    6238:	9736                	add	a4,a4,a3
    623a:	c018                	sw	a4,0(s0)
    623c:	c05c                	sw	a5,4(s0)
    623e:	bfe1                	j	6216 <_free_r+0x28>
    6240:	87ba                	mv	a5,a4
    6242:	43d8                	lw	a4,4(a5)
    6244:	c319                	beqz	a4,624a <_free_r+0x5c>
    6246:	fee47de3          	bgeu	s0,a4,6240 <_free_r+0x52>
    624a:	4394                	lw	a3,0(a5)
    624c:	00d78633          	add	a2,a5,a3
    6250:	00861f63          	bne	a2,s0,626e <_free_r+0x80>
    6254:	4010                	lw	a2,0(s0)
    6256:	96b2                	add	a3,a3,a2
    6258:	c394                	sw	a3,0(a5)
    625a:	00d78633          	add	a2,a5,a3
    625e:	fac71ee3          	bne	a4,a2,621a <_free_r+0x2c>
    6262:	4310                	lw	a2,0(a4)
    6264:	4358                	lw	a4,4(a4)
    6266:	96b2                	add	a3,a3,a2
    6268:	c394                	sw	a3,0(a5)
    626a:	c3d8                	sw	a4,4(a5)
    626c:	b77d                	j	621a <_free_r+0x2c>
    626e:	00c47563          	bgeu	s0,a2,6278 <_free_r+0x8a>
    6272:	47b1                	li	a5,12
    6274:	c09c                	sw	a5,0(s1)
    6276:	b755                	j	621a <_free_r+0x2c>
    6278:	4010                	lw	a2,0(s0)
    627a:	00c406b3          	add	a3,s0,a2
    627e:	00d71663          	bne	a4,a3,628a <_free_r+0x9c>
    6282:	4314                	lw	a3,0(a4)
    6284:	4358                	lw	a4,4(a4)
    6286:	96b2                	add	a3,a3,a2
    6288:	c014                	sw	a3,0(s0)
    628a:	c058                	sw	a4,4(s0)
    628c:	c3c0                	sw	s0,4(a5)
    628e:	b771                	j	621a <_free_r+0x2c>
    6290:	8082                	ret

00006292 <_malloc_r>:
    6292:	1101                	addi	sp,sp,-32
    6294:	ca26                	sw	s1,20(sp)
    6296:	00358493          	addi	s1,a1,3
    629a:	98f1                	andi	s1,s1,-4
    629c:	ce06                	sw	ra,28(sp)
    629e:	cc22                	sw	s0,24(sp)
    62a0:	c84a                	sw	s2,16(sp)
    62a2:	c64e                	sw	s3,12(sp)
    62a4:	04a1                	addi	s1,s1,8
    62a6:	47b1                	li	a5,12
    62a8:	04f4f163          	bgeu	s1,a5,62ea <_malloc_r+0x58>
    62ac:	44b1                	li	s1,12
    62ae:	04b4e063          	bltu	s1,a1,62ee <_malloc_r+0x5c>
    62b2:	892a                	mv	s2,a0
    62b4:	2235                	jal	63e0 <__malloc_lock>
    62b6:	87018793          	addi	a5,gp,-1936 # 200001a0 <__malloc_free_list>
    62ba:	4398                	lw	a4,0(a5)
    62bc:	843a                	mv	s0,a4
    62be:	e031                	bnez	s0,6302 <_malloc_r+0x70>
    62c0:	87418793          	addi	a5,gp,-1932 # 200001a4 <__malloc_sbrk_start>
    62c4:	439c                	lw	a5,0(a5)
    62c6:	e791                	bnez	a5,62d2 <_malloc_r+0x40>
    62c8:	4581                	li	a1,0
    62ca:	854a                	mv	a0,s2
    62cc:	20f5                	jal	63b8 <_sbrk_r>
    62ce:	86a1aa23          	sw	a0,-1932(gp) # 200001a4 <__malloc_sbrk_start>
    62d2:	85a6                	mv	a1,s1
    62d4:	854a                	mv	a0,s2
    62d6:	20cd                	jal	63b8 <_sbrk_r>
    62d8:	59fd                	li	s3,-1
    62da:	07351763          	bne	a0,s3,6348 <_malloc_r+0xb6>
    62de:	47b1                	li	a5,12
    62e0:	00f92023          	sw	a5,0(s2)
    62e4:	854a                	mv	a0,s2
    62e6:	28f5                	jal	63e2 <__malloc_unlock>
    62e8:	a029                	j	62f2 <_malloc_r+0x60>
    62ea:	fc04d2e3          	bgez	s1,62ae <_malloc_r+0x1c>
    62ee:	47b1                	li	a5,12
    62f0:	c11c                	sw	a5,0(a0)
    62f2:	4501                	li	a0,0
    62f4:	40f2                	lw	ra,28(sp)
    62f6:	4462                	lw	s0,24(sp)
    62f8:	44d2                	lw	s1,20(sp)
    62fa:	4942                	lw	s2,16(sp)
    62fc:	49b2                	lw	s3,12(sp)
    62fe:	6105                	addi	sp,sp,32
    6300:	8082                	ret
    6302:	401c                	lw	a5,0(s0)
    6304:	8f85                	sub	a5,a5,s1
    6306:	0207ce63          	bltz	a5,6342 <_malloc_r+0xb0>
    630a:	46ad                	li	a3,11
    630c:	00f6f663          	bgeu	a3,a5,6318 <_malloc_r+0x86>
    6310:	c01c                	sw	a5,0(s0)
    6312:	943e                	add	s0,s0,a5
    6314:	c004                	sw	s1,0(s0)
    6316:	a031                	j	6322 <_malloc_r+0x90>
    6318:	405c                	lw	a5,4(s0)
    631a:	02871263          	bne	a4,s0,633e <_malloc_r+0xac>
    631e:	86f1a823          	sw	a5,-1936(gp) # 200001a0 <__malloc_free_list>
    6322:	854a                	mv	a0,s2
    6324:	287d                	jal	63e2 <__malloc_unlock>
    6326:	00b40513          	addi	a0,s0,11
    632a:	00440793          	addi	a5,s0,4
    632e:	9961                	andi	a0,a0,-8
    6330:	40f50733          	sub	a4,a0,a5
    6334:	d361                	beqz	a4,62f4 <_malloc_r+0x62>
    6336:	943a                	add	s0,s0,a4
    6338:	8f89                	sub	a5,a5,a0
    633a:	c01c                	sw	a5,0(s0)
    633c:	bf65                	j	62f4 <_malloc_r+0x62>
    633e:	c35c                	sw	a5,4(a4)
    6340:	b7cd                	j	6322 <_malloc_r+0x90>
    6342:	8722                	mv	a4,s0
    6344:	4040                	lw	s0,4(s0)
    6346:	bfa5                	j	62be <_malloc_r+0x2c>
    6348:	00350413          	addi	s0,a0,3
    634c:	9871                	andi	s0,s0,-4
    634e:	fc8503e3          	beq	a0,s0,6314 <_malloc_r+0x82>
    6352:	40a405b3          	sub	a1,s0,a0
    6356:	854a                	mv	a0,s2
    6358:	2085                	jal	63b8 <_sbrk_r>
    635a:	fb351de3          	bne	a0,s3,6314 <_malloc_r+0x82>
    635e:	b741                	j	62de <_malloc_r+0x4c>

00006360 <_realloc_r>:
    6360:	e581                	bnez	a1,6368 <_realloc_r+0x8>
    6362:	85b2                	mv	a1,a2
    6364:	f2fff06f          	j	6292 <_malloc_r>
    6368:	1101                	addi	sp,sp,-32
    636a:	cc22                	sw	s0,24(sp)
    636c:	ce06                	sw	ra,28(sp)
    636e:	ca26                	sw	s1,20(sp)
    6370:	c84a                	sw	s2,16(sp)
    6372:	c64e                	sw	s3,12(sp)
    6374:	8432                	mv	s0,a2
    6376:	ee01                	bnez	a2,638e <_realloc_r+0x2e>
    6378:	e77ff0ef          	jal	ra,61ee <_free_r>
    637c:	4901                	li	s2,0
    637e:	40f2                	lw	ra,28(sp)
    6380:	4462                	lw	s0,24(sp)
    6382:	854a                	mv	a0,s2
    6384:	44d2                	lw	s1,20(sp)
    6386:	4942                	lw	s2,16(sp)
    6388:	49b2                	lw	s3,12(sp)
    638a:	6105                	addi	sp,sp,32
    638c:	8082                	ret
    638e:	84ae                	mv	s1,a1
    6390:	89aa                	mv	s3,a0
    6392:	2889                	jal	63e4 <_malloc_usable_size_r>
    6394:	8926                	mv	s2,s1
    6396:	fe8574e3          	bgeu	a0,s0,637e <_realloc_r+0x1e>
    639a:	85a2                	mv	a1,s0
    639c:	854e                	mv	a0,s3
    639e:	ef5ff0ef          	jal	ra,6292 <_malloc_r>
    63a2:	892a                	mv	s2,a0
    63a4:	dd69                	beqz	a0,637e <_realloc_r+0x1e>
    63a6:	85a6                	mv	a1,s1
    63a8:	8622                	mv	a2,s0
    63aa:	d4dff0ef          	jal	ra,60f6 <memcpy>
    63ae:	85a6                	mv	a1,s1
    63b0:	854e                	mv	a0,s3
    63b2:	e3dff0ef          	jal	ra,61ee <_free_r>
    63b6:	b7e1                	j	637e <_realloc_r+0x1e>

000063b8 <_sbrk_r>:
    63b8:	1141                	addi	sp,sp,-16
    63ba:	c422                	sw	s0,8(sp)
    63bc:	842a                	mv	s0,a0
    63be:	852e                	mv	a0,a1
    63c0:	f001ac23          	sw	zero,-232(gp) # 20000848 <errno>
    63c4:	c606                	sw	ra,12(sp)
    63c6:	280d                	jal	63f8 <_sbrk>
    63c8:	57fd                	li	a5,-1
    63ca:	00f51763          	bne	a0,a5,63d8 <_sbrk_r+0x20>
    63ce:	f1818793          	addi	a5,gp,-232 # 20000848 <errno>
    63d2:	439c                	lw	a5,0(a5)
    63d4:	c391                	beqz	a5,63d8 <_sbrk_r+0x20>
    63d6:	c01c                	sw	a5,0(s0)
    63d8:	40b2                	lw	ra,12(sp)
    63da:	4422                	lw	s0,8(sp)
    63dc:	0141                	addi	sp,sp,16
    63de:	8082                	ret

000063e0 <__malloc_lock>:
    63e0:	8082                	ret

000063e2 <__malloc_unlock>:
    63e2:	8082                	ret

000063e4 <_malloc_usable_size_r>:
    63e4:	ffc5a783          	lw	a5,-4(a1)
    63e8:	ffc78513          	addi	a0,a5,-4
    63ec:	0007d563          	bgez	a5,63f6 <_malloc_usable_size_r+0x12>
    63f0:	95aa                	add	a1,a1,a0
    63f2:	419c                	lw	a5,0(a1)
    63f4:	953e                	add	a0,a0,a5
    63f6:	8082                	ret

000063f8 <_sbrk>:
    63f8:	87818793          	addi	a5,gp,-1928 # 200001a8 <heap_end.1518>
    63fc:	439c                	lw	a5,0(a5)
    63fe:	c791                	beqz	a5,640a <_sbrk+0x12>
    6400:	953e                	add	a0,a0,a5
    6402:	86a1ac23          	sw	a0,-1928(gp) # 200001a8 <heap_end.1518>
    6406:	853e                	mv	a0,a5
    6408:	8082                	ret
    640a:	f1c18793          	addi	a5,gp,-228 # 2000084c <_ebss>
    640e:	953e                	add	a0,a0,a5
    6410:	86a1ac23          	sw	a0,-1928(gp) # 200001a8 <heap_end.1518>
    6414:	853e                	mv	a0,a5
    6416:	8082                	ret
    6418:	6e696153          	0x6e696153
    641c:	2074                	lbu	a3,6(s0)
    641e:	6550                	flw	fa2,12(a0)
    6420:	6574                	flw	fa3,76(a0)
    6422:	7372                	flw	ft6,60(sp)
    6424:	7562                	flw	fa0,56(sp)
    6426:	6772                	flw	fa4,28(sp)
    6428:	0000                	unimp
    642a:	0000                	unimp
    642c:	6c65                	lui	s8,0x19
    642e:	6365                	lui	t1,0x19
    6430:	7274                	flw	fa3,100(a2)
    6432:	63696e6f          	jal	t3,9ca68 <_data_lma+0x95c60>
    6436:	616c2073          	csrs	0x616,s8
    643a:	2e62                	lhu	s0,30(a2)
    643c:	0000                	unimp
    643e:	0000                	unimp
    6440:	2020                	lbu	s0,2(s0)
    6442:	2020                	lbu	s0,2(s0)
    6444:	2020                	lbu	s0,2(s0)
    6446:	2020                	lbu	s0,2(s0)
    6448:	2020                	lbu	s0,2(s0)
    644a:	2020                	lbu	s0,2(s0)
    644c:	2020                	lbu	s0,2(s0)
    644e:	2020                	lbu	s0,2(s0)
    6450:	0000                	unimp
    6452:	0000                	unimp
    6454:	2020                	lbu	s0,2(s0)
    6456:	4320                	lw	s0,64(a4)
    6458:	696c                	flw	fa1,84(a0)
    645a:	7070                	flw	fa2,100(s0)
    645c:	6e69                	lui	t3,0x1a
    645e:	20202067          	0x20202067
    6462:	0020                	addi	s0,sp,8
    6464:	3425                	jal	5e8c <_printf_i+0x50>
    6466:	312e                	lhu	a1,34(a0)
    6468:	0064                	addi	s1,sp,12
    646a:	0000                	unimp
    646c:	3225                	jal	5d94 <_printf_common+0x64>
    646e:	312e                	lhu	a1,34(a0)
    6470:	6364                	flw	fs1,68(a4)
    6472:	b5d0                	sb	a2,13(a1)
    6474:	bad0                	sb	a2,21(a3)
    6476:	002e                	c.slli	zero,0xb
    6478:	3225                	jal	5da0 <_printf_common+0x70>
    647a:	312e                	lhu	a1,34(a0)
    647c:	d064                	sw	s1,100(s0)
    647e:	d0bc                	sw	a5,96(s1)
    6480:	d0b8                	sw	a4,96(s1)
    6482:	2ebd                	jal	6800 <Font_5x7+0x94>
    6484:	0000                	unimp
    6486:	0000                	unimp
    6488:	3225                	jal	5db0 <_printf_common+0x80>
    648a:	312e                	lhu	a1,34(a0)
    648c:	d164                	sw	s1,100(a0)
    648e:	d1b0d087          	0xd1b0d087
    6492:	2e81                	jal	67e2 <Font_5x7+0x76>
    6494:	0000                	unimp
    6496:	0000                	unimp
    6498:	0000                	unimp
    649a:	4248                	lw	a0,4(a2)
    649c:	0000                	unimp
    649e:	3f00                	lbu	s0,25(a4)
    64a0:	4448                	lw	a0,12(s0)
    64a2:	30312043          	fmadd.s	ft0,ft2,ft3,ft6,rdn
    64a6:	3038                	lbu	a4,3(s0)
    64a8:	0000                	unimp
    64aa:	0000                	unimp
    64ac:	a2d0                	sb	a2,4(a3)
    64ae:	b5d0                	sb	a2,13(a1)
    64b0:	bcd0                	sb	a2,29(s1)
    64b2:	bfd0                	sb	a2,29(a5)
    64b4:	b5d0                	sb	a2,13(a1)
    64b6:	80d1                	srli	s1,s1,0x14
    64b8:	b0d0                	sb	a2,5(s1)
    64ba:	82d1                	srli	a3,a3,0x14
    64bc:	83d1                	srli	a5,a5,0x14
    64be:	80d1                	srli	s1,s1,0x14
    64c0:	b0d0                	sb	a2,5(s1)
    64c2:	203a                	lhu	a4,2(s0)
    64c4:	3325                	jal	61ec <memmove+0x44>
    64c6:	2e64                	lbu	s1,30(a2)
    64c8:	2e25                	jal	6800 <Font_5x7+0x94>
    64ca:	3130                	lbu	a2,3(a0)
    64cc:	646c                	flw	fa1,76(s0)
    64ce:	b0c2                	sh	s0,36(s1)
    64d0:	a1d0                	sb	a2,4(a1)
    64d2:	0000                	unimp
    64d4:	92d0                	0x92d0
    64d6:	bbd0                	sb	a2,21(a5)
    64d8:	b0d0                	sb	a2,5(s1)
    64da:	b6d0                	sb	a2,13(a3)
    64dc:	bdd0                	sb	a2,29(a1)
    64de:	bed0                	sb	a2,29(a3)
    64e0:	81d1                	srli	a1,a1,0x14
    64e2:	82d1                	srli	a3,a3,0x14
    64e4:	8cd1                	or	s1,s1,a2
    64e6:	203a                	lhu	a4,2(s0)
    64e8:	2020                	lbu	s0,2(s0)
    64ea:	2520                	lbu	s0,10(a0)
    64ec:	252e6433          	0x252e6433
    64f0:	302e                	lhu	a1,34(s0)
    64f2:	6c31                	lui	s8,0xc
    64f4:	2564                	lbu	s1,14(a0)
    64f6:	0025                	c.nop	9
    64f8:	afd0                	sb	a2,28(a5)
    64fa:	80d1                	srli	s1,s1,0x14
    64fc:	bad0                	sb	a2,21(a3)
    64fe:	bed0                	sb	a2,29(a3)
    6500:	81d1                	srli	a1,a1,0x14
    6502:	82d1                	srli	a3,a3,0x14
    6504:	8cd1                	or	s1,s1,a2
    6506:	d020                	sw	s0,96(s0)
    6508:	d0b4                	sw	a3,96(s1)
    650a:	d1b8                	sw	a4,96(a1)
    650c:	d081                	beqz	s1,640c <_sbrk+0x14>
    650e:	d0bbd0bf 3a8fd1b5 	0x3a8fd1b5d0bbd0bf
    6516:	2520                	lbu	s0,10(a0)
    6518:	25256433          	0x25256433
    651c:	0000                	unimp
    651e:	0000                	unimp
    6520:	a2d0                	sb	a2,4(a3)
    6522:	b5d0                	sb	a2,13(a1)
    6524:	bcd0                	sb	a2,29(s1)
    6526:	bfd0                	sb	a2,29(a5)
    6528:	b5d0                	sb	a2,13(a1)
    652a:	80d1                	srli	s1,s1,0x14
    652c:	b0d0                	sb	a2,5(s1)
    652e:	82d1                	srli	a3,a3,0x14
    6530:	83d1                	srli	a5,a5,0x14
    6532:	80d1                	srli	s1,s1,0x14
    6534:	b0d0                	sb	a2,5(s1)
    6536:	203a                	lhu	a4,2(s0)
    6538:	6425                	lui	s0,0x9
    653a:	252e                	lhu	a1,10(a0)
    653c:	302e                	lhu	a1,34(s0)
    653e:	6c31                	lui	s8,0xc
    6540:	c264                	sw	s1,68(a2)
    6542:	d0b0                	sw	a2,96(s1)
    6544:	00a1                	addi	ra,ra,8
    6546:	0000                	unimp
    6548:	92d0                	0x92d0
    654a:	bbd0                	sb	a2,21(a5)
    654c:	b0d0                	sb	a2,5(s1)
    654e:	b6d0                	sb	a2,13(a3)
    6550:	bdd0                	sb	a2,29(a1)
    6552:	bed0                	sb	a2,29(a3)
    6554:	81d1                	srli	a1,a1,0x14
    6556:	82d1                	srli	a3,a3,0x14
    6558:	8cd1                	or	s1,s1,a2
    655a:	203a                	lhu	a4,2(s0)
    655c:	6425                	lui	s0,0x9
    655e:	252e                	lhu	a1,10(a0)
    6560:	302e                	lhu	a1,34(s0)
    6562:	6c31                	lui	s8,0xc
    6564:	2564                	lbu	s1,14(a0)
    6566:	0025                	c.nop	9
    6568:	0000                	unimp
    656a:	4325                	li	t1,9
    656c:	0000                	unimp
    656e:	4780                	lw	s0,8(a5)
    6570:	0000                	unimp
    6572:	4220                	lw	s0,64(a2)
    6574:	0000                	unimp
    6576:	3f80                	lbu	s0,25(a5)
    6578:	0000                	unimp
    657a:	42c8                	lw	a0,4(a3)
    657c:	0000                	unimp
    657e:	40a0                	lw	s0,64(s1)
    6580:	0000                	unimp
    6582:	4200                	lw	s0,0(a2)

00006584 <Font_3x5>:
    6584:	0000 1700 0000 0003 ff03 ff0a ff17 091d     ................
    6594:	1204 1b0e 030a 0000 110e 1100 000e 0a04     ................
    65a4:	0404 040e 1810 0400 0404 0010 0800 0204     ................
    65b4:	11ff 11ff 10ff 151d 1517 ff15 0407 17ff     ................
    65c4:	1d15 15ff 011d ff01 15ff 17ff 1f15 000a     ................
    65d4:	1000 000a 0a04 0a00 0a0a 040a 0100 0715     ................
    65e4:	111f 1f17 1f05 151f 1f1b 1111 111f 1f0e     ................
    65f4:	1515 051f 1f05 1d11 041f 111f 111f 1018     ................
    6604:	1f1f 1b04 101f 1f10 1f02 011f 1f1f 1f11     ................
    6614:	051f 0f07 0f19 051f 171b 1d15 1f01 1f01     ................
    6624:	1f10 100f 1f0f 1f08 041b 031b 031c 1519     ................
    6634:	1f13 0011 0402 1108 001f 0102 1002 1010     ................
    6644:	0201 0c00 1e12 141e 1c08 1414 120c 0c1f     ................
    6654:	141a 1f04 1705 0f15 021f 001c 001d 0d10     ................
    6664:	1f00 1a04 1f01 1e00 1e04 021e 1e1e 1e12     ................
    6674:	0a1e 0404 1e0a 021e 1406 0a12 1f02 1e12     ................
    6684:	1e10 100e 1e0e 1e08 041a 131a 0f14 121a     ................
    6694:	0416 111f 1f00 1100 041f 040c 1f06 1f05     ................
    66a4:	151f 1f1d 1b15 011f 1e01 1e11 151f 1b15     ................
    66b4:	1b1f 1515 1f1b 1f10 111d 1f1d 1b04 011e     ................
    66c4:	1f1f 1f02 041f 1f1f 1f11 011f 1f1f 0705     ................
    66d4:	111f 0111 011f 1413 0e1f 0e1b 041b 0f1b     ................
    66e4:	1f08 0407 1f1f 1f18 0c0f 011f 1c1f 141f     ................
    66f4:	151f 0e15 141f 1f08 1f0e 051b 0c1f 1e12     ................
    6704:	151e 1e1d 0c16 021e 1c02 1c12 1a0c 1a14     ................
    6714:	1a1e 1612 1e1e 1e10 121a 1e1a 1a04 021c     ................
    6724:	1e1e 1e04 081e 1e1e 1e12 021e 1e1e 040a     ................
    6734:	121e 0212 021e 1416 0c0e 0c1e 0c1a 0e1a     ................
    6744:	1e08 0406 1e1e 1e18 0c0e 021e 181e 141e     ................
    6754:	1e1e 0018 1612 1e0c 1e0c 0a14 1f1e 1515     ................
    6764:	1a0c 0314 0003 0000                         ........

0000676c <Font_5x7>:
    676c:	0000 0000 0000 004f 0000 0007 0007 1400     ......O.........
    677c:	147f 147f 2a24 2a7f 2312 0813 6264 4936     ....$*.*.#..db6I
    678c:	2255 0040 0305 0000 221c 0041 4100 1c22     U"@......"A..A".
    679c:	0000 0814 083e 0814 3e08 0808 60a0 0000     ....>....>...`..
    67ac:	0800 0808 0808 6060 0000 2000 0810 0204     ......``... ....
    67bc:	513e 4549 003e 7f42 0040 6142 4951 2146     >QIE>.B.@.BaQIF!
    67cc:	4541 314b 1418 7f12 2710 4545 3945 4a3c     AEK1.....'EEE9<J
    67dc:	4949 0130 0971 0305 4936 4949 0636 4949     II0.q...6III6.II
    67ec:	1e29 6c6c 0000 0000 3656 0000 1408 4122     ).ll....V6...."A
    67fc:	2400 2424 2424 4100 1422 0208 5101 0609     .$$$$$.A"....Q..
    680c:	4932 4179 7e3e 1111 7e11 497f 4949 3e36     2IyA>~...~.III6>
    681c:	4141 2241 417f 2241 7f1c 4949 4149 097f     AAA".AA"..IIIA..
    682c:	0909 3e01 4941 3a49 087f 0808 007f 7f41     ...>AII:......A.
    683c:	0041 4020 3f41 7f01 1408 4122 407f 4040     A. @A?...."A.@@@
    684c:	7f40 0c02 7f02 047f 1008 3e7f 4141 3e41     @..........>AAA>
    685c:	097f 0909 3e06 5141 5e21 097f 2919 4646     .....>AQ!^...)FF
    686c:	4949 3149 0101 017f 3f01 4040 3f40 201f     III1.....?@@@?. 
    687c:	2040 3f1f 6040 3f40 1463 1408 0763 7008     @ .?@`@?c...c..p
    688c:	0708 5161 4549 7f43 4141 0000 1615 167c     ..aQIEC.AA....|.
    689c:	4115 7f41 0000 0204 0201 4004 4040 4040     .AA........@@@@@
    68ac:	0201 0004 2000 5454 7854 447f 4444 3838     ..... TTTx.DDD88
    68bc:	4444 0044 4438 4844 387f 5454 1854 7e10     DDD.8DDH.8TTT..~
    68cc:	0111 0c02 5252 3e52 087f 0404 0078 7d44     ....RRR>....x.D}
    68dc:	0040 4020 3d40 7f00 2810 0044 4100 407f     @. @@=...(D..A.@
    68ec:	7c00 1804 7804 087c 0404 3878 4444 3844     .|...x|...x8DDD8
    68fc:	147c 1414 0808 1414 7c18 087c 0404 4808     |........||....H
    690c:	5454 2054 3f04 4044 3c20 4040 7c20 201c     TTT .?D@ <@@ |. 
    691c:	2040 1e1c 1020 1e20 1422 1408 0622 4848     @ .. . ."...".HH
    692c:	3e48 6444 4c54 0844 4136 0000 0000 007f     H>DdTLD.6A......
    693c:	4100 0836 0000 0808 1c2a 7e08 1111 7e11     .A6.....*..~...~
    694c:	497f 4949 7f33 4949 3649 017f 0101 e003     .III3.III6......
    695c:	4f51 ff41 497f 4949 7741 7f08 7708 4941     QOA..IIIAw...wAI
    696c:	4949 7f36 0810 7f04 217c 0912 7f7c 1408     II6.....|!..|...
    697c:	4122 4120 013f 7f7f 0c02 7f02 087f 0808     "A A?...........
    698c:	3e7f 4141 3e41 017f 0101 7f7f 0909 0609     .>AAA>..........
    699c:	413e 4141 0122 7f01 0101 2847 0810 1c07     >AAA".....G(....
    69ac:	7f22 1c22 1463 1408 7f63 4040 ff40 0807     ".".c...c.@@@...
    69bc:	0808 7f7f 7f40 7f40 407f 407f 01ff 487f     ....@.@..@.@...H
    69cc:	3048 487f 0030 007f 487f 3048 4122 4949     H0.H0....HH0"AII
    69dc:	7f3e 3e08 3e41 2946 0919 207f 5454 7854     >..>A>F)... TTTx
    69ec:	4a3c 494a 7c31 5454 0028 047c 0404 e00c     <JJI1|TT(.|.....
    69fc:	4c54 fc44 5438 5454 6c18 7c10 6c10 4444     TLD.8TTT.l.|.lDD
    6a0c:	5454 7c28 1020 7c08 417c 1122 7c7c 2810     TT(| ..||A".||.(
    6a1c:	0044 4420 043c 7c7c 1008 7c08 107c 1010     D. D<.||...||...
    6a2c:	387c 4444 3844 047c 0404 7c7c 1414 0814     |8DDD8|...||....
    6a3c:	4438 4444 0428 7c04 0404 500c 5050 303c     8DDD(..|...PPP<0
    6a4c:	fc48 3048 2844 2810 7c44 4040 fc40 100c     H.H0D(.(D|@@@...
    6a5c:	1010 7c7c 7c40 7c40 407c 407c 04fc 507c     ..||@|@||@|@..|P
    6a6c:	2050 507c 2050 7c7c 5050 0020 4428 5454     P |PP ||PP .(DTT
    6a7c:	7c38 3810 3844 5408 1434 7e7c 4a4b 424b     8|.8D8.T4.|~KJKB
    6a8c:	5538 5554 0018 0906 0609 0000               8UTU........

00006a98 <solderingiron>:
    6a98:	e0c0 3030 3030 2060 0000 0000 0000 0000     ..0000` ........
    6aa8:	0000 0000 f800 00f8 0000 0000 0000 f8f8     ................
	...
    6ac8:	0000 3030 0000 0000 0000 0000 0000 0000     ..00............
	...
    6ae8:	0000 3000 0030 0000 0000 0000 0000 0000     ...00...........
	...
    6b18:	83c1 0406 0c0c f88c 0070 fc78 0386 0303     ........p.x.....
    6b28:	8603 78fc ff00 78ff 86fe 0303 8603 ffff     ...x...x........
    6b38:	0000 fefc 33b7 3333 3e37 003c ff00 06ff     .....3337><.....
    6b48:	0303 ffff ff00 06ff 0303 0603 f8fe 0000     ................
    6b58:	fc38 0386 0303 ff86 00ff 0000 0000 0000     8...............
    6b68:	0000 ff00 00ff ff00 06ff 0303 fc78 0386     ............x...
    6b78:	0303 8603 78fc 0000 ffff 0306 0303 fe06     .....x..........
    6b88:	00f8 0000 0000 0000 0000 0000 0000 0000     ................
    6b98:	0908 0b09 0b0b 0909 0808 0808 0b09 0b0b     ................
    6ba8:	090b 0808 0b08 080b 0909 0b0b 090b 0b0b     ................
    6bb8:	0808 0908 0b0b 0b0b 090b 0809 0b08 080b     ................
    6bc8:	0808 0b0b 0b08 080b 0808 0808 0b0b 0808     ................
    6bd8:	1000 6339 6363 1f31 000f 0800 0808 0808     ..9ccc1.........
    6be8:	0808 0b08 080b 0b08 080b 0808 0808 0b09     ................
    6bf8:	0b0b 090b 0808 0808 0b0b 0808 0808 0b08     ................
    6c08:	000b 0000 e2b2 ffff e1d8 ffff e2ac ffff     ................
    6c18:	e1e0 ffff e2ac ffff e1a6 ffff e2ac ffff     ................
    6c28:	e1e0 ffff e1d8 ffff e1d8 ffff e1a6 ffff     ................
    6c38:	e1e0 ffff e1e6 ffff e1e6 ffff e1e6 ffff     ................
    6c48:	e1a6 ffff e198 ffff e198 ffff e26c ffff     ............l...
    6c58:	e348 ffff e26c ffff e166 ffff e26c ffff     H...l...f...l...
    6c68:	e348 ffff e198 ffff e198 ffff e166 ffff     H...........f...
    6c78:	e348 ffff e1a6 ffff e1a6 ffff e1a6 ffff     H...............
    6c88:	e166 ffff e5bc ffff e50e ffff e50e ffff     f...............
    6c98:	e50c ffff e512 ffff e512 ffff e4e2 ffff     ................
    6ca8:	e50c ffff e512 ffff e4e2 ffff e512 ffff     ................
    6cb8:	e50c ffff e5aa ffff e5aa ffff e5aa ffff     ................
    6cc8:	e4e2 ffff                                   ....

00006ccc <__clz_tab>:
    6ccc:	0100 0202 0303 0303 0404 0404 0404 0404     ................
    6cdc:	0505 0505 0505 0505 0505 0505 0505 0505     ................
    6cec:	0606 0606 0606 0606 0606 0606 0606 0606     ................
    6cfc:	0606 0606 0606 0606 0606 0606 0606 0606     ................
    6d0c:	0707 0707 0707 0707 0707 0707 0707 0707     ................
    6d1c:	0707 0707 0707 0707 0707 0707 0707 0707     ................
    6d2c:	0707 0707 0707 0707 0707 0707 0707 0707     ................
    6d3c:	0707 0707 0707 0707 0707 0707 0707 0707     ................
    6d4c:	0808 0808 0808 0808 0808 0808 0808 0808     ................
    6d5c:	0808 0808 0808 0808 0808 0808 0808 0808     ................
    6d6c:	0808 0808 0808 0808 0808 0808 0808 0808     ................
    6d7c:	0808 0808 0808 0808 0808 0808 0808 0808     ................
    6d8c:	0808 0808 0808 0808 0808 0808 0808 0808     ................
    6d9c:	0808 0808 0808 0808 0808 0808 0808 0808     ................
    6dac:	0808 0808 0808 0808 0808 0808 0808 0808     ................
    6dbc:	0808 0808 0808 0808 0808 0808 0808 0808     ................
    6dcc:	2d23 2b30 0020 0000 6c68 004c 6665 4567     #-0+ ...hlL.efgE
    6ddc:	4746 0000 3130 3332 3534 3736 3938 4241     FG..0123456789AB
    6dec:	4443 4645 0000 0000 3130 3332 3534 3736     CDEF....01234567
    6dfc:	3938 6261 6463 6665 0000 0000               89abcdef....
